
Bootloader.elf:     file format elf32-littlearm

Sections:
Idx Name          Size      VMA       LMA       File off  Algn
  0 .isr_vector   00000198  08000000  08000000  00010000  2**0
                  CONTENTS, ALLOC, LOAD, READONLY, DATA
  1 .text         0000918c  08000198  08000198  00010198  2**2
                  CONTENTS, ALLOC, LOAD, READONLY, CODE
  2 .rodata       0000064c  08009324  08009324  00019324  2**2
                  CONTENTS, ALLOC, LOAD, READONLY, DATA
  3 CMOX_CTA_PROTECTED_DATA 00000764  08009970  08009970  00019970  2**2
                  CONTENTS, ALLOC, LOAD, READONLY, DATA
  4 .ARM.extab    00000000  0800a0d4  0800a0d4  0002000c  2**0
                  CONTENTS
  5 .ARM          00000008  0800a0d4  0800a0d4  0001a0d4  2**2
                  CONTENTS, ALLOC, LOAD, READONLY, DATA
  6 .preinit_array 00000000  0800a0dc  0800a0dc  0002000c  2**0
                  CONTENTS, ALLOC, LOAD, DATA
  7 .init_array   00000004  0800a0dc  0800a0dc  0001a0dc  2**2
                  CONTENTS, ALLOC, LOAD, DATA
  8 .fini_array   00000004  0800a0e0  0800a0e0  0001a0e0  2**2
                  CONTENTS, ALLOC, LOAD, DATA
  9 .data         0000000c  20000000  0800a0e4  00020000  2**2
                  CONTENTS, ALLOC, LOAD, DATA
 10 .bss          00000f24  2000000c  0800a0f0  0002000c  2**2
                  ALLOC
 11 ._user_heap_stack 00000600  20000f30  0800a0f0  00020f30  2**0
                  ALLOC
 12 .ARM.attributes 00000034  00000000  00000000  0002000c  2**0
                  CONTENTS, READONLY
 13 .debug_info   00011507  00000000  00000000  00020040  2**0
                  CONTENTS, READONLY, DEBUGGING, OCTETS
 14 .debug_abbrev 00002476  00000000  00000000  00031547  2**0
                  CONTENTS, READONLY, DEBUGGING, OCTETS
 15 .debug_aranges 00000920  00000000  00000000  000339c0  2**3
                  CONTENTS, READONLY, DEBUGGING, OCTETS
 16 .debug_ranges 00000868  00000000  00000000  000342e0  2**3
                  CONTENTS, READONLY, DEBUGGING, OCTETS
 17 .debug_macro  0001817e  00000000  00000000  00034b48  2**0
                  CONTENTS, READONLY, DEBUGGING, OCTETS
 18 .debug_line   0000e5fc  00000000  00000000  0004ccc6  2**0
                  CONTENTS, READONLY, DEBUGGING, OCTETS
 19 .debug_str    0008bc11  00000000  00000000  0005b2c2  2**0
                  CONTENTS, READONLY, DEBUGGING, OCTETS
 20 .comment      00000053  00000000  00000000  000e6ed3  2**0
                  CONTENTS, READONLY
 21 .iar_vfe_header 00000070  00000000  00000000  000e6f28  2**2
                  CONTENTS, READONLY
 22 .debug_frame  0000235c  00000000  00000000  000e6f98  2**2
                  CONTENTS, READONLY, DEBUGGING, OCTETS

Disassembly of section .text:

08000198 <__do_global_dtors_aux>:
 8000198:	b510      	push	{r4, lr}
 800019a:	4c05      	ldr	r4, [pc, #20]	; (80001b0 <__do_global_dtors_aux+0x18>)
 800019c:	7823      	ldrb	r3, [r4, #0]
 800019e:	b933      	cbnz	r3, 80001ae <__do_global_dtors_aux+0x16>
 80001a0:	4b04      	ldr	r3, [pc, #16]	; (80001b4 <__do_global_dtors_aux+0x1c>)
 80001a2:	b113      	cbz	r3, 80001aa <__do_global_dtors_aux+0x12>
 80001a4:	4804      	ldr	r0, [pc, #16]	; (80001b8 <__do_global_dtors_aux+0x20>)
 80001a6:	f3af 8000 	nop.w
 80001aa:	2301      	movs	r3, #1
 80001ac:	7023      	strb	r3, [r4, #0]
 80001ae:	bd10      	pop	{r4, pc}
 80001b0:	2000000c 	.word	0x2000000c
 80001b4:	00000000 	.word	0x00000000
 80001b8:	0800930c 	.word	0x0800930c

080001bc <frame_dummy>:
 80001bc:	b508      	push	{r3, lr}
 80001be:	4b03      	ldr	r3, [pc, #12]	; (80001cc <frame_dummy+0x10>)
 80001c0:	b11b      	cbz	r3, 80001ca <frame_dummy+0xe>
 80001c2:	4903      	ldr	r1, [pc, #12]	; (80001d0 <frame_dummy+0x14>)
 80001c4:	4803      	ldr	r0, [pc, #12]	; (80001d4 <frame_dummy+0x18>)
 80001c6:	f3af 8000 	nop.w
 80001ca:	bd08      	pop	{r3, pc}
 80001cc:	00000000 	.word	0x00000000
 80001d0:	20000010 	.word	0x20000010
 80001d4:	0800930c 	.word	0x0800930c

080001d8 <cmox_cipher_init>:
 80001d8:	b908      	cbnz	r0, 80001de <cmox_cipher_init+0x6>
 80001da:	4802      	ldr	r0, [pc, #8]	; (80001e4 <__iar_annotation$$tailcall+0x2>)
 80001dc:	4770      	bx	lr
 80001de:	6801      	ldr	r1, [r0, #0]
 80001e0:	684a      	ldr	r2, [r1, #4]

080001e2 <__iar_annotation$$tailcall>:
 80001e2:	4710      	bx	r2
 80001e4:	00010003 	.word	0x00010003

080001e8 <cmox_cipher_setKey>:
 80001e8:	b510      	push	{r4, lr}
 80001ea:	2800      	cmp	r0, #0
 80001ec:	bf18      	it	ne
 80001ee:	2900      	cmpne	r1, #0
 80001f0:	4b03      	ldr	r3, [pc, #12]	; (8000200 <cmox_cipher_setKey+0x18>)
 80001f2:	d003      	beq.n	80001fc <cmox_cipher_setKey+0x14>
 80001f4:	6803      	ldr	r3, [r0, #0]
 80001f6:	689c      	ldr	r4, [r3, #8]
 80001f8:	47a0      	blx	r4
 80001fa:	4603      	mov	r3, r0
 80001fc:	4618      	mov	r0, r3
 80001fe:	bd10      	pop	{r4, pc}
 8000200:	00010003 	.word	0x00010003

08000204 <cmox_cipher_setIV>:
 8000204:	b510      	push	{r4, lr}
 8000206:	2800      	cmp	r0, #0
 8000208:	bf18      	it	ne
 800020a:	2900      	cmpne	r1, #0
 800020c:	4b03      	ldr	r3, [pc, #12]	; (800021c <cmox_cipher_setIV+0x18>)
 800020e:	d003      	beq.n	8000218 <cmox_cipher_setIV+0x14>
 8000210:	6803      	ldr	r3, [r0, #0]
 8000212:	68dc      	ldr	r4, [r3, #12]
 8000214:	47a0      	blx	r4
 8000216:	4603      	mov	r3, r0
 8000218:	4618      	mov	r0, r3
 800021a:	bd10      	pop	{r4, pc}
 800021c:	00010003 	.word	0x00010003

08000220 <cmox_cipher_setTagLen>:
 8000220:	b908      	cbnz	r0, 8000226 <cmox_cipher_setTagLen+0x6>
 8000222:	4802      	ldr	r0, [pc, #8]	; (800022c <__iar_annotation$$tailcall+0x2>)
 8000224:	4770      	bx	lr
 8000226:	6802      	ldr	r2, [r0, #0]
 8000228:	6913      	ldr	r3, [r2, #16]

0800022a <__iar_annotation$$tailcall>:
 800022a:	4718      	bx	r3
 800022c:	00010003 	.word	0x00010003

08000230 <cmox_cipher_append>:
 8000230:	b538      	push	{r3, r4, r5, lr}
 8000232:	9d04      	ldr	r5, [sp, #16]
 8000234:	b10d      	cbz	r5, 800023a <cmox_cipher_append+0xa>
 8000236:	2400      	movs	r4, #0
 8000238:	602c      	str	r4, [r5, #0]
 800023a:	b912      	cbnz	r2, 8000242 <cmox_cipher_append+0x12>
 800023c:	f44f 3480 	mov.w	r4, #65536	; 0x10000
 8000240:	e00a      	b.n	8000258 <cmox_cipher_append+0x28>
 8000242:	2800      	cmp	r0, #0
 8000244:	bf18      	it	ne
 8000246:	2900      	cmpne	r1, #0
 8000248:	4c04      	ldr	r4, [pc, #16]	; (800025c <cmox_cipher_append+0x2c>)
 800024a:	d005      	beq.n	8000258 <cmox_cipher_append+0x28>
 800024c:	b123      	cbz	r3, 8000258 <cmox_cipher_append+0x28>
 800024e:	9500      	str	r5, [sp, #0]
 8000250:	6804      	ldr	r4, [r0, #0]
 8000252:	6a25      	ldr	r5, [r4, #32]
 8000254:	47a8      	blx	r5
 8000256:	4604      	mov	r4, r0
 8000258:	4620      	mov	r0, r4
 800025a:	bd32      	pop	{r1, r4, r5, pc}
 800025c:	00010003 	.word	0x00010003

08000260 <cmox_cipher_verifyTag>:
 8000260:	b510      	push	{r4, lr}
 8000262:	2800      	cmp	r0, #0
 8000264:	bf18      	it	ne
 8000266:	2900      	cmpne	r1, #0
 8000268:	4b03      	ldr	r3, [pc, #12]	; (8000278 <cmox_cipher_verifyTag+0x18>)
 800026a:	d003      	beq.n	8000274 <cmox_cipher_verifyTag+0x14>
 800026c:	6803      	ldr	r3, [r0, #0]
 800026e:	6a9c      	ldr	r4, [r3, #40]	; 0x28
 8000270:	47a0      	blx	r4
 8000272:	4603      	mov	r3, r0
 8000274:	4618      	mov	r0, r3
 8000276:	bd10      	pop	{r4, pc}
 8000278:	00010003 	.word	0x00010003

0800027c <cmox_aead_innerCommon>:
 800027c:	b5fe      	push	{r1, r2, r3, r4, r5, r6, r7, lr}
 800027e:	4604      	mov	r4, r0
 8000280:	460d      	mov	r5, r1
 8000282:	6821      	ldr	r1, [r4, #0]
 8000284:	4616      	mov	r6, r2
 8000286:	684a      	ldr	r2, [r1, #4]
 8000288:	461f      	mov	r7, r3
 800028a:	4790      	blx	r2
 800028c:	f5b0 3f80 	cmp.w	r0, #65536	; 0x10000
 8000290:	d144      	bne.n	800031c <cmox_aead_innerCommon+0xa0>
 8000292:	6823      	ldr	r3, [r4, #0]
 8000294:	9a08      	ldr	r2, [sp, #32]
 8000296:	4639      	mov	r1, r7
 8000298:	689f      	ldr	r7, [r3, #8]
 800029a:	4620      	mov	r0, r4
 800029c:	47b8      	blx	r7
 800029e:	f5b0 3f80 	cmp.w	r0, #65536	; 0x10000
 80002a2:	d13b      	bne.n	800031c <cmox_aead_innerCommon+0xa0>
 80002a4:	6822      	ldr	r2, [r4, #0]
 80002a6:	990d      	ldr	r1, [sp, #52]	; 0x34
 80002a8:	6913      	ldr	r3, [r2, #16]
 80002aa:	4620      	mov	r0, r4
 80002ac:	4798      	blx	r3
 80002ae:	f5b0 3f80 	cmp.w	r0, #65536	; 0x10000
 80002b2:	d133      	bne.n	800031c <cmox_aead_innerCommon+0xa0>
 80002b4:	6822      	ldr	r2, [r4, #0]
 80002b6:	6953      	ldr	r3, [r2, #20]
 80002b8:	4631      	mov	r1, r6
 80002ba:	4620      	mov	r0, r4
 80002bc:	4798      	blx	r3
 80002be:	f5b0 3f80 	cmp.w	r0, #65536	; 0x10000
 80002c2:	d12b      	bne.n	800031c <cmox_aead_innerCommon+0xa0>
 80002c4:	6822      	ldr	r2, [r4, #0]
 80002c6:	9f0c      	ldr	r7, [sp, #48]	; 0x30
 80002c8:	6993      	ldr	r3, [r2, #24]
 80002ca:	4639      	mov	r1, r7
 80002cc:	4620      	mov	r0, r4
 80002ce:	4798      	blx	r3
 80002d0:	f5b0 3f80 	cmp.w	r0, #65536	; 0x10000
 80002d4:	d122      	bne.n	800031c <cmox_aead_innerCommon+0xa0>
 80002d6:	6823      	ldr	r3, [r4, #0]
 80002d8:	9a0a      	ldr	r2, [sp, #40]	; 0x28
 80002da:	9909      	ldr	r1, [sp, #36]	; 0x24
 80002dc:	f8d3 c00c 	ldr.w	ip, [r3, #12]
 80002e0:	4620      	mov	r0, r4
 80002e2:	47e0      	blx	ip
 80002e4:	f5b0 3f80 	cmp.w	r0, #65536	; 0x10000
 80002e8:	d118      	bne.n	800031c <cmox_aead_innerCommon+0xa0>
 80002ea:	6823      	ldr	r3, [r4, #0]
 80002ec:	990b      	ldr	r1, [sp, #44]	; 0x2c
 80002ee:	463a      	mov	r2, r7
 80002f0:	69df      	ldr	r7, [r3, #28]
 80002f2:	4620      	mov	r0, r4
 80002f4:	47b8      	blx	r7
 80002f6:	f5b0 3f80 	cmp.w	r0, #65536	; 0x10000
 80002fa:	d10f      	bne.n	800031c <cmox_aead_innerCommon+0xa0>
 80002fc:	a801      	add	r0, sp, #4
 80002fe:	9000      	str	r0, [sp, #0]
 8000300:	4629      	mov	r1, r5
 8000302:	4620      	mov	r0, r4
 8000304:	6824      	ldr	r4, [r4, #0]
 8000306:	9b0e      	ldr	r3, [sp, #56]	; 0x38
 8000308:	6a25      	ldr	r5, [r4, #32]
 800030a:	4632      	mov	r2, r6
 800030c:	47a8      	blx	r5
 800030e:	f5b0 3f80 	cmp.w	r0, #65536	; 0x10000
 8000312:	d103      	bne.n	800031c <cmox_aead_innerCommon+0xa0>
 8000314:	990f      	ldr	r1, [sp, #60]	; 0x3c
 8000316:	b109      	cbz	r1, 800031c <cmox_aead_innerCommon+0xa0>
 8000318:	9a01      	ldr	r2, [sp, #4]
 800031a:	600a      	str	r2, [r1, #0]
 800031c:	bdfe      	pop	{r1, r2, r3, r4, r5, r6, r7, pc}
	...

08000320 <cmox_aead_innerDecrypt>:
 8000320:	b5f8      	push	{r3, r4, r5, r6, r7, lr}
 8000322:	4604      	mov	r4, r0
 8000324:	4615      	mov	r5, r2
 8000326:	b088      	sub	sp, #32
 8000328:	9816      	ldr	r0, [sp, #88]	; 0x58
 800032a:	9a14      	ldr	r2, [sp, #80]	; 0x50
 800032c:	9e15      	ldr	r6, [sp, #84]	; 0x54
 800032e:	9f0f      	ldr	r7, [sp, #60]	; 0x3c
 8000330:	9007      	str	r0, [sp, #28]
 8000332:	9205      	str	r2, [sp, #20]
 8000334:	9606      	str	r6, [sp, #24]
 8000336:	9701      	str	r7, [sp, #4]
 8000338:	9812      	ldr	r0, [sp, #72]	; 0x48
 800033a:	9a11      	ldr	r2, [sp, #68]	; 0x44
 800033c:	9004      	str	r0, [sp, #16]
 800033e:	9203      	str	r2, [sp, #12]
 8000340:	462a      	mov	r2, r5
 8000342:	9810      	ldr	r0, [sp, #64]	; 0x40
 8000344:	9002      	str	r0, [sp, #8]
 8000346:	980e      	ldr	r0, [sp, #56]	; 0x38
 8000348:	9000      	str	r0, [sp, #0]
 800034a:	4620      	mov	r0, r4
 800034c:	f7ff ff96 	bl	800027c <cmox_aead_innerCommon>
 8000350:	4607      	mov	r7, r0
 8000352:	f5b7 3f80 	cmp.w	r7, #65536	; 0x10000
 8000356:	d10d      	bne.n	8000374 <cmox_aead_innerDecrypt+0x54>
 8000358:	6823      	ldr	r3, [r4, #0]
 800035a:	9913      	ldr	r1, [sp, #76]	; 0x4c
 800035c:	6a9f      	ldr	r7, [r3, #40]	; 0x28
 800035e:	2200      	movs	r2, #0
 8000360:	4620      	mov	r0, r4
 8000362:	47b8      	blx	r7
 8000364:	4607      	mov	r7, r0
 8000366:	4807      	ldr	r0, [pc, #28]	; (8000384 <cmox_aead_innerDecrypt+0x64>)
 8000368:	4287      	cmp	r7, r0
 800036a:	d003      	beq.n	8000374 <cmox_aead_innerDecrypt+0x54>
 800036c:	4629      	mov	r1, r5
 800036e:	4630      	mov	r0, r6
 8000370:	f008 ff8c 	bl	800928c <__aeabi_memclr>
 8000374:	6821      	ldr	r1, [r4, #0]
 8000376:	680a      	ldr	r2, [r1, #0]
 8000378:	4620      	mov	r0, r4
 800037a:	4790      	blx	r2
 800037c:	4638      	mov	r0, r7
 800037e:	b009      	add	sp, #36	; 0x24
 8000380:	bdf0      	pop	{r4, r5, r6, r7, pc}
 8000382:	bf00      	nop
 8000384:	0001c726 	.word	0x0001c726

08000388 <cmox_cipherMode_setKey>:
 8000388:	e92d 4ff1 	stmdb	sp!, {r0, r4, r5, r6, r7, r8, r9, sl, fp, lr}
 800038c:	b08c      	sub	sp, #48	; 0x30
 800038e:	4692      	mov	sl, r2
 8000390:	f1ba 0f10 	cmp.w	sl, #16
 8000394:	4ae7      	ldr	r2, [pc, #924]	; (8000734 <cmox_cipherMode_setKey+0x3ac>)
 8000396:	4be8      	ldr	r3, [pc, #928]	; (8000738 <cmox_cipherMode_setKey+0x3b0>)
 8000398:	4de8      	ldr	r5, [pc, #928]	; (800073c <cmox_cipherMode_setKey+0x3b4>)
 800039a:	f8df 83a4 	ldr.w	r8, [pc, #932]	; 8000740 <cmox_cipherMode_setKey+0x3b8>
 800039e:	4ee9      	ldr	r6, [pc, #932]	; (8000744 <cmox_cipherMode_setKey+0x3bc>)
 80003a0:	f8df b3a4 	ldr.w	fp, [pc, #932]	; 8000748 <cmox_cipherMode_setKey+0x3c0>
 80003a4:	f10d 0c04 	add.w	ip, sp, #4
 80003a8:	d008      	beq.n	80003bc <cmox_cipherMode_setKey+0x34>
 80003aa:	f1ba 0f18 	cmp.w	sl, #24
 80003ae:	f000 8092 	beq.w	80004d6 <cmox_cipherMode_setKey+0x14e>
 80003b2:	f1ba 0f20 	cmp.w	sl, #32
 80003b6:	f000 8118 	beq.w	80005ea <cmox_cipherMode_setKey+0x262>
 80003ba:	e1a8      	b.n	800070e <cmox_cipherMode_setKey+0x386>
 80003bc:	e9db 0400 	ldrd	r0, r4, [fp]
 80003c0:	f10d 0e24 	add.w	lr, sp, #36	; 0x24
 80003c4:	4fe1      	ldr	r7, [pc, #900]	; (800074c <cmox_cipherMode_setKey+0x3c4>)
 80003c6:	e9ce 0400 	strd	r0, r4, [lr]
 80003ca:	7838      	ldrb	r0, [r7, #0]
 80003cc:	2800      	cmp	r0, #0
 80003ce:	bf0c      	ite	eq
 80003d0:	f04f 0900 	moveq.w	r9, #0
 80003d4:	f04f 0904 	movne.w	r9, #4
 80003d8:	f856 4009 	ldr.w	r4, [r6, r9]
 80003dc:	f85e 7009 	ldr.w	r7, [lr, r9]
 80003e0:	443c      	add	r4, r7
 80003e2:	6023      	str	r3, [r4, #0]
 80003e4:	2301      	movs	r3, #1
 80003e6:	6827      	ldr	r7, [r4, #0]
 80003e8:	60a3      	str	r3, [r4, #8]
 80003ea:	f8d6 9000 	ldr.w	r9, [r6]
 80003ee:	6873      	ldr	r3, [r6, #4]
 80003f0:	7b8c      	ldrb	r4, [r1, #14]
 80003f2:	9400      	str	r4, [sp, #0]
 80003f4:	405f      	eors	r7, r3
 80003f6:	9c09      	ldr	r4, [sp, #36]	; 0x24
 80003f8:	407c      	eors	r4, r7
 80003fa:	f8de 7004 	ldr.w	r7, [lr, #4]
 80003fe:	ea87 0709 	eor.w	r7, r7, r9
 8000402:	f084 0404 	eor.w	r4, r4, #4
 8000406:	f087 0efc 	eor.w	lr, r7, #252	; 0xfc
 800040a:	4474      	add	r4, lr
 800040c:	9f00      	ldr	r7, [sp, #0]
 800040e:	f084 0e52 	eor.w	lr, r4, #82	; 0x52
 8000412:	44be      	add	lr, r7
 8000414:	f88c e00e 	strb.w	lr, [ip, #14]
 8000418:	f04f 0e01 	mov.w	lr, #1
 800041c:	f811 400e 	ldrb.w	r4, [r1, lr]
 8000420:	f80c 400e 	strb.w	r4, [ip, lr]
 8000424:	f10e 0e01 	add.w	lr, lr, #1
 8000428:	f1be 0f0e 	cmp.w	lr, #14
 800042c:	d3f6      	bcc.n	800041c <cmox_cipherMode_setKey+0x94>
 800042e:	e9db 4700 	ldrd	r4, r7, [fp]
 8000432:	f10d 0e24 	add.w	lr, sp, #36	; 0x24
 8000436:	2800      	cmp	r0, #0
 8000438:	e9ce 4700 	strd	r4, r7, [lr]
 800043c:	bf0c      	ite	eq
 800043e:	2700      	moveq	r7, #0
 8000440:	2704      	movne	r7, #4
 8000442:	463c      	mov	r4, r7
 8000444:	59f7      	ldr	r7, [r6, r7]
 8000446:	f85e 4004 	ldr.w	r4, [lr, r4]
 800044a:	19e4      	adds	r4, r4, r7
 800044c:	2701      	movs	r7, #1
 800044e:	f8c4 8000 	str.w	r8, [r4]
 8000452:	2800      	cmp	r0, #0
 8000454:	f8d4 8000 	ldr.w	r8, [r4]
 8000458:	60a7      	str	r7, [r4, #8]
 800045a:	ea83 0808 	eor.w	r8, r3, r8
 800045e:	9c09      	ldr	r4, [sp, #36]	; 0x24
 8000460:	780f      	ldrb	r7, [r1, #0]
 8000462:	ea84 0408 	eor.w	r4, r4, r8
 8000466:	f084 0804 	eor.w	r8, r4, #4
 800046a:	f8de 4004 	ldr.w	r4, [lr, #4]
 800046e:	ea84 0409 	eor.w	r4, r4, r9
 8000472:	f084 04fc 	eor.w	r4, r4, #252	; 0xfc
 8000476:	4444      	add	r4, r8
 8000478:	f084 080b 	eor.w	r8, r4, #11
 800047c:	e9db 4e00 	ldrd	r4, lr, [fp]
 8000480:	44b8      	add	r8, r7
 8000482:	af09      	add	r7, sp, #36	; 0x24
 8000484:	f88d 8004 	strb.w	r8, [sp, #4]
 8000488:	e9c7 4e00 	strd	r4, lr, [r7]
 800048c:	bf0e      	itee	eq
 800048e:	f04f 0e00 	moveq.w	lr, #0
 8000492:	2004      	movne	r0, #4
 8000494:	4686      	movne	lr, r0
 8000496:	ac09      	add	r4, sp, #36	; 0x24
 8000498:	5836      	ldr	r6, [r6, r0]
 800049a:	f854 000e 	ldr.w	r0, [r4, lr]
 800049e:	1986      	adds	r6, r0, r6
 80004a0:	6035      	str	r5, [r6, #0]
 80004a2:	2501      	movs	r5, #1
 80004a4:	6830      	ldr	r0, [r6, #0]
 80004a6:	60b5      	str	r5, [r6, #8]
 80004a8:	4043      	eors	r3, r0
 80004aa:	7bce      	ldrb	r6, [r1, #15]
 80004ac:	9909      	ldr	r1, [sp, #36]	; 0x24
 80004ae:	6860      	ldr	r0, [r4, #4]
 80004b0:	404b      	eors	r3, r1
 80004b2:	ea80 0009 	eor.w	r0, r0, r9
 80004b6:	f083 0304 	eor.w	r3, r3, #4
 80004ba:	f080 00fc 	eor.w	r0, r0, #252	; 0xfc
 80004be:	4403      	add	r3, r0
 80004c0:	f083 0385 	eor.w	r3, r3, #133	; 0x85
 80004c4:	199b      	adds	r3, r3, r6
 80004c6:	f88c 300f 	strb.w	r3, [ip, #15]
 80004ca:	9d0c      	ldr	r5, [sp, #48]	; 0x30
 80004cc:	7a28      	ldrb	r0, [r5, #8]
 80004ce:	07c1      	lsls	r1, r0, #31
 80004d0:	f100 811f 	bmi.w	8000712 <cmox_cipherMode_setKey+0x38a>
 80004d4:	e11b      	b.n	800070e <cmox_cipherMode_setKey+0x386>
 80004d6:	e9db e900 	ldrd	lr, r9, [fp]
 80004da:	a809      	add	r0, sp, #36	; 0x24
 80004dc:	4c9b      	ldr	r4, [pc, #620]	; (800074c <cmox_cipherMode_setKey+0x3c4>)
 80004de:	e9c0 e900 	strd	lr, r9, [r0]
 80004e2:	7820      	ldrb	r0, [r4, #0]
 80004e4:	2800      	cmp	r0, #0
 80004e6:	bf0c      	ite	eq
 80004e8:	f04f 0900 	moveq.w	r9, #0
 80004ec:	f04f 0904 	movne.w	r9, #4
 80004f0:	f10d 0e24 	add.w	lr, sp, #36	; 0x24
 80004f4:	f856 4009 	ldr.w	r4, [r6, r9]
 80004f8:	f85e 7009 	ldr.w	r7, [lr, r9]
 80004fc:	443c      	add	r4, r7
 80004fe:	6025      	str	r5, [r4, #0]
 8000500:	2501      	movs	r5, #1
 8000502:	6827      	ldr	r7, [r4, #0]
 8000504:	60a5      	str	r5, [r4, #8]
 8000506:	f8d6 9000 	ldr.w	r9, [r6]
 800050a:	6875      	ldr	r5, [r6, #4]
 800050c:	7b8c      	ldrb	r4, [r1, #14]
 800050e:	9400      	str	r4, [sp, #0]
 8000510:	406f      	eors	r7, r5
 8000512:	9c09      	ldr	r4, [sp, #36]	; 0x24
 8000514:	407c      	eors	r4, r7
 8000516:	f8de 7004 	ldr.w	r7, [lr, #4]
 800051a:	ea87 0709 	eor.w	r7, r7, r9
 800051e:	f084 0404 	eor.w	r4, r4, #4
 8000522:	f087 0efc 	eor.w	lr, r7, #252	; 0xfc
 8000526:	4474      	add	r4, lr
 8000528:	9f00      	ldr	r7, [sp, #0]
 800052a:	f084 0e85 	eor.w	lr, r4, #133	; 0x85
 800052e:	44be      	add	lr, r7
 8000530:	f88c e00e 	strb.w	lr, [ip, #14]
 8000534:	f04f 0e01 	mov.w	lr, #1
 8000538:	f811 400e 	ldrb.w	r4, [r1, lr]
 800053c:	f80c 400e 	strb.w	r4, [ip, lr]
 8000540:	f10e 0e01 	add.w	lr, lr, #1
 8000544:	f1be 0f0e 	cmp.w	lr, #14
 8000548:	d3f6      	bcc.n	8000538 <cmox_cipherMode_setKey+0x1b0>
 800054a:	e9db 4700 	ldrd	r4, r7, [fp]
 800054e:	f10d 0e24 	add.w	lr, sp, #36	; 0x24
 8000552:	2800      	cmp	r0, #0
 8000554:	e9ce 4700 	strd	r4, r7, [lr]
 8000558:	bf0c      	ite	eq
 800055a:	2700      	moveq	r7, #0
 800055c:	2704      	movne	r7, #4
 800055e:	463c      	mov	r4, r7
 8000560:	59f7      	ldr	r7, [r6, r7]
 8000562:	f85e 4004 	ldr.w	r4, [lr, r4]
 8000566:	19e4      	adds	r4, r4, r7
 8000568:	6023      	str	r3, [r4, #0]
 800056a:	2301      	movs	r3, #1
 800056c:	6827      	ldr	r7, [r4, #0]
 800056e:	60a3      	str	r3, [r4, #8]
 8000570:	406f      	eors	r7, r5
 8000572:	9b09      	ldr	r3, [sp, #36]	; 0x24
 8000574:	780c      	ldrb	r4, [r1, #0]
 8000576:	405f      	eors	r7, r3
 8000578:	f8de 3004 	ldr.w	r3, [lr, #4]
 800057c:	ea83 0309 	eor.w	r3, r3, r9
 8000580:	f087 0704 	eor.w	r7, r7, #4
 8000584:	f083 03fc 	eor.w	r3, r3, #252	; 0xfc
 8000588:	441f      	add	r7, r3
 800058a:	f087 0752 	eor.w	r7, r7, #82	; 0x52
 800058e:	193f      	adds	r7, r7, r4
 8000590:	f88d 7004 	strb.w	r7, [sp, #4]
 8000594:	ac09      	add	r4, sp, #36	; 0x24
 8000596:	e9db 7300 	ldrd	r7, r3, [fp]
 800059a:	e9c4 7300 	strd	r7, r3, [r4]
 800059e:	2800      	cmp	r0, #0
 80005a0:	bf0e      	itee	eq
 80005a2:	2300      	moveq	r3, #0
 80005a4:	2004      	movne	r0, #4
 80005a6:	2304      	movne	r3, #4
 80005a8:	5836      	ldr	r6, [r6, r0]
 80005aa:	58e0      	ldr	r0, [r4, r3]
 80005ac:	1986      	adds	r6, r0, r6
 80005ae:	2301      	movs	r3, #1
 80005b0:	f8c6 8000 	str.w	r8, [r6]
 80005b4:	6830      	ldr	r0, [r6, #0]
 80005b6:	60b3      	str	r3, [r6, #8]
 80005b8:	4045      	eors	r5, r0
 80005ba:	9b09      	ldr	r3, [sp, #36]	; 0x24
 80005bc:	6860      	ldr	r0, [r4, #4]
 80005be:	405d      	eors	r5, r3
 80005c0:	ea80 0009 	eor.w	r0, r0, r9
 80005c4:	f085 0504 	eor.w	r5, r5, #4
 80005c8:	f080 00fc 	eor.w	r0, r0, #252	; 0xfc
 80005cc:	7bce      	ldrb	r6, [r1, #15]
 80005ce:	4405      	add	r5, r0
 80005d0:	f085 050b 	eor.w	r5, r5, #11
 80005d4:	19ad      	adds	r5, r5, r6
 80005d6:	f88c 500f 	strb.w	r5, [ip, #15]
 80005da:	2010      	movs	r0, #16
 80005dc:	5c0b      	ldrb	r3, [r1, r0]
 80005de:	f80c 3000 	strb.w	r3, [ip, r0]
 80005e2:	1c40      	adds	r0, r0, #1
 80005e4:	2818      	cmp	r0, #24
 80005e6:	d3f9      	bcc.n	80005dc <cmox_cipherMode_setKey+0x254>
 80005e8:	e76f      	b.n	80004ca <cmox_cipherMode_setKey+0x142>
 80005ea:	e9db e900 	ldrd	lr, r9, [fp]
 80005ee:	a809      	add	r0, sp, #36	; 0x24
 80005f0:	4c56      	ldr	r4, [pc, #344]	; (800074c <cmox_cipherMode_setKey+0x3c4>)
 80005f2:	e9c0 e900 	strd	lr, r9, [r0]
 80005f6:	7820      	ldrb	r0, [r4, #0]
 80005f8:	2800      	cmp	r0, #0
 80005fa:	bf0c      	ite	eq
 80005fc:	f04f 0900 	moveq.w	r9, #0
 8000600:	f04f 0904 	movne.w	r9, #4
 8000604:	f10d 0e24 	add.w	lr, sp, #36	; 0x24
 8000608:	f856 4009 	ldr.w	r4, [r6, r9]
 800060c:	f85e 7009 	ldr.w	r7, [lr, r9]
 8000610:	443c      	add	r4, r7
 8000612:	f8c4 8000 	str.w	r8, [r4]
 8000616:	f04f 0801 	mov.w	r8, #1
 800061a:	6827      	ldr	r7, [r4, #0]
 800061c:	f8c4 8008 	str.w	r8, [r4, #8]
 8000620:	f8d6 9000 	ldr.w	r9, [r6]
 8000624:	f8d6 8004 	ldr.w	r8, [r6, #4]
 8000628:	7fcc      	ldrb	r4, [r1, #31]
 800062a:	9400      	str	r4, [sp, #0]
 800062c:	ea88 0707 	eor.w	r7, r8, r7
 8000630:	9c09      	ldr	r4, [sp, #36]	; 0x24
 8000632:	407c      	eors	r4, r7
 8000634:	f8de 7004 	ldr.w	r7, [lr, #4]
 8000638:	ea87 0709 	eor.w	r7, r7, r9
 800063c:	f084 0404 	eor.w	r4, r4, #4
 8000640:	f087 0efc 	eor.w	lr, r7, #252	; 0xfc
 8000644:	4474      	add	r4, lr
 8000646:	9f00      	ldr	r7, [sp, #0]
 8000648:	f084 0e0b 	eor.w	lr, r4, #11
 800064c:	44be      	add	lr, r7
 800064e:	f88c e01f 	strb.w	lr, [ip, #31]
 8000652:	f04f 0e00 	mov.w	lr, #0
 8000656:	f811 400e 	ldrb.w	r4, [r1, lr]
 800065a:	f80c 400e 	strb.w	r4, [ip, lr]
 800065e:	f10e 0e01 	add.w	lr, lr, #1
 8000662:	f1be 0f10 	cmp.w	lr, #16
 8000666:	d3f6      	bcc.n	8000656 <cmox_cipherMode_setKey+0x2ce>
 8000668:	e9db 4700 	ldrd	r4, r7, [fp]
 800066c:	f10d 0e24 	add.w	lr, sp, #36	; 0x24
 8000670:	2800      	cmp	r0, #0
 8000672:	e9ce 4700 	strd	r4, r7, [lr]
 8000676:	bf0c      	ite	eq
 8000678:	2700      	moveq	r7, #0
 800067a:	2704      	movne	r7, #4
 800067c:	463c      	mov	r4, r7
 800067e:	59f7      	ldr	r7, [r6, r7]
 8000680:	f85e 4004 	ldr.w	r4, [lr, r4]
 8000684:	19e4      	adds	r4, r4, r7
 8000686:	6025      	str	r5, [r4, #0]
 8000688:	2501      	movs	r5, #1
 800068a:	6827      	ldr	r7, [r4, #0]
 800068c:	60a5      	str	r5, [r4, #8]
 800068e:	ea88 0707 	eor.w	r7, r8, r7
 8000692:	9d09      	ldr	r5, [sp, #36]	; 0x24
 8000694:	7c4c      	ldrb	r4, [r1, #17]
 8000696:	406f      	eors	r7, r5
 8000698:	f8de 5004 	ldr.w	r5, [lr, #4]
 800069c:	ea85 0509 	eor.w	r5, r5, r9
 80006a0:	f087 0704 	eor.w	r7, r7, #4
 80006a4:	f085 05fc 	eor.w	r5, r5, #252	; 0xfc
 80006a8:	442f      	add	r7, r5
 80006aa:	f087 0785 	eor.w	r7, r7, #133	; 0x85
 80006ae:	193f      	adds	r7, r7, r4
 80006b0:	f88c 7011 	strb.w	r7, [ip, #17]
 80006b4:	ad09      	add	r5, sp, #36	; 0x24
 80006b6:	e9db 4700 	ldrd	r4, r7, [fp]
 80006ba:	e9c5 4700 	strd	r4, r7, [r5]
 80006be:	2800      	cmp	r0, #0
 80006c0:	bf0e      	itee	eq
 80006c2:	f04f 0b00 	moveq.w	fp, #0
 80006c6:	2004      	movne	r0, #4
 80006c8:	4683      	movne	fp, r0
 80006ca:	5836      	ldr	r6, [r6, r0]
 80006cc:	f855 000b 	ldr.w	r0, [r5, fp]
 80006d0:	1986      	adds	r6, r0, r6
 80006d2:	6033      	str	r3, [r6, #0]
 80006d4:	2301      	movs	r3, #1
 80006d6:	6830      	ldr	r0, [r6, #0]
 80006d8:	60b3      	str	r3, [r6, #8]
 80006da:	ea88 0000 	eor.w	r0, r8, r0
 80006de:	9b09      	ldr	r3, [sp, #36]	; 0x24
 80006e0:	7c0e      	ldrb	r6, [r1, #16]
 80006e2:	4058      	eors	r0, r3
 80006e4:	f080 0804 	eor.w	r8, r0, #4
 80006e8:	6868      	ldr	r0, [r5, #4]
 80006ea:	ea80 0009 	eor.w	r0, r0, r9
 80006ee:	f080 00fc 	eor.w	r0, r0, #252	; 0xfc
 80006f2:	4440      	add	r0, r8
 80006f4:	f080 0852 	eor.w	r8, r0, #82	; 0x52
 80006f8:	44b0      	add	r8, r6
 80006fa:	f88c 8010 	strb.w	r8, [ip, #16]
 80006fe:	2012      	movs	r0, #18
 8000700:	5c0b      	ldrb	r3, [r1, r0]
 8000702:	f80c 3000 	strb.w	r3, [ip, r0]
 8000706:	1c40      	adds	r0, r0, #1
 8000708:	281f      	cmp	r0, #31
 800070a:	d3f9      	bcc.n	8000700 <cmox_cipherMode_setKey+0x378>
 800070c:	e6dd      	b.n	80004ca <cmox_cipherMode_setKey+0x142>
 800070e:	4610      	mov	r0, r2
 8000710:	e00d      	b.n	800072e <cmox_cipherMode_setKey+0x3a6>
 8000712:	682b      	ldr	r3, [r5, #0]
 8000714:	685e      	ldr	r6, [r3, #4]
 8000716:	4652      	mov	r2, sl
 8000718:	a901      	add	r1, sp, #4
 800071a:	4628      	mov	r0, r5
 800071c:	47b0      	blx	r6
 800071e:	68a8      	ldr	r0, [r5, #8]
 8000720:	f8c5 a004 	str.w	sl, [r5, #4]
 8000724:	f040 0004 	orr.w	r0, r0, #4
 8000728:	60a8      	str	r0, [r5, #8]
 800072a:	f44f 3080 	mov.w	r0, #65536	; 0x10000
 800072e:	b00d      	add	sp, #52	; 0x34
 8000730:	e8bd 8ff0 	ldmia.w	sp!, {r4, r5, r6, r7, r8, r9, sl, fp, pc}
 8000734:	00010003 	.word	0x00010003
 8000738:	f78e2254 	.word	0xf78e2254
 800073c:	2e8f137d 	.word	0x2e8f137d
 8000740:	910e0ba4 	.word	0x910e0ba4
 8000744:	08009748 	.word	0x08009748
 8000748:	08000764 	.word	0x08000764
 800074c:	20000028 	.word	0x20000028

08000750 <cmox_cipher_setPayloadLen_empty>:
 8000750:	f44f 3080 	mov.w	r0, #65536	; 0x10000
 8000754:	4770      	bx	lr

08000756 <cmox_cipher_setADLen_empty>:
 8000756:	f44f 3080 	mov.w	r0, #65536	; 0x10000
 800075a:	4770      	bx	lr

0800075c <cmox_cipher_generateTag_empty>:
 800075c:	4800      	ldr	r0, [pc, #0]	; (8000760 <cmox_cipher_generateTag_empty+0x4>)
 800075e:	4770      	bx	lr
 8000760:	00010002 	.word	0x00010002
 8000764:	0101b004 	.word	0x0101b004
 8000768:	45011700 	.word	0x45011700

0800076c <cmox_ecc_construct>:
 800076c:	b510      	push	{r4, lr}
 800076e:	0004      	movs	r4, r0
 8000770:	4610      	mov	r0, r2
 8000772:	bf18      	it	ne
 8000774:	2900      	cmpne	r1, #0
 8000776:	461a      	mov	r2, r3
 8000778:	d00a      	beq.n	8000790 <cmox_ecc_construct+0x24>
 800077a:	2800      	cmp	r0, #0
 800077c:	bf18      	it	ne
 800077e:	2a00      	cmpne	r2, #0
 8000780:	d006      	beq.n	8000790 <cmox_ecc_construct+0x24>
 8000782:	6121      	str	r1, [r4, #16]
 8000784:	4601      	mov	r1, r0
 8000786:	4620      	mov	r0, r4
 8000788:	f002 ff85 	bl	8003696 <cmox_membuf_init>
 800078c:	4b01      	ldr	r3, [pc, #4]	; (8000794 <cmox_ecc_construct+0x28>)
 800078e:	6163      	str	r3, [r4, #20]
 8000790:	bd10      	pop	{r4, pc}
 8000792:	bf00      	nop
 8000794:	5e1caffe 	.word	0x5e1caffe

08000798 <cmox_ecc_cleanup>:
 8000798:	b510      	push	{r4, lr}
 800079a:	0004      	movs	r4, r0
 800079c:	d007      	beq.n	80007ae <cmox_ecc_cleanup+0x16>
 800079e:	f002 ffbe 	bl	800371e <cmox_membuf_cleanup>
 80007a2:	4620      	mov	r0, r4
 80007a4:	e8bd 4010 	ldmia.w	sp!, {r4, lr}
 80007a8:	2118      	movs	r1, #24
 80007aa:	f008 bd6f 	b.w	800928c <__aeabi_memclr>
 80007ae:	bd10      	pop	{r4, pc}

080007b0 <cmox_ECC_InvertModN>:
 80007b0:	b5fe      	push	{r1, r2, r3, r4, r5, r6, r7, lr}
 80007b2:	0004      	movs	r4, r0
 80007b4:	460d      	mov	r5, r1
 80007b6:	bf18      	it	ne
 80007b8:	2d00      	cmpne	r5, #0
 80007ba:	4616      	mov	r6, r2
 80007bc:	461f      	mov	r7, r3
 80007be:	d00d      	beq.n	80007dc <cmox_ECC_InvertModN+0x2c>
 80007c0:	2e00      	cmp	r6, #0
 80007c2:	bf18      	it	ne
 80007c4:	2f00      	cmpne	r7, #0
 80007c6:	d009      	beq.n	80007dc <cmox_ECC_InvertModN+0x2c>
 80007c8:	69a0      	ldr	r0, [r4, #24]
 80007ca:	6801      	ldr	r1, [r0, #0]
 80007cc:	6888      	ldr	r0, [r1, #8]
 80007ce:	682a      	ldr	r2, [r5, #0]
 80007d0:	6801      	ldr	r1, [r0, #0]
 80007d2:	428a      	cmp	r2, r1
 80007d4:	bf24      	itt	cs
 80007d6:	683b      	ldrcs	r3, [r7, #0]
 80007d8:	428b      	cmpcs	r3, r1
 80007da:	d201      	bcs.n	80007e0 <cmox_ECC_InvertModN+0x30>
 80007dc:	2001      	movs	r0, #1
 80007de:	bdfe      	pop	{r1, r2, r3, r4, r5, r6, r7, pc}
 80007e0:	463a      	mov	r2, r7
 80007e2:	f06f 0101 	mvn.w	r1, #1
 80007e6:	f002 fd8b 	bl	8003300 <cmox_AddBN_Int>
 80007ea:	69a0      	ldr	r0, [r4, #24]
 80007ec:	f8d0 c01c 	ldr.w	ip, [r0, #28]
 80007f0:	6a20      	ldr	r0, [r4, #32]
 80007f2:	9002      	str	r0, [sp, #8]
 80007f4:	4622      	mov	r2, r4
 80007f6:	69e1      	ldr	r1, [r4, #28]
 80007f8:	9101      	str	r1, [sp, #4]
 80007fa:	9600      	str	r6, [sp, #0]
 80007fc:	f8dc 3004 	ldr.w	r3, [ip, #4]
 8000800:	f8dc 4000 	ldr.w	r4, [ip]
 8000804:	4639      	mov	r1, r7
 8000806:	4628      	mov	r0, r5
 8000808:	47a0      	blx	r4
 800080a:	bdfe      	pop	{r1, r2, r3, r4, r5, r6, r7, pc}

0800080c <cmox_ECC_InitCurve>:
 800080c:	b510      	push	{r4, lr}
 800080e:	2800      	cmp	r0, #0
 8000810:	bf18      	it	ne
 8000812:	2900      	cmpne	r1, #0
 8000814:	d101      	bne.n	800081a <cmox_ECC_InitCurve+0xe>
 8000816:	2001      	movs	r0, #1
 8000818:	bd10      	pop	{r4, pc}
 800081a:	2400      	movs	r4, #0
 800081c:	6144      	str	r4, [r0, #20]
 800081e:	6181      	str	r1, [r0, #24]
 8000820:	61c2      	str	r2, [r0, #28]
 8000822:	6203      	str	r3, [r0, #32]
 8000824:	2000      	movs	r0, #0
 8000826:	bd10      	pop	{r4, pc}

08000828 <cmox_ECC_InitCurveModDomainP>:
 8000828:	4602      	mov	r2, r0
 800082a:	6990      	ldr	r0, [r2, #24]
 800082c:	6800      	ldr	r0, [r0, #0]
 800082e:	6841      	ldr	r1, [r0, #4]
 8000830:	69d3      	ldr	r3, [r2, #28]
 8000832:	6800      	ldr	r0, [r0, #0]
 8000834:	f002 be62 	b.w	80034fc <cmox_ModularBN_InitWithR2>

08000838 <cmox_ECC_InitCurveModDomainN>:
 8000838:	4602      	mov	r2, r0
 800083a:	6990      	ldr	r0, [r2, #24]
 800083c:	6800      	ldr	r0, [r0, #0]
 800083e:	68c1      	ldr	r1, [r0, #12]
 8000840:	69d3      	ldr	r3, [r2, #28]
 8000842:	6880      	ldr	r0, [r0, #8]
 8000844:	f002 be5a 	b.w	80034fc <cmox_ModularBN_InitWithR2>

08000848 <cmox_ECC_DeInitCurveModDomain>:
 8000848:	69c1      	ldr	r1, [r0, #28]
 800084a:	f002 bede 	b.w	800360a <cmox_ModularBN_DeinitWithR2>

0800084e <cmox_ECC_AllocPoint>:
 800084e:	b570      	push	{r4, r5, r6, lr}
 8000850:	4605      	mov	r5, r0
 8000852:	460e      	mov	r6, r1
 8000854:	69e8      	ldr	r0, [r5, #28]
 8000856:	2214      	movs	r2, #20
 8000858:	f002 ff2d 	bl	80036b6 <cmox_membuf_alloc>
 800085c:	0004      	movs	r4, r0
 800085e:	d149      	bne.n	80008f4 <cmox_ECC_AllocPoint+0xa6>
 8000860:	6831      	ldr	r1, [r6, #0]
 8000862:	2000      	movs	r0, #0
 8000864:	6108      	str	r0, [r1, #16]
 8000866:	69aa      	ldr	r2, [r5, #24]
 8000868:	6810      	ldr	r0, [r2, #0]
 800086a:	6803      	ldr	r3, [r0, #0]
 800086c:	69e8      	ldr	r0, [r5, #28]
 800086e:	681a      	ldr	r2, [r3, #0]
 8000870:	f004 fcd8 	bl	8005224 <cmox_bn_alloc>
 8000874:	0004      	movs	r4, r0
 8000876:	d138      	bne.n	80008ea <cmox_ECC_AllocPoint+0x9c>
 8000878:	69a8      	ldr	r0, [r5, #24]
 800087a:	6801      	ldr	r1, [r0, #0]
 800087c:	6830      	ldr	r0, [r6, #0]
 800087e:	680a      	ldr	r2, [r1, #0]
 8000880:	6812      	ldr	r2, [r2, #0]
 8000882:	f100 0108 	add.w	r1, r0, #8
 8000886:	69e8      	ldr	r0, [r5, #28]
 8000888:	f004 fccc 	bl	8005224 <cmox_bn_alloc>
 800088c:	0004      	movs	r4, r0
 800088e:	d128      	bne.n	80008e2 <cmox_ECC_AllocPoint+0x94>
 8000890:	69a8      	ldr	r0, [r5, #24]
 8000892:	6842      	ldr	r2, [r0, #4]
 8000894:	69d3      	ldr	r3, [r2, #28]
 8000896:	6831      	ldr	r1, [r6, #0]
 8000898:	2b03      	cmp	r3, #3
 800089a:	d030      	beq.n	80008fe <cmox_ECC_AllocPoint+0xb0>
 800089c:	6800      	ldr	r0, [r0, #0]
 800089e:	6802      	ldr	r2, [r0, #0]
 80008a0:	69e8      	ldr	r0, [r5, #28]
 80008a2:	6812      	ldr	r2, [r2, #0]
 80008a4:	1d09      	adds	r1, r1, #4
 80008a6:	f004 fcbd 	bl	8005224 <cmox_bn_alloc>
 80008aa:	0004      	movs	r4, r0
 80008ac:	d113      	bne.n	80008d6 <cmox_ECC_AllocPoint+0x88>
 80008ae:	69a8      	ldr	r0, [r5, #24]
 80008b0:	6842      	ldr	r2, [r0, #4]
 80008b2:	69d3      	ldr	r3, [r2, #28]
 80008b4:	6831      	ldr	r1, [r6, #0]
 80008b6:	2b02      	cmp	r3, #2
 80008b8:	d11e      	bne.n	80008f8 <cmox_ECC_AllocPoint+0xaa>
 80008ba:	6800      	ldr	r0, [r0, #0]
 80008bc:	6802      	ldr	r2, [r0, #0]
 80008be:	69e8      	ldr	r0, [r5, #28]
 80008c0:	6812      	ldr	r2, [r2, #0]
 80008c2:	310c      	adds	r1, #12
 80008c4:	f004 fcae 	bl	8005224 <cmox_bn_alloc>
 80008c8:	0004      	movs	r4, r0
 80008ca:	d013      	beq.n	80008f4 <cmox_ECC_AllocPoint+0xa6>
 80008cc:	6830      	ldr	r0, [r6, #0]
 80008ce:	1d01      	adds	r1, r0, #4
 80008d0:	69e8      	ldr	r0, [r5, #28]
 80008d2:	f004 fcb2 	bl	800523a <cmox_bn_free>
 80008d6:	6830      	ldr	r0, [r6, #0]
 80008d8:	f100 0108 	add.w	r1, r0, #8
 80008dc:	69e8      	ldr	r0, [r5, #28]
 80008de:	f004 fcac 	bl	800523a <cmox_bn_free>
 80008e2:	6831      	ldr	r1, [r6, #0]
 80008e4:	69e8      	ldr	r0, [r5, #28]
 80008e6:	f004 fca8 	bl	800523a <cmox_bn_free>
 80008ea:	69e8      	ldr	r0, [r5, #28]
 80008ec:	2214      	movs	r2, #20
 80008ee:	4631      	mov	r1, r6
 80008f0:	f002 ff00 	bl	80036f4 <cmox_membuf_free>
 80008f4:	4620      	mov	r0, r4
 80008f6:	bd70      	pop	{r4, r5, r6, pc}
 80008f8:	2000      	movs	r0, #0
 80008fa:	60c8      	str	r0, [r1, #12]
 80008fc:	e7fa      	b.n	80008f4 <cmox_ECC_AllocPoint+0xa6>
 80008fe:	2200      	movs	r2, #0
 8000900:	604a      	str	r2, [r1, #4]
 8000902:	60ca      	str	r2, [r1, #12]
 8000904:	e7f6      	b.n	80008f4 <cmox_ECC_AllocPoint+0xa6>

08000906 <cmox_ECC_FreePoint>:
 8000906:	b570      	push	{r4, r5, r6, lr}
 8000908:	460c      	mov	r4, r1
 800090a:	2500      	movs	r5, #0
 800090c:	4606      	mov	r6, r0
 800090e:	2c00      	cmp	r4, #0
 8000910:	bf1a      	itte	ne
 8000912:	6820      	ldrne	r0, [r4, #0]
 8000914:	2800      	cmpne	r0, #0
 8000916:	2501      	moveq	r5, #1
 8000918:	d023      	beq.n	8000962 <cmox_ECC_FreePoint+0x5c>
 800091a:	69b1      	ldr	r1, [r6, #24]
 800091c:	684a      	ldr	r2, [r1, #4]
 800091e:	69d3      	ldr	r3, [r2, #28]
 8000920:	2b02      	cmp	r3, #2
 8000922:	d104      	bne.n	800092e <cmox_ECC_FreePoint+0x28>
 8000924:	f100 010c 	add.w	r1, r0, #12
 8000928:	69f0      	ldr	r0, [r6, #28]
 800092a:	f004 fc86 	bl	800523a <cmox_bn_free>
 800092e:	69b0      	ldr	r0, [r6, #24]
 8000930:	6841      	ldr	r1, [r0, #4]
 8000932:	69c8      	ldr	r0, [r1, #28]
 8000934:	2803      	cmp	r0, #3
 8000936:	d004      	beq.n	8000942 <cmox_ECC_FreePoint+0x3c>
 8000938:	6821      	ldr	r1, [r4, #0]
 800093a:	69f0      	ldr	r0, [r6, #28]
 800093c:	1d09      	adds	r1, r1, #4
 800093e:	f004 fc7c 	bl	800523a <cmox_bn_free>
 8000942:	6820      	ldr	r0, [r4, #0]
 8000944:	f100 0108 	add.w	r1, r0, #8
 8000948:	69f0      	ldr	r0, [r6, #28]
 800094a:	f004 fc76 	bl	800523a <cmox_bn_free>
 800094e:	6821      	ldr	r1, [r4, #0]
 8000950:	69f0      	ldr	r0, [r6, #28]
 8000952:	f004 fc72 	bl	800523a <cmox_bn_free>
 8000956:	69f0      	ldr	r0, [r6, #28]
 8000958:	2214      	movs	r2, #20
 800095a:	4621      	mov	r1, r4
 800095c:	f002 feca 	bl	80036f4 <cmox_membuf_free>
 8000960:	6025      	str	r5, [r4, #0]
 8000962:	4628      	mov	r0, r5
 8000964:	bd70      	pop	{r4, r5, r6, pc}
	...

08000968 <cmox_ECC_CondCopyPoint>:
 8000968:	b5f8      	push	{r3, r4, r5, r6, r7, lr}
 800096a:	460f      	mov	r7, r1
 800096c:	2500      	movs	r5, #0
 800096e:	4616      	mov	r6, r2
 8000970:	2f00      	cmp	r7, #0
 8000972:	bf18      	it	ne
 8000974:	2e00      	cmpne	r6, #0
 8000976:	4604      	mov	r4, r0
 8000978:	d00b      	beq.n	8000992 <cmox_ECC_CondCopyPoint+0x2a>
 800097a:	6839      	ldr	r1, [r7, #0]
 800097c:	2900      	cmp	r1, #0
 800097e:	bf1c      	itt	ne
 8000980:	68b8      	ldrne	r0, [r7, #8]
 8000982:	2800      	cmpne	r0, #0
 8000984:	d005      	beq.n	8000992 <cmox_ECC_CondCopyPoint+0x2a>
 8000986:	6832      	ldr	r2, [r6, #0]
 8000988:	2a00      	cmp	r2, #0
 800098a:	bf1c      	itt	ne
 800098c:	68b0      	ldrne	r0, [r6, #8]
 800098e:	2800      	cmpne	r0, #0
 8000990:	d101      	bne.n	8000996 <cmox_ECC_CondCopyPoint+0x2e>
 8000992:	2501      	movs	r5, #1
 8000994:	e019      	b.n	80009ca <cmox_ECC_CondCopyPoint+0x62>
 8000996:	693b      	ldr	r3, [r7, #16]
 8000998:	6133      	str	r3, [r6, #16]
 800099a:	4620      	mov	r0, r4
 800099c:	f004 fc88 	bl	80052b0 <cmox_bn_cCopy>
 80009a0:	6879      	ldr	r1, [r7, #4]
 80009a2:	2900      	cmp	r1, #0
 80009a4:	bf1f      	itttt	ne
 80009a6:	6872      	ldrne	r2, [r6, #4]
 80009a8:	2a00      	cmpne	r2, #0
 80009aa:	4620      	movne	r0, r4
 80009ac:	f004 fc80 	blne	80052b0 <cmox_bn_cCopy>
 80009b0:	68b2      	ldr	r2, [r6, #8]
 80009b2:	68b9      	ldr	r1, [r7, #8]
 80009b4:	4620      	mov	r0, r4
 80009b6:	f004 fc7b 	bl	80052b0 <cmox_bn_cCopy>
 80009ba:	68f9      	ldr	r1, [r7, #12]
 80009bc:	2900      	cmp	r1, #0
 80009be:	bf1f      	itttt	ne
 80009c0:	68f2      	ldrne	r2, [r6, #12]
 80009c2:	2a00      	cmpne	r2, #0
 80009c4:	4620      	movne	r0, r4
 80009c6:	f004 fc73 	blne	80052b0 <cmox_bn_cCopy>
 80009ca:	4628      	mov	r0, r5
 80009cc:	bdf2      	pop	{r1, r4, r5, r6, r7, pc}

080009ce <cmox_ECC_CondSymmetricPoint>:
 80009ce:	b570      	push	{r4, r5, r6, lr}
 80009d0:	460e      	mov	r6, r1
 80009d2:	4615      	mov	r5, r2
 80009d4:	69b1      	ldr	r1, [r6, #24]
 80009d6:	680a      	ldr	r2, [r1, #0]
 80009d8:	69d3      	ldr	r3, [r2, #28]
 80009da:	4604      	mov	r4, r0
 80009dc:	2001      	movs	r0, #1
 80009de:	b13b      	cbz	r3, 80009f0 <cmox_ECC_CondSymmetricPoint+0x22>
 80009e0:	2b02      	cmp	r3, #2
 80009e2:	d001      	beq.n	80009e8 <cmox_ECC_CondSymmetricPoint+0x1a>
 80009e4:	d307      	bcc.n	80009f6 <cmox_ECC_CondSymmetricPoint+0x28>
 80009e6:	bd70      	pop	{r4, r5, r6, pc}
 80009e8:	6849      	ldr	r1, [r1, #4]
 80009ea:	69cb      	ldr	r3, [r1, #28]
 80009ec:	2b03      	cmp	r3, #3
 80009ee:	d014      	beq.n	8000a1a <cmox_ECC_CondSymmetricPoint+0x4c>
 80009f0:	6812      	ldr	r2, [r2, #0]
 80009f2:	6869      	ldr	r1, [r5, #4]
 80009f4:	e00c      	b.n	8000a10 <cmox_ECC_CondSymmetricPoint+0x42>
 80009f6:	6812      	ldr	r2, [r2, #0]
 80009f8:	6829      	ldr	r1, [r5, #0]
 80009fa:	4620      	mov	r0, r4
 80009fc:	f002 fd50 	bl	80034a0 <cmox_FieldBN_CondNegate>
 8000a00:	69b1      	ldr	r1, [r6, #24]
 8000a02:	684a      	ldr	r2, [r1, #4]
 8000a04:	69d3      	ldr	r3, [r2, #28]
 8000a06:	2b02      	cmp	r3, #2
 8000a08:	d107      	bne.n	8000a1a <cmox_ECC_CondSymmetricPoint+0x4c>
 8000a0a:	6808      	ldr	r0, [r1, #0]
 8000a0c:	68e9      	ldr	r1, [r5, #12]
 8000a0e:	6802      	ldr	r2, [r0, #0]
 8000a10:	4620      	mov	r0, r4
 8000a12:	e8bd 4070 	ldmia.w	sp!, {r4, r5, r6, lr}
 8000a16:	f002 bd43 	b.w	80034a0 <cmox_FieldBN_CondNegate>
 8000a1a:	bd70      	pop	{r4, r5, r6, pc}

08000a1c <cmox_ECC_SetPointAtInfinity>:
 8000a1c:	b570      	push	{r4, r5, r6, lr}
 8000a1e:	460d      	mov	r5, r1
 8000a20:	4606      	mov	r6, r0
 8000a22:	6928      	ldr	r0, [r5, #16]
 8000a24:	f040 0001 	orr.w	r0, r0, #1
 8000a28:	6128      	str	r0, [r5, #16]
 8000a2a:	2400      	movs	r4, #0
 8000a2c:	69b1      	ldr	r1, [r6, #24]
 8000a2e:	6808      	ldr	r0, [r1, #0]
 8000a30:	69c2      	ldr	r2, [r0, #28]
 8000a32:	b11a      	cbz	r2, 8000a3c <cmox_ECC_SetPointAtInfinity+0x20>
 8000a34:	2a02      	cmp	r2, #2
 8000a36:	d00b      	beq.n	8000a50 <cmox_ECC_SetPointAtInfinity+0x34>
 8000a38:	d31a      	bcc.n	8000a70 <cmox_ECC_SetPointAtInfinity+0x54>
 8000a3a:	e02f      	b.n	8000a9c <cmox_ECC_SetPointAtInfinity+0x80>
 8000a3c:	6828      	ldr	r0, [r5, #0]
 8000a3e:	2100      	movs	r1, #0
 8000a40:	f004 fc27 	bl	8005292 <cmox_bn_init>
 8000a44:	6868      	ldr	r0, [r5, #4]
 8000a46:	2101      	movs	r1, #1
 8000a48:	f004 fc23 	bl	8005292 <cmox_bn_init>
 8000a4c:	68a8      	ldr	r0, [r5, #8]
 8000a4e:	e021      	b.n	8000a94 <cmox_ECC_SetPointAtInfinity+0x78>
 8000a50:	6849      	ldr	r1, [r1, #4]
 8000a52:	69ca      	ldr	r2, [r1, #28]
 8000a54:	6828      	ldr	r0, [r5, #0]
 8000a56:	2a03      	cmp	r2, #3
 8000a58:	bf08      	it	eq
 8000a5a:	2101      	moveq	r1, #1
 8000a5c:	d004      	beq.n	8000a68 <cmox_ECC_SetPointAtInfinity+0x4c>
 8000a5e:	2100      	movs	r1, #0
 8000a60:	f004 fc17 	bl	8005292 <cmox_bn_init>
 8000a64:	6868      	ldr	r0, [r5, #4]
 8000a66:	2101      	movs	r1, #1
 8000a68:	f004 fc13 	bl	8005292 <cmox_bn_init>
 8000a6c:	68a8      	ldr	r0, [r5, #8]
 8000a6e:	e011      	b.n	8000a94 <cmox_ECC_SetPointAtInfinity+0x78>
 8000a70:	6828      	ldr	r0, [r5, #0]
 8000a72:	2100      	movs	r1, #0
 8000a74:	f004 fc0d 	bl	8005292 <cmox_bn_init>
 8000a78:	6868      	ldr	r0, [r5, #4]
 8000a7a:	2101      	movs	r1, #1
 8000a7c:	f004 fc09 	bl	8005292 <cmox_bn_init>
 8000a80:	68a8      	ldr	r0, [r5, #8]
 8000a82:	2101      	movs	r1, #1
 8000a84:	f004 fc05 	bl	8005292 <cmox_bn_init>
 8000a88:	69b0      	ldr	r0, [r6, #24]
 8000a8a:	6841      	ldr	r1, [r0, #4]
 8000a8c:	69c8      	ldr	r0, [r1, #28]
 8000a8e:	2802      	cmp	r0, #2
 8000a90:	d105      	bne.n	8000a9e <cmox_ECC_SetPointAtInfinity+0x82>
 8000a92:	68e8      	ldr	r0, [r5, #12]
 8000a94:	2100      	movs	r1, #0
 8000a96:	f004 fbfc 	bl	8005292 <cmox_bn_init>
 8000a9a:	e000      	b.n	8000a9e <cmox_ECC_SetPointAtInfinity+0x82>
 8000a9c:	2401      	movs	r4, #1
 8000a9e:	4620      	mov	r0, r4
 8000aa0:	bd70      	pop	{r4, r5, r6, pc}

08000aa2 <cmox_ECC_CondImportPoint>:
 8000aa2:	e92d 4bfc 	stmdb	sp!, {r2, r3, r4, r5, r6, r7, r8, r9, fp, lr}
 8000aa6:	4616      	mov	r6, r2
 8000aa8:	2500      	movs	r5, #0
 8000aaa:	2e00      	cmp	r6, #0
 8000aac:	bf1c      	itt	ne
 8000aae:	9f0b      	ldrne	r7, [sp, #44]	; 0x2c
 8000ab0:	2f00      	cmpne	r7, #0
 8000ab2:	4680      	mov	r8, r0
 8000ab4:	468b      	mov	fp, r1
 8000ab6:	461c      	mov	r4, r3
 8000ab8:	d005      	beq.n	8000ac6 <cmox_ECC_CondImportPoint+0x24>
 8000aba:	6839      	ldr	r1, [r7, #0]
 8000abc:	2900      	cmp	r1, #0
 8000abe:	bf1c      	itt	ne
 8000ac0:	68b8      	ldrne	r0, [r7, #8]
 8000ac2:	2800      	cmpne	r0, #0
 8000ac4:	d103      	bne.n	8000ace <cmox_ECC_CondImportPoint+0x2c>
 8000ac6:	2501      	movs	r5, #1
 8000ac8:	4628      	mov	r0, r5
 8000aca:	e8bd 8bf6 	ldmia.w	sp!, {r1, r2, r4, r5, r6, r7, r8, r9, fp, pc}
 8000ace:	980a      	ldr	r0, [sp, #40]	; 0x28
 8000ad0:	6138      	str	r0, [r7, #16]
 8000ad2:	4640      	mov	r0, r8
 8000ad4:	684a      	ldr	r2, [r1, #4]
 8000ad6:	6831      	ldr	r1, [r6, #0]
 8000ad8:	f002 fdaf 	bl	800363a <cmox_mathUtils_mux>
 8000adc:	683a      	ldr	r2, [r7, #0]
 8000ade:	6050      	str	r0, [r2, #4]
 8000ae0:	6878      	ldr	r0, [r7, #4]
 8000ae2:	b138      	cbz	r0, 8000af4 <cmox_ECC_CondImportPoint+0x52>
 8000ae4:	6842      	ldr	r2, [r0, #4]
 8000ae6:	f856 102b 	ldr.w	r1, [r6, fp, lsl #2]
 8000aea:	4640      	mov	r0, r8
 8000aec:	f002 fda5 	bl	800363a <cmox_mathUtils_mux>
 8000af0:	6879      	ldr	r1, [r7, #4]
 8000af2:	6048      	str	r0, [r1, #4]
 8000af4:	2c00      	cmp	r4, #0
 8000af6:	68b8      	ldr	r0, [r7, #8]
 8000af8:	6842      	ldr	r2, [r0, #4]
 8000afa:	bf0c      	ite	eq
 8000afc:	2101      	moveq	r1, #1
 8000afe:	6821      	ldrne	r1, [r4, #0]
 8000b00:	4640      	mov	r0, r8
 8000b02:	f002 fd9a 	bl	800363a <cmox_mathUtils_mux>
 8000b06:	68b9      	ldr	r1, [r7, #8]
 8000b08:	6048      	str	r0, [r1, #4]
 8000b0a:	68f8      	ldr	r0, [r7, #12]
 8000b0c:	b138      	cbz	r0, 8000b1e <cmox_ECC_CondImportPoint+0x7c>
 8000b0e:	6842      	ldr	r2, [r0, #4]
 8000b10:	f856 103b 	ldr.w	r1, [r6, fp, lsl #3]
 8000b14:	4640      	mov	r0, r8
 8000b16:	f002 fd90 	bl	800363a <cmox_mathUtils_mux>
 8000b1a:	68f9      	ldr	r1, [r7, #12]
 8000b1c:	6048      	str	r0, [r1, #4]
 8000b1e:	f04f 0902 	mov.w	r9, #2
 8000b22:	1f36      	subs	r6, r6, #4
 8000b24:	e015      	b.n	8000b52 <cmox_ECC_CondImportPoint+0xb0>
 8000b26:	4640      	mov	r0, r8
 8000b28:	f002 fd87 	bl	800363a <cmox_mathUtils_mux>
 8000b2c:	68b9      	ldr	r1, [r7, #8]
 8000b2e:	f841 0029 	str.w	r0, [r1, r9, lsl #2]
 8000b32:	68f8      	ldr	r0, [r7, #12]
 8000b34:	b158      	cbz	r0, 8000b4e <cmox_ECC_CondImportPoint+0xac>
 8000b36:	f850 2029 	ldr.w	r2, [r0, r9, lsl #2]
 8000b3a:	eb09 004b 	add.w	r0, r9, fp, lsl #1
 8000b3e:	f856 1020 	ldr.w	r1, [r6, r0, lsl #2]
 8000b42:	4640      	mov	r0, r8
 8000b44:	f002 fd79 	bl	800363a <cmox_mathUtils_mux>
 8000b48:	68f9      	ldr	r1, [r7, #12]
 8000b4a:	f841 0029 	str.w	r0, [r1, r9, lsl #2]
 8000b4e:	f109 0901 	add.w	r9, r9, #1
 8000b52:	45cb      	cmp	fp, r9
 8000b54:	d3b8      	bcc.n	8000ac8 <cmox_ECC_CondImportPoint+0x26>
 8000b56:	6838      	ldr	r0, [r7, #0]
 8000b58:	f850 2029 	ldr.w	r2, [r0, r9, lsl #2]
 8000b5c:	f856 1029 	ldr.w	r1, [r6, r9, lsl #2]
 8000b60:	4640      	mov	r0, r8
 8000b62:	f002 fd6a 	bl	800363a <cmox_mathUtils_mux>
 8000b66:	6839      	ldr	r1, [r7, #0]
 8000b68:	f841 0029 	str.w	r0, [r1, r9, lsl #2]
 8000b6c:	6878      	ldr	r0, [r7, #4]
 8000b6e:	b158      	cbz	r0, 8000b88 <cmox_ECC_CondImportPoint+0xe6>
 8000b70:	f850 2029 	ldr.w	r2, [r0, r9, lsl #2]
 8000b74:	eb0b 0009 	add.w	r0, fp, r9
 8000b78:	f856 1020 	ldr.w	r1, [r6, r0, lsl #2]
 8000b7c:	4640      	mov	r0, r8
 8000b7e:	f002 fd5c 	bl	800363a <cmox_mathUtils_mux>
 8000b82:	6879      	ldr	r1, [r7, #4]
 8000b84:	f841 0029 	str.w	r0, [r1, r9, lsl #2]
 8000b88:	2c00      	cmp	r4, #0
 8000b8a:	68b8      	ldr	r0, [r7, #8]
 8000b8c:	f850 2029 	ldr.w	r2, [r0, r9, lsl #2]
 8000b90:	bf0e      	itee	eq
 8000b92:	2100      	moveq	r1, #0
 8000b94:	1f20      	subne	r0, r4, #4
 8000b96:	f850 1029 	ldrne.w	r1, [r0, r9, lsl #2]
 8000b9a:	e7c4      	b.n	8000b26 <cmox_ECC_CondImportPoint+0x84>

08000b9c <cmox_ECC_PointToModularDomain>:
 8000b9c:	b570      	push	{r4, r5, r6, lr}
 8000b9e:	4604      	mov	r4, r0
 8000ba0:	460d      	mov	r5, r1
 8000ba2:	69a0      	ldr	r0, [r4, #24]
 8000ba4:	6841      	ldr	r1, [r0, #4]
 8000ba6:	69c8      	ldr	r0, [r1, #28]
 8000ba8:	2600      	movs	r6, #0
 8000baa:	2803      	cmp	r0, #3
 8000bac:	d818      	bhi.n	8000be0 <cmox_ECC_PointToModularDomain+0x44>
 8000bae:	e8df f000 	tbb	[pc, r0]
 8000bb2:	0707      	.short	0x0707
 8000bb4:	0c02      	.short	0x0c02
 8000bb6:	6a22      	ldr	r2, [r4, #32]
 8000bb8:	68e8      	ldr	r0, [r5, #12]
 8000bba:	4621      	mov	r1, r4
 8000bbc:	f002 fcb7 	bl	800352e <cmox_ModularBN_Enter>
 8000bc0:	6a22      	ldr	r2, [r4, #32]
 8000bc2:	6868      	ldr	r0, [r5, #4]
 8000bc4:	4621      	mov	r1, r4
 8000bc6:	f002 fcb2 	bl	800352e <cmox_ModularBN_Enter>
 8000bca:	6a22      	ldr	r2, [r4, #32]
 8000bcc:	6828      	ldr	r0, [r5, #0]
 8000bce:	4621      	mov	r1, r4
 8000bd0:	f002 fcad 	bl	800352e <cmox_ModularBN_Enter>
 8000bd4:	6a22      	ldr	r2, [r4, #32]
 8000bd6:	68a8      	ldr	r0, [r5, #8]
 8000bd8:	4621      	mov	r1, r4
 8000bda:	f002 fca8 	bl	800352e <cmox_ModularBN_Enter>
 8000bde:	e000      	b.n	8000be2 <cmox_ECC_PointToModularDomain+0x46>
 8000be0:	2601      	movs	r6, #1
 8000be2:	6928      	ldr	r0, [r5, #16]
 8000be4:	f040 0004 	orr.w	r0, r0, #4
 8000be8:	6128      	str	r0, [r5, #16]
 8000bea:	4630      	mov	r0, r6
 8000bec:	bd70      	pop	{r4, r5, r6, pc}
	...

08000bf0 <cmox_ECC_PointFromModularDomain>:
 8000bf0:	b538      	push	{r3, r4, r5, lr}
 8000bf2:	4604      	mov	r4, r0
 8000bf4:	460d      	mov	r5, r1
 8000bf6:	69a0      	ldr	r0, [r4, #24]
 8000bf8:	6841      	ldr	r1, [r0, #4]
 8000bfa:	69c8      	ldr	r0, [r1, #28]
 8000bfc:	2803      	cmp	r0, #3
 8000bfe:	d81f      	bhi.n	8000c40 <cmox_ECC_PointFromModularDomain+0x50>
 8000c00:	e8df f000 	tbb	[pc, r0]
 8000c04:	10020909 	.word	0x10020909
 8000c08:	6a23      	ldr	r3, [r4, #32]
 8000c0a:	69e2      	ldr	r2, [r4, #28]
 8000c0c:	68e8      	ldr	r0, [r5, #12]
 8000c0e:	4621      	mov	r1, r4
 8000c10:	f002 fc95 	bl	800353e <cmox_ModularBN_Exit>
 8000c14:	b9a8      	cbnz	r0, 8000c42 <cmox_ECC_PointFromModularDomain+0x52>
 8000c16:	6a23      	ldr	r3, [r4, #32]
 8000c18:	69e2      	ldr	r2, [r4, #28]
 8000c1a:	6868      	ldr	r0, [r5, #4]
 8000c1c:	4621      	mov	r1, r4
 8000c1e:	f002 fc8e 	bl	800353e <cmox_ModularBN_Exit>
 8000c22:	b970      	cbnz	r0, 8000c42 <cmox_ECC_PointFromModularDomain+0x52>
 8000c24:	6a23      	ldr	r3, [r4, #32]
 8000c26:	69e2      	ldr	r2, [r4, #28]
 8000c28:	6828      	ldr	r0, [r5, #0]
 8000c2a:	4621      	mov	r1, r4
 8000c2c:	f002 fc87 	bl	800353e <cmox_ModularBN_Exit>
 8000c30:	b938      	cbnz	r0, 8000c42 <cmox_ECC_PointFromModularDomain+0x52>
 8000c32:	6a23      	ldr	r3, [r4, #32]
 8000c34:	69e2      	ldr	r2, [r4, #28]
 8000c36:	68a8      	ldr	r0, [r5, #8]
 8000c38:	4621      	mov	r1, r4
 8000c3a:	f002 fc80 	bl	800353e <cmox_ModularBN_Exit>
 8000c3e:	e000      	b.n	8000c42 <cmox_ECC_PointFromModularDomain+0x52>
 8000c40:	2001      	movs	r0, #1
 8000c42:	6929      	ldr	r1, [r5, #16]
 8000c44:	f021 0104 	bic.w	r1, r1, #4
 8000c48:	6129      	str	r1, [r5, #16]
 8000c4a:	bd32      	pop	{r1, r4, r5, pc}

08000c4c <cmox_ECC_PointValidation>:
 8000c4c:	b5f8      	push	{r3, r4, r5, r6, r7, lr}
 8000c4e:	4604      	mov	r4, r0
 8000c50:	2600      	movs	r6, #0
 8000c52:	460d      	mov	r5, r1
 8000c54:	2c00      	cmp	r4, #0
 8000c56:	bf18      	it	ne
 8000c58:	2d00      	cmpne	r5, #0
 8000c5a:	d05e      	beq.n	8000d1a <cmox_ECC_PointValidation+0xce>
 8000c5c:	7c28      	ldrb	r0, [r5, #16]
 8000c5e:	2100      	movs	r1, #0
 8000c60:	f000 0001 	and.w	r0, r0, #1
 8000c64:	f002 fcf1 	bl	800364a <cmox_mathUtils_neq>
 8000c68:	2801      	cmp	r0, #1
 8000c6a:	d056      	beq.n	8000d1a <cmox_ECC_PointValidation+0xce>
 8000c6c:	68a8      	ldr	r0, [r5, #8]
 8000c6e:	2100      	movs	r1, #0
 8000c70:	f004 fb9c 	bl	80053ac <cmox_bn_cmpUint>
 8000c74:	2801      	cmp	r0, #1
 8000c76:	d050      	beq.n	8000d1a <cmox_ECC_PointValidation+0xce>
 8000c78:	69a0      	ldr	r0, [r4, #24]
 8000c7a:	6801      	ldr	r1, [r0, #0]
 8000c7c:	6828      	ldr	r0, [r5, #0]
 8000c7e:	6809      	ldr	r1, [r1, #0]
 8000c80:	f004 fb53 	bl	800532a <cmox_bn_cmp>
 8000c84:	2800      	cmp	r0, #0
 8000c86:	d548      	bpl.n	8000d1a <cmox_ECC_PointValidation+0xce>
 8000c88:	69a0      	ldr	r0, [r4, #24]
 8000c8a:	6841      	ldr	r1, [r0, #4]
 8000c8c:	69ca      	ldr	r2, [r1, #28]
 8000c8e:	2a03      	cmp	r2, #3
 8000c90:	d006      	beq.n	8000ca0 <cmox_ECC_PointValidation+0x54>
 8000c92:	6800      	ldr	r0, [r0, #0]
 8000c94:	6801      	ldr	r1, [r0, #0]
 8000c96:	6868      	ldr	r0, [r5, #4]
 8000c98:	f004 fb47 	bl	800532a <cmox_bn_cmp>
 8000c9c:	2800      	cmp	r0, #0
 8000c9e:	d53c      	bpl.n	8000d1a <cmox_ECC_PointValidation+0xce>
 8000ca0:	69a1      	ldr	r1, [r4, #24]
 8000ca2:	6809      	ldr	r1, [r1, #0]
 8000ca4:	6908      	ldr	r0, [r1, #16]
 8000ca6:	2800      	cmp	r0, #0
 8000ca8:	bf1c      	itt	ne
 8000caa:	6948      	ldrne	r0, [r1, #20]
 8000cac:	2800      	cmpne	r0, #0
 8000cae:	d035      	beq.n	8000d1c <cmox_ECC_PointValidation+0xd0>
 8000cb0:	69c8      	ldr	r0, [r1, #28]
 8000cb2:	b118      	cbz	r0, 8000cbc <cmox_ECC_PointValidation+0x70>
 8000cb4:	2802      	cmp	r0, #2
 8000cb6:	d031      	beq.n	8000d1c <cmox_ECC_PointValidation+0xd0>
 8000cb8:	d332      	bcc.n	8000d20 <cmox_ECC_PointValidation+0xd4>
 8000cba:	e02e      	b.n	8000d1a <cmox_ECC_PointValidation+0xce>
 8000cbc:	6960      	ldr	r0, [r4, #20]
 8000cbe:	6801      	ldr	r1, [r0, #0]
 8000cc0:	6a23      	ldr	r3, [r4, #32]
 8000cc2:	6828      	ldr	r0, [r5, #0]
 8000cc4:	4622      	mov	r2, r4
 8000cc6:	f002 fc7f 	bl	80035c8 <cmox_ModularBN_Sqr>
 8000cca:	69a0      	ldr	r0, [r4, #24]
 8000ccc:	6961      	ldr	r1, [r4, #20]
 8000cce:	6800      	ldr	r0, [r0, #0]
 8000cd0:	680b      	ldr	r3, [r1, #0]
 8000cd2:	6802      	ldr	r2, [r0, #0]
 8000cd4:	6901      	ldr	r1, [r0, #16]
 8000cd6:	4618      	mov	r0, r3
 8000cd8:	f002 f9ce 	bl	8003078 <cmox_ModAddBN>
 8000cdc:	6960      	ldr	r0, [r4, #20]
 8000cde:	6a21      	ldr	r1, [r4, #32]
 8000ce0:	6802      	ldr	r2, [r0, #0]
 8000ce2:	9100      	str	r1, [sp, #0]
 8000ce4:	4623      	mov	r3, r4
 8000ce6:	6829      	ldr	r1, [r5, #0]
 8000ce8:	4610      	mov	r0, r2
 8000cea:	f002 fc4a 	bl	8003582 <cmox_ModularBN_Mul>
 8000cee:	69a0      	ldr	r0, [r4, #24]
 8000cf0:	6962      	ldr	r2, [r4, #20]
 8000cf2:	6801      	ldr	r1, [r0, #0]
 8000cf4:	6810      	ldr	r0, [r2, #0]
 8000cf6:	680a      	ldr	r2, [r1, #0]
 8000cf8:	6949      	ldr	r1, [r1, #20]
 8000cfa:	4603      	mov	r3, r0
 8000cfc:	f002 f9bc 	bl	8003078 <cmox_ModAddBN>
 8000d00:	6960      	ldr	r0, [r4, #20]
 8000d02:	6841      	ldr	r1, [r0, #4]
 8000d04:	6a23      	ldr	r3, [r4, #32]
 8000d06:	6868      	ldr	r0, [r5, #4]
 8000d08:	4622      	mov	r2, r4
 8000d0a:	f002 fc5d 	bl	80035c8 <cmox_ModularBN_Sqr>
 8000d0e:	6960      	ldr	r0, [r4, #20]
 8000d10:	6841      	ldr	r1, [r0, #4]
 8000d12:	6800      	ldr	r0, [r0, #0]
 8000d14:	f004 fb09 	bl	800532a <cmox_bn_cmp>
 8000d18:	b100      	cbz	r0, 8000d1c <cmox_ECC_PointValidation+0xd0>
 8000d1a:	2604      	movs	r6, #4
 8000d1c:	4630      	mov	r0, r6
 8000d1e:	bdf2      	pop	{r1, r4, r5, r6, r7, pc}
 8000d20:	6960      	ldr	r0, [r4, #20]
 8000d22:	6801      	ldr	r1, [r0, #0]
 8000d24:	6a23      	ldr	r3, [r4, #32]
 8000d26:	6828      	ldr	r0, [r5, #0]
 8000d28:	4622      	mov	r2, r4
 8000d2a:	f002 fc4d 	bl	80035c8 <cmox_ModularBN_Sqr>
 8000d2e:	6960      	ldr	r0, [r4, #20]
 8000d30:	6841      	ldr	r1, [r0, #4]
 8000d32:	6a23      	ldr	r3, [r4, #32]
 8000d34:	6868      	ldr	r0, [r5, #4]
 8000d36:	4622      	mov	r2, r4
 8000d38:	f002 fc46 	bl	80035c8 <cmox_ModularBN_Sqr>
 8000d3c:	6960      	ldr	r0, [r4, #20]
 8000d3e:	6a22      	ldr	r2, [r4, #32]
 8000d40:	6801      	ldr	r1, [r0, #0]
 8000d42:	9200      	str	r2, [sp, #0]
 8000d44:	4623      	mov	r3, r4
 8000d46:	69a0      	ldr	r0, [r4, #24]
 8000d48:	6807      	ldr	r7, [r0, #0]
 8000d4a:	6938      	ldr	r0, [r7, #16]
 8000d4c:	460a      	mov	r2, r1
 8000d4e:	f002 fc18 	bl	8003582 <cmox_ModularBN_Mul>
 8000d52:	69a2      	ldr	r2, [r4, #24]
 8000d54:	6961      	ldr	r1, [r4, #20]
 8000d56:	6817      	ldr	r7, [r2, #0]
 8000d58:	6808      	ldr	r0, [r1, #0]
 8000d5a:	683a      	ldr	r2, [r7, #0]
 8000d5c:	6849      	ldr	r1, [r1, #4]
 8000d5e:	4603      	mov	r3, r0
 8000d60:	f002 f98a 	bl	8003078 <cmox_ModAddBN>
 8000d64:	6960      	ldr	r0, [r4, #20]
 8000d66:	6a21      	ldr	r1, [r4, #32]
 8000d68:	6840      	ldr	r0, [r0, #4]
 8000d6a:	9100      	str	r1, [sp, #0]
 8000d6c:	4623      	mov	r3, r4
 8000d6e:	6829      	ldr	r1, [r5, #0]
 8000d70:	4602      	mov	r2, r0
 8000d72:	f002 fc06 	bl	8003582 <cmox_ModularBN_Mul>
 8000d76:	6960      	ldr	r0, [r4, #20]
 8000d78:	6a21      	ldr	r1, [r4, #32]
 8000d7a:	6840      	ldr	r0, [r0, #4]
 8000d7c:	9100      	str	r1, [sp, #0]
 8000d7e:	4623      	mov	r3, r4
 8000d80:	6829      	ldr	r1, [r5, #0]
 8000d82:	4602      	mov	r2, r0
 8000d84:	f002 fbfd 	bl	8003582 <cmox_ModularBN_Mul>
 8000d88:	6960      	ldr	r0, [r4, #20]
 8000d8a:	6a21      	ldr	r1, [r4, #32]
 8000d8c:	6840      	ldr	r0, [r0, #4]
 8000d8e:	9100      	str	r1, [sp, #0]
 8000d90:	4623      	mov	r3, r4
 8000d92:	69a7      	ldr	r7, [r4, #24]
 8000d94:	683f      	ldr	r7, [r7, #0]
 8000d96:	6979      	ldr	r1, [r7, #20]
 8000d98:	4602      	mov	r2, r0
 8000d9a:	f002 fbf2 	bl	8003582 <cmox_ModularBN_Mul>
 8000d9e:	69a1      	ldr	r1, [r4, #24]
 8000da0:	6960      	ldr	r0, [r4, #20]
 8000da2:	680a      	ldr	r2, [r1, #0]
 8000da4:	6840      	ldr	r0, [r0, #4]
 8000da6:	6812      	ldr	r2, [r2, #0]
 8000da8:	68a9      	ldr	r1, [r5, #8]
 8000daa:	4603      	mov	r3, r0
 8000dac:	f002 f964 	bl	8003078 <cmox_ModAddBN>
 8000db0:	e7ad      	b.n	8000d0e <cmox_ECC_PointValidation+0xc2>
	...

08000db4 <cmox_ECC_PointToAffine>:
 8000db4:	b5f0      	push	{r4, r5, r6, r7, lr}
 8000db6:	b085      	sub	sp, #20
 8000db8:	460f      	mov	r7, r1
 8000dba:	4606      	mov	r6, r0
 8000dbc:	2100      	movs	r1, #0
 8000dbe:	9103      	str	r1, [sp, #12]
 8000dc0:	9104      	str	r1, [sp, #16]
 8000dc2:	a903      	add	r1, sp, #12
 8000dc4:	69b0      	ldr	r0, [r6, #24]
 8000dc6:	6803      	ldr	r3, [r0, #0]
 8000dc8:	681c      	ldr	r4, [r3, #0]
 8000dca:	69f0      	ldr	r0, [r6, #28]
 8000dcc:	6822      	ldr	r2, [r4, #0]
 8000dce:	f004 fa29 	bl	8005224 <cmox_bn_alloc>
 8000dd2:	2501      	movs	r5, #1
 8000dd4:	0004      	movs	r4, r0
 8000dd6:	f040 80c5 	bne.w	8000f64 <cmox_ECC_PointToAffine+0x1b0>
 8000dda:	69b0      	ldr	r0, [r6, #24]
 8000ddc:	6801      	ldr	r1, [r0, #0]
 8000dde:	680a      	ldr	r2, [r1, #0]
 8000de0:	69f0      	ldr	r0, [r6, #28]
 8000de2:	6812      	ldr	r2, [r2, #0]
 8000de4:	a904      	add	r1, sp, #16
 8000de6:	f004 fa1d 	bl	8005224 <cmox_bn_alloc>
 8000dea:	0004      	movs	r4, r0
 8000dec:	f040 80b6 	bne.w	8000f5c <cmox_ECC_PointToAffine+0x1a8>
 8000df0:	7c38      	ldrb	r0, [r7, #16]
 8000df2:	2100      	movs	r1, #0
 8000df4:	f000 0004 	and.w	r0, r0, #4
 8000df8:	f002 fc27 	bl	800364a <cmox_mathUtils_neq>
 8000dfc:	b920      	cbnz	r0, 8000e08 <cmox_ECC_PointToAffine+0x54>
 8000dfe:	4639      	mov	r1, r7
 8000e00:	4630      	mov	r0, r6
 8000e02:	f7ff fecb 	bl	8000b9c <cmox_ECC_PointToModularDomain>
 8000e06:	2500      	movs	r5, #0
 8000e08:	f8df 2178 	ldr.w	r2, [pc, #376]	; 8000f84 <.text_19>
 8000e0c:	4957      	ldr	r1, [pc, #348]	; (8000f6c <cmox_ECC_PointToAffine+0x1b8>)
 8000e0e:	e9d2 3400 	ldrd	r3, r4, [r2]
 8000e12:	e9cd 3400 	strd	r3, r4, [sp]
 8000e16:	7808      	ldrb	r0, [r1, #0]
 8000e18:	4b55      	ldr	r3, [pc, #340]	; (8000f70 <cmox_ECC_PointToAffine+0x1bc>)
 8000e1a:	2800      	cmp	r0, #0
 8000e1c:	bf0e      	itee	eq
 8000e1e:	2100      	moveq	r1, #0
 8000e20:	2004      	movne	r0, #4
 8000e22:	2104      	movne	r1, #4
 8000e24:	581a      	ldr	r2, [r3, r0]
 8000e26:	f85d 0001 	ldr.w	r0, [sp, r1]
 8000e2a:	4952      	ldr	r1, [pc, #328]	; (8000f74 <cmox_ECC_PointToAffine+0x1c0>)
 8000e2c:	1882      	adds	r2, r0, r2
 8000e2e:	6011      	str	r1, [r2, #0]
 8000e30:	2101      	movs	r1, #1
 8000e32:	6810      	ldr	r0, [r2, #0]
 8000e34:	6091      	str	r1, [r2, #8]
 8000e36:	685a      	ldr	r2, [r3, #4]
 8000e38:	9900      	ldr	r1, [sp, #0]
 8000e3a:	4050      	eors	r0, r2
 8000e3c:	4041      	eors	r1, r0
 8000e3e:	484e      	ldr	r0, [pc, #312]	; (8000f78 <cmox_ECC_PointToAffine+0x1c4>)
 8000e40:	681a      	ldr	r2, [r3, #0]
 8000e42:	ea80 0c01 	eor.w	ip, r0, r1
 8000e46:	9901      	ldr	r1, [sp, #4]
 8000e48:	484c      	ldr	r0, [pc, #304]	; (8000f7c <cmox_ECC_PointToAffine+0x1c8>)
 8000e4a:	404a      	eors	r2, r1
 8000e4c:	4042      	eors	r2, r0
 8000e4e:	69b0      	ldr	r0, [r6, #24]
 8000e50:	6803      	ldr	r3, [r0, #0]
 8000e52:	6818      	ldr	r0, [r3, #0]
 8000e54:	4494      	add	ip, r2
 8000e56:	4a4a      	ldr	r2, [pc, #296]	; (8000f80 <cmox_ECC_PointToAffine+0x1cc>)
 8000e58:	ea92 0f0c 	teq	r2, ip
 8000e5c:	9a04      	ldr	r2, [sp, #16]
 8000e5e:	bf14      	ite	ne
 8000e60:	f06f 0102 	mvnne.w	r1, #2
 8000e64:	f06f 0101 	mvneq.w	r1, #1
 8000e68:	f002 fa4a 	bl	8003300 <cmox_AddBN_Int>
 8000e6c:	69b0      	ldr	r0, [r6, #24]
 8000e6e:	69c4      	ldr	r4, [r0, #28]
 8000e70:	6a30      	ldr	r0, [r6, #32]
 8000e72:	9002      	str	r0, [sp, #8]
 8000e74:	4632      	mov	r2, r6
 8000e76:	69f1      	ldr	r1, [r6, #28]
 8000e78:	9803      	ldr	r0, [sp, #12]
 8000e7a:	9101      	str	r1, [sp, #4]
 8000e7c:	9000      	str	r0, [sp, #0]
 8000e7e:	6863      	ldr	r3, [r4, #4]
 8000e80:	9904      	ldr	r1, [sp, #16]
 8000e82:	68b8      	ldr	r0, [r7, #8]
 8000e84:	6824      	ldr	r4, [r4, #0]
 8000e86:	47a0      	blx	r4
 8000e88:	4604      	mov	r4, r0
 8000e8a:	69b0      	ldr	r0, [r6, #24]
 8000e8c:	6841      	ldr	r1, [r0, #4]
 8000e8e:	69c8      	ldr	r0, [r1, #28]
 8000e90:	2803      	cmp	r0, #3
 8000e92:	d849      	bhi.n	8000f28 <cmox_ECC_PointToAffine+0x174>
 8000e94:	e8df f000 	tbb	[pc, r0]
 8000e98:	3f281e02 	.word	0x3f281e02
 8000e9c:	6a33      	ldr	r3, [r6, #32]
 8000e9e:	9904      	ldr	r1, [sp, #16]
 8000ea0:	9803      	ldr	r0, [sp, #12]
 8000ea2:	4632      	mov	r2, r6
 8000ea4:	f002 fb90 	bl	80035c8 <cmox_ModularBN_Sqr>
 8000ea8:	683a      	ldr	r2, [r7, #0]
 8000eaa:	6a30      	ldr	r0, [r6, #32]
 8000eac:	9904      	ldr	r1, [sp, #16]
 8000eae:	9000      	str	r0, [sp, #0]
 8000eb0:	4633      	mov	r3, r6
 8000eb2:	4610      	mov	r0, r2
 8000eb4:	f002 fb65 	bl	8003582 <cmox_ModularBN_Mul>
 8000eb8:	6a30      	ldr	r0, [r6, #32]
 8000eba:	9a04      	ldr	r2, [sp, #16]
 8000ebc:	9000      	str	r0, [sp, #0]
 8000ebe:	4633      	mov	r3, r6
 8000ec0:	9803      	ldr	r0, [sp, #12]
 8000ec2:	4611      	mov	r1, r2
 8000ec4:	f002 fb5d 	bl	8003582 <cmox_ModularBN_Mul>
 8000ec8:	6878      	ldr	r0, [r7, #4]
 8000eca:	6a31      	ldr	r1, [r6, #32]
 8000ecc:	9100      	str	r1, [sp, #0]
 8000ece:	4633      	mov	r3, r6
 8000ed0:	9904      	ldr	r1, [sp, #16]
 8000ed2:	e025      	b.n	8000f20 <cmox_ECC_PointToAffine+0x16c>
 8000ed4:	6838      	ldr	r0, [r7, #0]
 8000ed6:	6a31      	ldr	r1, [r6, #32]
 8000ed8:	9100      	str	r1, [sp, #0]
 8000eda:	4633      	mov	r3, r6
 8000edc:	9903      	ldr	r1, [sp, #12]
 8000ede:	4602      	mov	r2, r0
 8000ee0:	f002 fb4f 	bl	8003582 <cmox_ModularBN_Mul>
 8000ee4:	6878      	ldr	r0, [r7, #4]
 8000ee6:	e017      	b.n	8000f18 <cmox_ECC_PointToAffine+0x164>
 8000ee8:	6838      	ldr	r0, [r7, #0]
 8000eea:	6a31      	ldr	r1, [r6, #32]
 8000eec:	9100      	str	r1, [sp, #0]
 8000eee:	4633      	mov	r3, r6
 8000ef0:	9903      	ldr	r1, [sp, #12]
 8000ef2:	4602      	mov	r2, r0
 8000ef4:	f002 fb45 	bl	8003582 <cmox_ModularBN_Mul>
 8000ef8:	6878      	ldr	r0, [r7, #4]
 8000efa:	6a31      	ldr	r1, [r6, #32]
 8000efc:	9100      	str	r1, [sp, #0]
 8000efe:	4633      	mov	r3, r6
 8000f00:	9903      	ldr	r1, [sp, #12]
 8000f02:	4602      	mov	r2, r0
 8000f04:	f002 fb3d 	bl	8003582 <cmox_ModularBN_Mul>
 8000f08:	6a30      	ldr	r0, [r6, #32]
 8000f0a:	9000      	str	r0, [sp, #0]
 8000f0c:	68fa      	ldr	r2, [r7, #12]
 8000f0e:	6879      	ldr	r1, [r7, #4]
 8000f10:	6838      	ldr	r0, [r7, #0]
 8000f12:	4633      	mov	r3, r6
 8000f14:	e005      	b.n	8000f22 <cmox_ECC_PointToAffine+0x16e>
 8000f16:	6838      	ldr	r0, [r7, #0]
 8000f18:	6a31      	ldr	r1, [r6, #32]
 8000f1a:	9100      	str	r1, [sp, #0]
 8000f1c:	4633      	mov	r3, r6
 8000f1e:	9903      	ldr	r1, [sp, #12]
 8000f20:	4602      	mov	r2, r0
 8000f22:	f002 fb2e 	bl	8003582 <cmox_ModularBN_Mul>
 8000f26:	e000      	b.n	8000f2a <cmox_ECC_PointToAffine+0x176>
 8000f28:	2401      	movs	r4, #1
 8000f2a:	68b8      	ldr	r0, [r7, #8]
 8000f2c:	6a31      	ldr	r1, [r6, #32]
 8000f2e:	9100      	str	r1, [sp, #0]
 8000f30:	4633      	mov	r3, r6
 8000f32:	9903      	ldr	r1, [sp, #12]
 8000f34:	4602      	mov	r2, r0
 8000f36:	f002 fb24 	bl	8003582 <cmox_ModularBN_Mul>
 8000f3a:	2d00      	cmp	r5, #0
 8000f3c:	bf08      	it	eq
 8000f3e:	2c00      	cmpeq	r4, #0
 8000f40:	d104      	bne.n	8000f4c <cmox_ECC_PointToAffine+0x198>
 8000f42:	4639      	mov	r1, r7
 8000f44:	4630      	mov	r0, r6
 8000f46:	f7ff fe53 	bl	8000bf0 <cmox_ECC_PointFromModularDomain>
 8000f4a:	4604      	mov	r4, r0
 8000f4c:	6938      	ldr	r0, [r7, #16]
 8000f4e:	f040 0002 	orr.w	r0, r0, #2
 8000f52:	6138      	str	r0, [r7, #16]
 8000f54:	a904      	add	r1, sp, #16
 8000f56:	69f0      	ldr	r0, [r6, #28]
 8000f58:	f004 f96f 	bl	800523a <cmox_bn_free>
 8000f5c:	69f0      	ldr	r0, [r6, #28]
 8000f5e:	a903      	add	r1, sp, #12
 8000f60:	f004 f96b 	bl	800523a <cmox_bn_free>
 8000f64:	4620      	mov	r0, r4
 8000f66:	b005      	add	sp, #20
 8000f68:	bdf0      	pop	{r4, r5, r6, r7, pc}
 8000f6a:	bf00      	nop
 8000f6c:	20000028 	.word	0x20000028
 8000f70:	08009748 	.word	0x08009748
 8000f74:	ad827e2c 	.word	0xad827e2c
 8000f78:	12008504 	.word	0x12008504
 8000f7c:	7a0168fc 	.word	0x7a0168fc
 8000f80:	8e9be2a8 	.word	0x8e9be2a8

08000f84 <.text_19>:
 8000f84:	08002548 	.word	0x08002548

08000f88 <cmox_ECC_EDW_DecPoint_ed25519>:
 8000f88:	e92d 47f0 	stmdb	sp!, {r4, r5, r6, r7, r8, r9, sl, lr}
 8000f8c:	4606      	mov	r6, r0
 8000f8e:	b088      	sub	sp, #32
 8000f90:	69b0      	ldr	r0, [r6, #24]
 8000f92:	4689      	mov	r9, r1
 8000f94:	461d      	mov	r5, r3
 8000f96:	6a01      	ldr	r1, [r0, #32]
 8000f98:	6800      	ldr	r0, [r0, #0]
 8000f9a:	f8d1 8008 	ldr.w	r8, [r1, #8]
 8000f9e:	6803      	ldr	r3, [r0, #0]
 8000fa0:	69f0      	ldr	r0, [r6, #28]
 8000fa2:	4692      	mov	sl, r2
 8000fa4:	eb09 020a 	add.w	r2, r9, sl
 8000fa8:	a906      	add	r1, sp, #24
 8000faa:	f812 7c01 	ldrb.w	r7, [r2, #-1]
 8000fae:	681a      	ldr	r2, [r3, #0]
 8000fb0:	f004 f938 	bl	8005224 <cmox_bn_alloc>
 8000fb4:	09ff      	lsrs	r7, r7, #7
 8000fb6:	0004      	movs	r4, r0
 8000fb8:	f040 8141 	bne.w	800123e <cmox_ECC_EDW_DecPoint_ed25519+0x2b6>
 8000fbc:	69b0      	ldr	r0, [r6, #24]
 8000fbe:	6801      	ldr	r1, [r0, #0]
 8000fc0:	680a      	ldr	r2, [r1, #0]
 8000fc2:	69f0      	ldr	r0, [r6, #28]
 8000fc4:	6812      	ldr	r2, [r2, #0]
 8000fc6:	a907      	add	r1, sp, #28
 8000fc8:	f004 f92c 	bl	8005224 <cmox_bn_alloc>
 8000fcc:	0004      	movs	r4, r0
 8000fce:	f040 8132 	bne.w	8001236 <cmox_ECC_EDW_DecPoint_ed25519+0x2ae>
 8000fd2:	69b0      	ldr	r0, [r6, #24]
 8000fd4:	6801      	ldr	r1, [r0, #0]
 8000fd6:	680a      	ldr	r2, [r1, #0]
 8000fd8:	69f0      	ldr	r0, [r6, #28]
 8000fda:	6812      	ldr	r2, [r2, #0]
 8000fdc:	a903      	add	r1, sp, #12
 8000fde:	f004 f921 	bl	8005224 <cmox_bn_alloc>
 8000fe2:	0004      	movs	r4, r0
 8000fe4:	f040 8123 	bne.w	800122e <cmox_ECC_EDW_DecPoint_ed25519+0x2a6>
 8000fe8:	69b0      	ldr	r0, [r6, #24]
 8000fea:	6801      	ldr	r1, [r0, #0]
 8000fec:	680a      	ldr	r2, [r1, #0]
 8000fee:	69f0      	ldr	r0, [r6, #28]
 8000ff0:	6812      	ldr	r2, [r2, #0]
 8000ff2:	a905      	add	r1, sp, #20
 8000ff4:	f004 f916 	bl	8005224 <cmox_bn_alloc>
 8000ff8:	0004      	movs	r4, r0
 8000ffa:	f040 8114 	bne.w	8001226 <cmox_ECC_EDW_DecPoint_ed25519+0x29e>
 8000ffe:	69b0      	ldr	r0, [r6, #24]
 8001000:	6801      	ldr	r1, [r0, #0]
 8001002:	680a      	ldr	r2, [r1, #0]
 8001004:	69f0      	ldr	r0, [r6, #28]
 8001006:	6812      	ldr	r2, [r2, #0]
 8001008:	a904      	add	r1, sp, #16
 800100a:	f004 f90b 	bl	8005224 <cmox_bn_alloc>
 800100e:	0004      	movs	r4, r0
 8001010:	f040 8105 	bne.w	800121e <cmox_ECC_EDW_DecPoint_ed25519+0x296>
 8001014:	9a03      	ldr	r2, [sp, #12]
 8001016:	4651      	mov	r1, sl
 8001018:	4648      	mov	r0, r9
 800101a:	f004 faa8 	bl	800556e <cmox_bn_fromU8LE>
 800101e:	9803      	ldr	r0, [sp, #12]
 8001020:	9903      	ldr	r1, [sp, #12]
 8001022:	6800      	ldr	r0, [r0, #0]
 8001024:	f851 2020 	ldr.w	r2, [r1, r0, lsl #2]
 8001028:	f022 4200 	bic.w	r2, r2, #2147483648	; 0x80000000
 800102c:	f841 2020 	str.w	r2, [r1, r0, lsl #2]
 8001030:	69b0      	ldr	r0, [r6, #24]
 8001032:	6801      	ldr	r1, [r0, #0]
 8001034:	9803      	ldr	r0, [sp, #12]
 8001036:	6809      	ldr	r1, [r1, #0]
 8001038:	f004 f977 	bl	800532a <cmox_bn_cmp>
 800103c:	2800      	cmp	r0, #0
 800103e:	d404      	bmi.n	800104a <cmox_ECC_EDW_DecPoint_ed25519+0xc2>
 8001040:	69f0      	ldr	r0, [r6, #28]
 8001042:	a904      	add	r1, sp, #16
 8001044:	f004 f8f9 	bl	800523a <cmox_bn_free>
 8001048:	e0c3      	b.n	80011d2 <cmox_ECC_EDW_DecPoint_ed25519+0x24a>
 800104a:	6868      	ldr	r0, [r5, #4]
 800104c:	2100      	movs	r1, #0
 800104e:	f004 f920 	bl	8005292 <cmox_bn_init>
 8001052:	686a      	ldr	r2, [r5, #4]
 8001054:	9903      	ldr	r1, [sp, #12]
 8001056:	2001      	movs	r0, #1
 8001058:	f004 f92a 	bl	80052b0 <cmox_bn_cCopy>
 800105c:	6a32      	ldr	r2, [r6, #32]
 800105e:	9803      	ldr	r0, [sp, #12]
 8001060:	4631      	mov	r1, r6
 8001062:	f002 fa64 	bl	800352e <cmox_ModularBN_Enter>
 8001066:	6a33      	ldr	r3, [r6, #32]
 8001068:	9905      	ldr	r1, [sp, #20]
 800106a:	9803      	ldr	r0, [sp, #12]
 800106c:	4632      	mov	r2, r6
 800106e:	f002 faab 	bl	80035c8 <cmox_ModularBN_Sqr>
 8001072:	69b0      	ldr	r0, [r6, #24]
 8001074:	6801      	ldr	r1, [r0, #0]
 8001076:	68c0      	ldr	r0, [r0, #12]
 8001078:	680a      	ldr	r2, [r1, #0]
 800107a:	6812      	ldr	r2, [r2, #0]
 800107c:	1d01      	adds	r1, r0, #4
 800107e:	9804      	ldr	r0, [sp, #16]
 8001080:	f004 f8e6 	bl	8005250 <cmox_bn_import>
 8001084:	69b0      	ldr	r0, [r6, #24]
 8001086:	6801      	ldr	r1, [r0, #0]
 8001088:	680a      	ldr	r2, [r1, #0]
 800108a:	9b07      	ldr	r3, [sp, #28]
 800108c:	9904      	ldr	r1, [sp, #16]
 800108e:	9805      	ldr	r0, [sp, #20]
 8001090:	f002 f883 	bl	800319a <cmox_ModSubBN>
 8001094:	6a30      	ldr	r0, [r6, #32]
 8001096:	9a06      	ldr	r2, [sp, #24]
 8001098:	9000      	str	r0, [sp, #0]
 800109a:	4633      	mov	r3, r6
 800109c:	69b0      	ldr	r0, [r6, #24]
 800109e:	6801      	ldr	r1, [r0, #0]
 80010a0:	9805      	ldr	r0, [sp, #20]
 80010a2:	6949      	ldr	r1, [r1, #20]
 80010a4:	f002 fa6d 	bl	8003582 <cmox_ModularBN_Mul>
 80010a8:	69b0      	ldr	r0, [r6, #24]
 80010aa:	6801      	ldr	r1, [r0, #0]
 80010ac:	680a      	ldr	r2, [r1, #0]
 80010ae:	9b06      	ldr	r3, [sp, #24]
 80010b0:	9904      	ldr	r1, [sp, #16]
 80010b2:	4618      	mov	r0, r3
 80010b4:	f001 ffe0 	bl	8003078 <cmox_ModAddBN>
 80010b8:	6a33      	ldr	r3, [r6, #32]
 80010ba:	9903      	ldr	r1, [sp, #12]
 80010bc:	9806      	ldr	r0, [sp, #24]
 80010be:	4632      	mov	r2, r6
 80010c0:	f002 fa82 	bl	80035c8 <cmox_ModularBN_Sqr>
 80010c4:	6a30      	ldr	r0, [r6, #32]
 80010c6:	9a03      	ldr	r2, [sp, #12]
 80010c8:	9906      	ldr	r1, [sp, #24]
 80010ca:	9000      	str	r0, [sp, #0]
 80010cc:	4633      	mov	r3, r6
 80010ce:	4610      	mov	r0, r2
 80010d0:	f002 fa57 	bl	8003582 <cmox_ModularBN_Mul>
 80010d4:	6a30      	ldr	r0, [r6, #32]
 80010d6:	9a05      	ldr	r2, [sp, #20]
 80010d8:	9903      	ldr	r1, [sp, #12]
 80010da:	9000      	str	r0, [sp, #0]
 80010dc:	4633      	mov	r3, r6
 80010de:	9807      	ldr	r0, [sp, #28]
 80010e0:	f002 fa4f 	bl	8003582 <cmox_ModularBN_Mul>
 80010e4:	9903      	ldr	r1, [sp, #12]
 80010e6:	6a33      	ldr	r3, [r6, #32]
 80010e8:	4632      	mov	r2, r6
 80010ea:	4608      	mov	r0, r1
 80010ec:	f002 fa6c 	bl	80035c8 <cmox_ModularBN_Sqr>
 80010f0:	6a30      	ldr	r0, [r6, #32]
 80010f2:	9a03      	ldr	r2, [sp, #12]
 80010f4:	9906      	ldr	r1, [sp, #24]
 80010f6:	9000      	str	r0, [sp, #0]
 80010f8:	4633      	mov	r3, r6
 80010fa:	4610      	mov	r0, r2
 80010fc:	f002 fa41 	bl	8003582 <cmox_ModularBN_Mul>
 8001100:	6a30      	ldr	r0, [r6, #32]
 8001102:	9a03      	ldr	r2, [sp, #12]
 8001104:	9907      	ldr	r1, [sp, #28]
 8001106:	9000      	str	r0, [sp, #0]
 8001108:	4633      	mov	r3, r6
 800110a:	4610      	mov	r0, r2
 800110c:	f002 fa39 	bl	8003582 <cmox_ModularBN_Mul>
 8001110:	69b0      	ldr	r0, [r6, #24]
 8001112:	6803      	ldr	r3, [r0, #0]
 8001114:	9a04      	ldr	r2, [sp, #16]
 8001116:	6818      	ldr	r0, [r3, #0]
 8001118:	f06f 0104 	mvn.w	r1, #4
 800111c:	f002 f8f0 	bl	8003300 <cmox_AddBN_Int>
 8001120:	9a04      	ldr	r2, [sp, #16]
 8001122:	2103      	movs	r1, #3
 8001124:	4610      	mov	r0, r2
 8001126:	f001 ff7c 	bl	8003022 <cmox_RightShiftBN>
 800112a:	69b0      	ldr	r0, [r6, #24]
 800112c:	69c4      	ldr	r4, [r0, #28]
 800112e:	6a30      	ldr	r0, [r6, #32]
 8001130:	9002      	str	r0, [sp, #8]
 8001132:	69f1      	ldr	r1, [r6, #28]
 8001134:	9803      	ldr	r0, [sp, #12]
 8001136:	9101      	str	r1, [sp, #4]
 8001138:	682a      	ldr	r2, [r5, #0]
 800113a:	9904      	ldr	r1, [sp, #16]
 800113c:	9200      	str	r2, [sp, #0]
 800113e:	4632      	mov	r2, r6
 8001140:	6863      	ldr	r3, [r4, #4]
 8001142:	6824      	ldr	r4, [r4, #0]
 8001144:	47a0      	blx	r4
 8001146:	4604      	mov	r4, r0
 8001148:	69f0      	ldr	r0, [r6, #28]
 800114a:	a904      	add	r1, sp, #16
 800114c:	f004 f875 	bl	800523a <cmox_bn_free>
 8001150:	2c00      	cmp	r4, #0
 8001152:	d164      	bne.n	800121e <cmox_ECC_EDW_DecPoint_ed25519+0x296>
 8001154:	6828      	ldr	r0, [r5, #0]
 8001156:	6a31      	ldr	r1, [r6, #32]
 8001158:	9100      	str	r1, [sp, #0]
 800115a:	4633      	mov	r3, r6
 800115c:	9905      	ldr	r1, [sp, #20]
 800115e:	4602      	mov	r2, r0
 8001160:	f002 fa0f 	bl	8003582 <cmox_ModularBN_Mul>
 8001164:	6a33      	ldr	r3, [r6, #32]
 8001166:	9903      	ldr	r1, [sp, #12]
 8001168:	6828      	ldr	r0, [r5, #0]
 800116a:	4632      	mov	r2, r6
 800116c:	f002 fa2c 	bl	80035c8 <cmox_ModularBN_Sqr>
 8001170:	6a30      	ldr	r0, [r6, #32]
 8001172:	9a03      	ldr	r2, [sp, #12]
 8001174:	9000      	str	r0, [sp, #0]
 8001176:	4633      	mov	r3, r6
 8001178:	9806      	ldr	r0, [sp, #24]
 800117a:	4611      	mov	r1, r2
 800117c:	f002 fa01 	bl	8003582 <cmox_ModularBN_Mul>
 8001180:	9907      	ldr	r1, [sp, #28]
 8001182:	9803      	ldr	r0, [sp, #12]
 8001184:	f004 f8d1 	bl	800532a <cmox_bn_cmp>
 8001188:	b198      	cbz	r0, 80011b2 <cmox_ECC_EDW_DecPoint_ed25519+0x22a>
 800118a:	69b0      	ldr	r0, [r6, #24]
 800118c:	6803      	ldr	r3, [r0, #0]
 800118e:	9a05      	ldr	r2, [sp, #20]
 8001190:	9907      	ldr	r1, [sp, #28]
 8001192:	6818      	ldr	r0, [r3, #0]
 8001194:	f002 f880 	bl	8003298 <cmox_SubBN>
 8001198:	9905      	ldr	r1, [sp, #20]
 800119a:	9803      	ldr	r0, [sp, #12]
 800119c:	f004 f8c5 	bl	800532a <cmox_bn_cmp>
 80011a0:	b9b8      	cbnz	r0, 80011d2 <cmox_ECC_EDW_DecPoint_ed25519+0x24a>
 80011a2:	6828      	ldr	r0, [r5, #0]
 80011a4:	6a31      	ldr	r1, [r6, #32]
 80011a6:	9100      	str	r1, [sp, #0]
 80011a8:	4633      	mov	r3, r6
 80011aa:	4602      	mov	r2, r0
 80011ac:	4641      	mov	r1, r8
 80011ae:	f002 f9e8 	bl	8003582 <cmox_ModularBN_Mul>
 80011b2:	6a33      	ldr	r3, [r6, #32]
 80011b4:	69f2      	ldr	r2, [r6, #28]
 80011b6:	6828      	ldr	r0, [r5, #0]
 80011b8:	4631      	mov	r1, r6
 80011ba:	f002 f9c0 	bl	800353e <cmox_ModularBN_Exit>
 80011be:	0004      	movs	r4, r0
 80011c0:	d12d      	bne.n	800121e <cmox_ECC_EDW_DecPoint_ed25519+0x296>
 80011c2:	2f01      	cmp	r7, #1
 80011c4:	d107      	bne.n	80011d6 <cmox_ECC_EDW_DecPoint_ed25519+0x24e>
 80011c6:	6828      	ldr	r0, [r5, #0]
 80011c8:	2100      	movs	r1, #0
 80011ca:	f004 f8ef 	bl	80053ac <cmox_bn_cmpUint>
 80011ce:	2801      	cmp	r0, #1
 80011d0:	d101      	bne.n	80011d6 <cmox_ECC_EDW_DecPoint_ed25519+0x24e>
 80011d2:	2404      	movs	r4, #4
 80011d4:	e023      	b.n	800121e <cmox_ECC_EDW_DecPoint_ed25519+0x296>
 80011d6:	69b0      	ldr	r0, [r6, #24]
 80011d8:	6829      	ldr	r1, [r5, #0]
 80011da:	6802      	ldr	r2, [r0, #0]
 80011dc:	7908      	ldrb	r0, [r1, #4]
 80011de:	6812      	ldr	r2, [r2, #0]
 80011e0:	f000 0001 	and.w	r0, r0, #1
 80011e4:	4078      	eors	r0, r7
 80011e6:	f002 f95b 	bl	80034a0 <cmox_FieldBN_CondNegate>
 80011ea:	6928      	ldr	r0, [r5, #16]
 80011ec:	f040 0002 	orr.w	r0, r0, #2
 80011f0:	6128      	str	r0, [r5, #16]
 80011f2:	2101      	movs	r1, #1
 80011f4:	68a8      	ldr	r0, [r5, #8]
 80011f6:	f004 f84c 	bl	8005292 <cmox_bn_init>
 80011fa:	69b0      	ldr	r0, [r6, #24]
 80011fc:	6841      	ldr	r1, [r0, #4]
 80011fe:	69c8      	ldr	r0, [r1, #28]
 8001200:	2802      	cmp	r0, #2
 8001202:	d10c      	bne.n	800121e <cmox_ECC_EDW_DecPoint_ed25519+0x296>
 8001204:	6a30      	ldr	r0, [r6, #32]
 8001206:	9000      	str	r0, [sp, #0]
 8001208:	68ea      	ldr	r2, [r5, #12]
 800120a:	6869      	ldr	r1, [r5, #4]
 800120c:	6828      	ldr	r0, [r5, #0]
 800120e:	4633      	mov	r3, r6
 8001210:	f002 f9b7 	bl	8003582 <cmox_ModularBN_Mul>
 8001214:	6a32      	ldr	r2, [r6, #32]
 8001216:	68e8      	ldr	r0, [r5, #12]
 8001218:	4631      	mov	r1, r6
 800121a:	f002 f988 	bl	800352e <cmox_ModularBN_Enter>
 800121e:	69f0      	ldr	r0, [r6, #28]
 8001220:	a905      	add	r1, sp, #20
 8001222:	f004 f80a 	bl	800523a <cmox_bn_free>
 8001226:	69f0      	ldr	r0, [r6, #28]
 8001228:	a903      	add	r1, sp, #12
 800122a:	f004 f806 	bl	800523a <cmox_bn_free>
 800122e:	69f0      	ldr	r0, [r6, #28]
 8001230:	a907      	add	r1, sp, #28
 8001232:	f004 f802 	bl	800523a <cmox_bn_free>
 8001236:	69f0      	ldr	r0, [r6, #28]
 8001238:	a906      	add	r1, sp, #24
 800123a:	f003 fffe 	bl	800523a <cmox_bn_free>
 800123e:	4620      	mov	r0, r4
 8001240:	b008      	add	sp, #32
 8001242:	e8bd 87f0 	ldmia.w	sp!, {r4, r5, r6, r7, r8, r9, sl, pc}

08001246 <cmox_ECC_EDW_DecPoint_ed448>:
 8001246:	e92d 43f0 	stmdb	sp!, {r4, r5, r6, r7, r8, r9, lr}
 800124a:	461f      	mov	r7, r3
 800124c:	4605      	mov	r5, r0
 800124e:	4688      	mov	r8, r1
 8001250:	4691      	mov	r9, r2
 8001252:	eb08 0009 	add.w	r0, r8, r9
 8001256:	b087      	sub	sp, #28
 8001258:	f810 6c01 	ldrb.w	r6, [r0, #-1]
 800125c:	69a8      	ldr	r0, [r5, #24]
 800125e:	6803      	ldr	r3, [r0, #0]
 8001260:	681c      	ldr	r4, [r3, #0]
 8001262:	69e8      	ldr	r0, [r5, #28]
 8001264:	6822      	ldr	r2, [r4, #0]
 8001266:	a905      	add	r1, sp, #20
 8001268:	f003 ffdc 	bl	8005224 <cmox_bn_alloc>
 800126c:	09f6      	lsrs	r6, r6, #7
 800126e:	0004      	movs	r4, r0
 8001270:	f040 8113 	bne.w	800149a <cmox_ECC_EDW_DecPoint_ed448+0x254>
 8001274:	69a8      	ldr	r0, [r5, #24]
 8001276:	6801      	ldr	r1, [r0, #0]
 8001278:	680a      	ldr	r2, [r1, #0]
 800127a:	69e8      	ldr	r0, [r5, #28]
 800127c:	6812      	ldr	r2, [r2, #0]
 800127e:	a906      	add	r1, sp, #24
 8001280:	f003 ffd0 	bl	8005224 <cmox_bn_alloc>
 8001284:	0004      	movs	r4, r0
 8001286:	f040 8104 	bne.w	8001492 <cmox_ECC_EDW_DecPoint_ed448+0x24c>
 800128a:	69a8      	ldr	r0, [r5, #24]
 800128c:	6801      	ldr	r1, [r0, #0]
 800128e:	680a      	ldr	r2, [r1, #0]
 8001290:	69e8      	ldr	r0, [r5, #28]
 8001292:	6812      	ldr	r2, [r2, #0]
 8001294:	a903      	add	r1, sp, #12
 8001296:	f003 ffc5 	bl	8005224 <cmox_bn_alloc>
 800129a:	0004      	movs	r4, r0
 800129c:	f040 80f5 	bne.w	800148a <cmox_ECC_EDW_DecPoint_ed448+0x244>
 80012a0:	69a8      	ldr	r0, [r5, #24]
 80012a2:	6801      	ldr	r1, [r0, #0]
 80012a4:	680a      	ldr	r2, [r1, #0]
 80012a6:	69e8      	ldr	r0, [r5, #28]
 80012a8:	6812      	ldr	r2, [r2, #0]
 80012aa:	a904      	add	r1, sp, #16
 80012ac:	f003 ffba 	bl	8005224 <cmox_bn_alloc>
 80012b0:	0004      	movs	r4, r0
 80012b2:	f040 80e6 	bne.w	8001482 <cmox_ECC_EDW_DecPoint_ed448+0x23c>
 80012b6:	687a      	ldr	r2, [r7, #4]
 80012b8:	f1a9 0101 	sub.w	r1, r9, #1
 80012bc:	4640      	mov	r0, r8
 80012be:	f004 f956 	bl	800556e <cmox_bn_fromU8LE>
 80012c2:	69a8      	ldr	r0, [r5, #24]
 80012c4:	6801      	ldr	r1, [r0, #0]
 80012c6:	6878      	ldr	r0, [r7, #4]
 80012c8:	6809      	ldr	r1, [r1, #0]
 80012ca:	f004 f82e 	bl	800532a <cmox_bn_cmp>
 80012ce:	2800      	cmp	r0, #0
 80012d0:	f140 80bf 	bpl.w	8001452 <cmox_ECC_EDW_DecPoint_ed448+0x20c>
 80012d4:	9803      	ldr	r0, [sp, #12]
 80012d6:	2100      	movs	r1, #0
 80012d8:	f003 ffdb 	bl	8005292 <cmox_bn_init>
 80012dc:	9a03      	ldr	r2, [sp, #12]
 80012de:	6879      	ldr	r1, [r7, #4]
 80012e0:	2001      	movs	r0, #1
 80012e2:	f003 ffe5 	bl	80052b0 <cmox_bn_cCopy>
 80012e6:	6a2a      	ldr	r2, [r5, #32]
 80012e8:	9803      	ldr	r0, [sp, #12]
 80012ea:	4629      	mov	r1, r5
 80012ec:	f002 f91f 	bl	800352e <cmox_ModularBN_Enter>
 80012f0:	6a2b      	ldr	r3, [r5, #32]
 80012f2:	9904      	ldr	r1, [sp, #16]
 80012f4:	9803      	ldr	r0, [sp, #12]
 80012f6:	462a      	mov	r2, r5
 80012f8:	f002 f966 	bl	80035c8 <cmox_ModularBN_Sqr>
 80012fc:	69a8      	ldr	r0, [r5, #24]
 80012fe:	6801      	ldr	r1, [r0, #0]
 8001300:	68c0      	ldr	r0, [r0, #12]
 8001302:	680a      	ldr	r2, [r1, #0]
 8001304:	6812      	ldr	r2, [r2, #0]
 8001306:	1d01      	adds	r1, r0, #4
 8001308:	6838      	ldr	r0, [r7, #0]
 800130a:	f003 ffa1 	bl	8005250 <cmox_bn_import>
 800130e:	69a8      	ldr	r0, [r5, #24]
 8001310:	6801      	ldr	r1, [r0, #0]
 8001312:	680a      	ldr	r2, [r1, #0]
 8001314:	9b06      	ldr	r3, [sp, #24]
 8001316:	6839      	ldr	r1, [r7, #0]
 8001318:	9804      	ldr	r0, [sp, #16]
 800131a:	f001 ff3e 	bl	800319a <cmox_ModSubBN>
 800131e:	6a28      	ldr	r0, [r5, #32]
 8001320:	9a05      	ldr	r2, [sp, #20]
 8001322:	9000      	str	r0, [sp, #0]
 8001324:	462b      	mov	r3, r5
 8001326:	69a8      	ldr	r0, [r5, #24]
 8001328:	6801      	ldr	r1, [r0, #0]
 800132a:	9804      	ldr	r0, [sp, #16]
 800132c:	6949      	ldr	r1, [r1, #20]
 800132e:	f002 f928 	bl	8003582 <cmox_ModularBN_Mul>
 8001332:	69a8      	ldr	r0, [r5, #24]
 8001334:	6801      	ldr	r1, [r0, #0]
 8001336:	680a      	ldr	r2, [r1, #0]
 8001338:	9b05      	ldr	r3, [sp, #20]
 800133a:	6839      	ldr	r1, [r7, #0]
 800133c:	4618      	mov	r0, r3
 800133e:	f001 ff2c 	bl	800319a <cmox_ModSubBN>
 8001342:	6a2b      	ldr	r3, [r5, #32]
 8001344:	9903      	ldr	r1, [sp, #12]
 8001346:	9806      	ldr	r0, [sp, #24]
 8001348:	462a      	mov	r2, r5
 800134a:	f002 f93d 	bl	80035c8 <cmox_ModularBN_Sqr>
 800134e:	9903      	ldr	r1, [sp, #12]
 8001350:	6a2b      	ldr	r3, [r5, #32]
 8001352:	462a      	mov	r2, r5
 8001354:	4608      	mov	r0, r1
 8001356:	f002 f937 	bl	80035c8 <cmox_ModularBN_Sqr>
 800135a:	6a28      	ldr	r0, [r5, #32]
 800135c:	9a03      	ldr	r2, [sp, #12]
 800135e:	9906      	ldr	r1, [sp, #24]
 8001360:	9000      	str	r0, [sp, #0]
 8001362:	462b      	mov	r3, r5
 8001364:	4610      	mov	r0, r2
 8001366:	f002 f90c 	bl	8003582 <cmox_ModularBN_Mul>
 800136a:	6a2b      	ldr	r3, [r5, #32]
 800136c:	9904      	ldr	r1, [sp, #16]
 800136e:	9805      	ldr	r0, [sp, #20]
 8001370:	462a      	mov	r2, r5
 8001372:	f002 f929 	bl	80035c8 <cmox_ModularBN_Sqr>
 8001376:	6a28      	ldr	r0, [r5, #32]
 8001378:	9a04      	ldr	r2, [sp, #16]
 800137a:	9000      	str	r0, [sp, #0]
 800137c:	462b      	mov	r3, r5
 800137e:	9805      	ldr	r0, [sp, #20]
 8001380:	4611      	mov	r1, r2
 8001382:	f002 f8fe 	bl	8003582 <cmox_ModularBN_Mul>
 8001386:	6a28      	ldr	r0, [r5, #32]
 8001388:	9a03      	ldr	r2, [sp, #12]
 800138a:	9904      	ldr	r1, [sp, #16]
 800138c:	9000      	str	r0, [sp, #0]
 800138e:	462b      	mov	r3, r5
 8001390:	4610      	mov	r0, r2
 8001392:	f002 f8f6 	bl	8003582 <cmox_ModularBN_Mul>
 8001396:	69a8      	ldr	r0, [r5, #24]
 8001398:	6803      	ldr	r3, [r0, #0]
 800139a:	9a04      	ldr	r2, [sp, #16]
 800139c:	6818      	ldr	r0, [r3, #0]
 800139e:	f06f 0102 	mvn.w	r1, #2
 80013a2:	f001 ffad 	bl	8003300 <cmox_AddBN_Int>
 80013a6:	9a04      	ldr	r2, [sp, #16]
 80013a8:	2102      	movs	r1, #2
 80013aa:	4610      	mov	r0, r2
 80013ac:	f001 fe39 	bl	8003022 <cmox_RightShiftBN>
 80013b0:	69a8      	ldr	r0, [r5, #24]
 80013b2:	69c4      	ldr	r4, [r0, #28]
 80013b4:	6a28      	ldr	r0, [r5, #32]
 80013b6:	9002      	str	r0, [sp, #8]
 80013b8:	69e9      	ldr	r1, [r5, #28]
 80013ba:	9803      	ldr	r0, [sp, #12]
 80013bc:	9101      	str	r1, [sp, #4]
 80013be:	683a      	ldr	r2, [r7, #0]
 80013c0:	9904      	ldr	r1, [sp, #16]
 80013c2:	9200      	str	r2, [sp, #0]
 80013c4:	462a      	mov	r2, r5
 80013c6:	6863      	ldr	r3, [r4, #4]
 80013c8:	6824      	ldr	r4, [r4, #0]
 80013ca:	47a0      	blx	r4
 80013cc:	0004      	movs	r4, r0
 80013ce:	d154      	bne.n	800147a <cmox_ECC_EDW_DecPoint_ed448+0x234>
 80013d0:	6a28      	ldr	r0, [r5, #32]
 80013d2:	9a03      	ldr	r2, [sp, #12]
 80013d4:	9905      	ldr	r1, [sp, #20]
 80013d6:	9000      	str	r0, [sp, #0]
 80013d8:	462b      	mov	r3, r5
 80013da:	9806      	ldr	r0, [sp, #24]
 80013dc:	f002 f8d1 	bl	8003582 <cmox_ModularBN_Mul>
 80013e0:	6a2b      	ldr	r3, [r5, #32]
 80013e2:	9904      	ldr	r1, [sp, #16]
 80013e4:	9806      	ldr	r0, [sp, #24]
 80013e6:	462a      	mov	r2, r5
 80013e8:	f002 f8ee 	bl	80035c8 <cmox_ModularBN_Sqr>
 80013ec:	6a28      	ldr	r0, [r5, #32]
 80013ee:	9a03      	ldr	r2, [sp, #12]
 80013f0:	9904      	ldr	r1, [sp, #16]
 80013f2:	9000      	str	r0, [sp, #0]
 80013f4:	462b      	mov	r3, r5
 80013f6:	4610      	mov	r0, r2
 80013f8:	f002 f8c3 	bl	8003582 <cmox_ModularBN_Mul>
 80013fc:	6838      	ldr	r0, [r7, #0]
 80013fe:	6a29      	ldr	r1, [r5, #32]
 8001400:	9100      	str	r1, [sp, #0]
 8001402:	462b      	mov	r3, r5
 8001404:	9903      	ldr	r1, [sp, #12]
 8001406:	4602      	mov	r2, r0
 8001408:	f002 f8bb 	bl	8003582 <cmox_ModularBN_Mul>
 800140c:	6a2b      	ldr	r3, [r5, #32]
 800140e:	9903      	ldr	r1, [sp, #12]
 8001410:	6838      	ldr	r0, [r7, #0]
 8001412:	462a      	mov	r2, r5
 8001414:	f002 f8d8 	bl	80035c8 <cmox_ModularBN_Sqr>
 8001418:	6a28      	ldr	r0, [r5, #32]
 800141a:	9a03      	ldr	r2, [sp, #12]
 800141c:	9000      	str	r0, [sp, #0]
 800141e:	462b      	mov	r3, r5
 8001420:	9805      	ldr	r0, [sp, #20]
 8001422:	4611      	mov	r1, r2
 8001424:	f002 f8ad 	bl	8003582 <cmox_ModularBN_Mul>
 8001428:	9906      	ldr	r1, [sp, #24]
 800142a:	9803      	ldr	r0, [sp, #12]
 800142c:	f003 ff7d 	bl	800532a <cmox_bn_cmp>
 8001430:	b978      	cbnz	r0, 8001452 <cmox_ECC_EDW_DecPoint_ed448+0x20c>
 8001432:	6a2b      	ldr	r3, [r5, #32]
 8001434:	69ea      	ldr	r2, [r5, #28]
 8001436:	6838      	ldr	r0, [r7, #0]
 8001438:	4629      	mov	r1, r5
 800143a:	f002 f880 	bl	800353e <cmox_ModularBN_Exit>
 800143e:	0004      	movs	r4, r0
 8001440:	d11b      	bne.n	800147a <cmox_ECC_EDW_DecPoint_ed448+0x234>
 8001442:	2e01      	cmp	r6, #1
 8001444:	d107      	bne.n	8001456 <cmox_ECC_EDW_DecPoint_ed448+0x210>
 8001446:	6838      	ldr	r0, [r7, #0]
 8001448:	2100      	movs	r1, #0
 800144a:	f003 ffaf 	bl	80053ac <cmox_bn_cmpUint>
 800144e:	2801      	cmp	r0, #1
 8001450:	d101      	bne.n	8001456 <cmox_ECC_EDW_DecPoint_ed448+0x210>
 8001452:	2404      	movs	r4, #4
 8001454:	e011      	b.n	800147a <cmox_ECC_EDW_DecPoint_ed448+0x234>
 8001456:	69a8      	ldr	r0, [r5, #24]
 8001458:	6839      	ldr	r1, [r7, #0]
 800145a:	6802      	ldr	r2, [r0, #0]
 800145c:	7908      	ldrb	r0, [r1, #4]
 800145e:	6812      	ldr	r2, [r2, #0]
 8001460:	f000 0001 	and.w	r0, r0, #1
 8001464:	4070      	eors	r0, r6
 8001466:	f002 f81b 	bl	80034a0 <cmox_FieldBN_CondNegate>
 800146a:	68b8      	ldr	r0, [r7, #8]
 800146c:	2101      	movs	r1, #1
 800146e:	f003 ff10 	bl	8005292 <cmox_bn_init>
 8001472:	6938      	ldr	r0, [r7, #16]
 8001474:	f040 0002 	orr.w	r0, r0, #2
 8001478:	6138      	str	r0, [r7, #16]
 800147a:	a904      	add	r1, sp, #16
 800147c:	69e8      	ldr	r0, [r5, #28]
 800147e:	f003 fedc 	bl	800523a <cmox_bn_free>
 8001482:	69e8      	ldr	r0, [r5, #28]
 8001484:	a903      	add	r1, sp, #12
 8001486:	f003 fed8 	bl	800523a <cmox_bn_free>
 800148a:	69e8      	ldr	r0, [r5, #28]
 800148c:	a906      	add	r1, sp, #24
 800148e:	f003 fed4 	bl	800523a <cmox_bn_free>
 8001492:	69e8      	ldr	r0, [r5, #28]
 8001494:	a905      	add	r1, sp, #20
 8001496:	f003 fed0 	bl	800523a <cmox_bn_free>
 800149a:	4620      	mov	r0, r4
 800149c:	b007      	add	sp, #28
 800149e:	e8bd 83f0 	ldmia.w	sp!, {r4, r5, r6, r7, r8, r9, pc}

080014a2 <cmox_ECC_MONTY_Clamping>:
 80014a2:	b570      	push	{r4, r5, r6, lr}
 80014a4:	4606      	mov	r6, r0
 80014a6:	460c      	mov	r4, r1
 80014a8:	69b0      	ldr	r0, [r6, #24]
 80014aa:	6801      	ldr	r1, [r0, #0]
 80014ac:	6808      	ldr	r0, [r1, #0]
 80014ae:	4615      	mov	r5, r2
 80014b0:	6802      	ldr	r2, [r0, #0]
 80014b2:	f850 0022 	ldr.w	r0, [r0, r2, lsl #2]
 80014b6:	f002 f8d4 	bl	8003662 <cmox_mathUtils_bitLength>
 80014ba:	69b1      	ldr	r1, [r6, #24]
 80014bc:	680b      	ldr	r3, [r1, #0]
 80014be:	699e      	ldr	r6, [r3, #24]
 80014c0:	6862      	ldr	r2, [r4, #4]
 80014c2:	1e76      	subs	r6, r6, #1
 80014c4:	f04f 31ff 	mov.w	r1, #4294967295
 80014c8:	404e      	eors	r6, r1
 80014ca:	4032      	ands	r2, r6
 80014cc:	6062      	str	r2, [r4, #4]
 80014ce:	2601      	movs	r6, #1
 80014d0:	f1c0 0220 	rsb	r2, r0, #32
 80014d4:	40d1      	lsrs	r1, r2
 80014d6:	6822      	ldr	r2, [r4, #0]
 80014d8:	f854 3022 	ldr.w	r3, [r4, r2, lsl #2]
 80014dc:	400b      	ands	r3, r1
 80014de:	f844 3022 	str.w	r3, [r4, r2, lsl #2]
 80014e2:	1e40      	subs	r0, r0, #1
 80014e4:	6822      	ldr	r2, [r4, #0]
 80014e6:	f854 3022 	ldr.w	r3, [r4, r2, lsl #2]
 80014ea:	4086      	lsls	r6, r0
 80014ec:	4333      	orrs	r3, r6
 80014ee:	f844 3022 	str.w	r3, [r4, r2, lsl #2]
 80014f2:	6828      	ldr	r0, [r5, #0]
 80014f4:	6802      	ldr	r2, [r0, #0]
 80014f6:	f850 3022 	ldr.w	r3, [r0, r2, lsl #2]
 80014fa:	4019      	ands	r1, r3
 80014fc:	f840 1022 	str.w	r1, [r0, r2, lsl #2]
 8001500:	bd70      	pop	{r4, r5, r6, pc}

08001502 <cmox_ECC_SW_AddPoints_JacoAff>:
 8001502:	e92d 4ff4 	stmdb	sp!, {r2, r4, r5, r6, r7, r8, r9, sl, fp, lr}
 8001506:	4605      	mov	r5, r0
 8001508:	461f      	mov	r7, r3
 800150a:	460e      	mov	r6, r1
 800150c:	b084      	sub	sp, #16
 800150e:	6968      	ldr	r0, [r5, #20]
 8001510:	f8d0 8000 	ldr.w	r8, [r0]
 8001514:	f8d0 9004 	ldr.w	r9, [r0, #4]
 8001518:	f8d0 a008 	ldr.w	sl, [r0, #8]
 800151c:	68c0      	ldr	r0, [r0, #12]
 800151e:	9c0e      	ldr	r4, [sp, #56]	; 0x38
 8001520:	9001      	str	r0, [sp, #4]
 8001522:	f8d7 b000 	ldr.w	fp, [r7]
 8001526:	6879      	ldr	r1, [r7, #4]
 8001528:	9103      	str	r1, [sp, #12]
 800152a:	462a      	mov	r2, r5
 800152c:	68b8      	ldr	r0, [r7, #8]
 800152e:	9002      	str	r0, [sp, #8]
 8001530:	4641      	mov	r1, r8
 8001532:	6a2b      	ldr	r3, [r5, #32]
 8001534:	68b0      	ldr	r0, [r6, #8]
 8001536:	f002 f847 	bl	80035c8 <cmox_ModularBN_Sqr>
 800153a:	6a28      	ldr	r0, [r5, #32]
 800153c:	9000      	str	r0, [sp, #0]
 800153e:	462b      	mov	r3, r5
 8001540:	68b0      	ldr	r0, [r6, #8]
 8001542:	464a      	mov	r2, r9
 8001544:	4641      	mov	r1, r8
 8001546:	f002 f81c 	bl	8003582 <cmox_ModularBN_Mul>
 800154a:	6a28      	ldr	r0, [r5, #32]
 800154c:	9904      	ldr	r1, [sp, #16]
 800154e:	9000      	str	r0, [sp, #0]
 8001550:	462b      	mov	r3, r5
 8001552:	6809      	ldr	r1, [r1, #0]
 8001554:	4642      	mov	r2, r8
 8001556:	4640      	mov	r0, r8
 8001558:	f002 f813 	bl	8003582 <cmox_ModularBN_Mul>
 800155c:	6a28      	ldr	r0, [r5, #32]
 800155e:	9904      	ldr	r1, [sp, #16]
 8001560:	9000      	str	r0, [sp, #0]
 8001562:	462b      	mov	r3, r5
 8001564:	6849      	ldr	r1, [r1, #4]
 8001566:	464a      	mov	r2, r9
 8001568:	4648      	mov	r0, r9
 800156a:	f002 f80a 	bl	8003582 <cmox_ModularBN_Mul>
 800156e:	69a8      	ldr	r0, [r5, #24]
 8001570:	6801      	ldr	r1, [r0, #0]
 8001572:	680a      	ldr	r2, [r1, #0]
 8001574:	6831      	ldr	r1, [r6, #0]
 8001576:	4643      	mov	r3, r8
 8001578:	4640      	mov	r0, r8
 800157a:	f001 fe0e 	bl	800319a <cmox_ModSubBN>
 800157e:	69a8      	ldr	r0, [r5, #24]
 8001580:	6801      	ldr	r1, [r0, #0]
 8001582:	680a      	ldr	r2, [r1, #0]
 8001584:	6871      	ldr	r1, [r6, #4]
 8001586:	464b      	mov	r3, r9
 8001588:	4648      	mov	r0, r9
 800158a:	f001 fe06 	bl	800319a <cmox_ModSubBN>
 800158e:	b1ec      	cbz	r4, 80015cc <cmox_ECC_SW_AddPoints_JacoAff+0xca>
 8001590:	2100      	movs	r1, #0
 8001592:	4640      	mov	r0, r8
 8001594:	f003 ff0a 	bl	80053ac <cmox_bn_cmpUint>
 8001598:	6020      	str	r0, [r4, #0]
 800159a:	4649      	mov	r1, r9
 800159c:	683a      	ldr	r2, [r7, #0]
 800159e:	f003 febf 	bl	8005320 <cmox_bn_mux>
 80015a2:	4683      	mov	fp, r0
 80015a4:	687a      	ldr	r2, [r7, #4]
 80015a6:	6820      	ldr	r0, [r4, #0]
 80015a8:	4649      	mov	r1, r9
 80015aa:	f003 feb9 	bl	8005320 <cmox_bn_mux>
 80015ae:	9003      	str	r0, [sp, #12]
 80015b0:	4649      	mov	r1, r9
 80015b2:	68ba      	ldr	r2, [r7, #8]
 80015b4:	6820      	ldr	r0, [r4, #0]
 80015b6:	f003 feb3 	bl	8005320 <cmox_bn_mux>
 80015ba:	9002      	str	r0, [sp, #8]
 80015bc:	2100      	movs	r1, #0
 80015be:	4648      	mov	r0, r9
 80015c0:	f003 fef4 	bl	80053ac <cmox_bn_cmpUint>
 80015c4:	6821      	ldr	r1, [r4, #0]
 80015c6:	ea41 0140 	orr.w	r1, r1, r0, lsl #1
 80015ca:	6021      	str	r1, [r4, #0]
 80015cc:	462b      	mov	r3, r5
 80015ce:	6a28      	ldr	r0, [r5, #32]
 80015d0:	9a02      	ldr	r2, [sp, #8]
 80015d2:	9000      	str	r0, [sp, #0]
 80015d4:	4641      	mov	r1, r8
 80015d6:	68b0      	ldr	r0, [r6, #8]
 80015d8:	f001 ffd3 	bl	8003582 <cmox_ModularBN_Mul>
 80015dc:	6a2b      	ldr	r3, [r5, #32]
 80015de:	462a      	mov	r2, r5
 80015e0:	4651      	mov	r1, sl
 80015e2:	4640      	mov	r0, r8
 80015e4:	f001 fff0 	bl	80035c8 <cmox_ModularBN_Sqr>
 80015e8:	6a28      	ldr	r0, [r5, #32]
 80015ea:	9a01      	ldr	r2, [sp, #4]
 80015ec:	9000      	str	r0, [sp, #0]
 80015ee:	462b      	mov	r3, r5
 80015f0:	4651      	mov	r1, sl
 80015f2:	4640      	mov	r0, r8
 80015f4:	f001 ffc5 	bl	8003582 <cmox_ModularBN_Mul>
 80015f8:	6a28      	ldr	r0, [r5, #32]
 80015fa:	9000      	str	r0, [sp, #0]
 80015fc:	462b      	mov	r3, r5
 80015fe:	6830      	ldr	r0, [r6, #0]
 8001600:	4652      	mov	r2, sl
 8001602:	4651      	mov	r1, sl
 8001604:	f001 ffbd 	bl	8003582 <cmox_ModularBN_Mul>
 8001608:	69a8      	ldr	r0, [r5, #24]
 800160a:	6801      	ldr	r1, [r0, #0]
 800160c:	680a      	ldr	r2, [r1, #0]
 800160e:	4643      	mov	r3, r8
 8001610:	4651      	mov	r1, sl
 8001612:	4650      	mov	r0, sl
 8001614:	f001 fd30 	bl	8003078 <cmox_ModAddBN>
 8001618:	6a2b      	ldr	r3, [r5, #32]
 800161a:	462a      	mov	r2, r5
 800161c:	4659      	mov	r1, fp
 800161e:	4648      	mov	r0, r9
 8001620:	f001 ffd2 	bl	80035c8 <cmox_ModularBN_Sqr>
 8001624:	69a8      	ldr	r0, [r5, #24]
 8001626:	6801      	ldr	r1, [r0, #0]
 8001628:	680a      	ldr	r2, [r1, #0]
 800162a:	465b      	mov	r3, fp
 800162c:	4641      	mov	r1, r8
 800162e:	4658      	mov	r0, fp
 8001630:	f001 fdb3 	bl	800319a <cmox_ModSubBN>
 8001634:	69a8      	ldr	r0, [r5, #24]
 8001636:	6801      	ldr	r1, [r0, #0]
 8001638:	680a      	ldr	r2, [r1, #0]
 800163a:	9901      	ldr	r1, [sp, #4]
 800163c:	465b      	mov	r3, fp
 800163e:	4658      	mov	r0, fp
 8001640:	f001 fdab 	bl	800319a <cmox_ModSubBN>
 8001644:	69a8      	ldr	r0, [r5, #24]
 8001646:	6801      	ldr	r1, [r0, #0]
 8001648:	680a      	ldr	r2, [r1, #0]
 800164a:	4653      	mov	r3, sl
 800164c:	4659      	mov	r1, fp
 800164e:	4650      	mov	r0, sl
 8001650:	f001 fda3 	bl	800319a <cmox_ModSubBN>
 8001654:	6a28      	ldr	r0, [r5, #32]
 8001656:	9000      	str	r0, [sp, #0]
 8001658:	462b      	mov	r3, r5
 800165a:	4652      	mov	r2, sl
 800165c:	4651      	mov	r1, sl
 800165e:	4648      	mov	r0, r9
 8001660:	f001 ff8f 	bl	8003582 <cmox_ModularBN_Mul>
 8001664:	6a28      	ldr	r0, [r5, #32]
 8001666:	9a01      	ldr	r2, [sp, #4]
 8001668:	9000      	str	r0, [sp, #0]
 800166a:	462b      	mov	r3, r5
 800166c:	6871      	ldr	r1, [r6, #4]
 800166e:	4610      	mov	r0, r2
 8001670:	f001 ff87 	bl	8003582 <cmox_ModularBN_Mul>
 8001674:	69a8      	ldr	r0, [r5, #24]
 8001676:	6801      	ldr	r1, [r0, #0]
 8001678:	680a      	ldr	r2, [r1, #0]
 800167a:	9b03      	ldr	r3, [sp, #12]
 800167c:	9901      	ldr	r1, [sp, #4]
 800167e:	4650      	mov	r0, sl
 8001680:	b005      	add	sp, #20
 8001682:	e8bd 4ff0 	ldmia.w	sp!, {r4, r5, r6, r7, r8, r9, sl, fp, lr}
 8001686:	f001 bd88 	b.w	800319a <cmox_ModSubBN>

0800168a <cmox_ECC_SW_AddPoints_Jacobian>:
 800168a:	e92d 4ff8 	stmdb	sp!, {r3, r4, r5, r6, r7, r8, r9, sl, fp, lr}
 800168e:	4604      	mov	r4, r0
 8001690:	461e      	mov	r6, r3
 8001692:	6960      	ldr	r0, [r4, #20]
 8001694:	f8d0 a004 	ldr.w	sl, [r0, #4]
 8001698:	f8d0 8008 	ldr.w	r8, [r0, #8]
 800169c:	f8d0 b00c 	ldr.w	fp, [r0, #12]
 80016a0:	f8d0 9000 	ldr.w	r9, [r0]
 80016a4:	6a23      	ldr	r3, [r4, #32]
 80016a6:	460d      	mov	r5, r1
 80016a8:	4617      	mov	r7, r2
 80016aa:	68a8      	ldr	r0, [r5, #8]
 80016ac:	4622      	mov	r2, r4
 80016ae:	4649      	mov	r1, r9
 80016b0:	f001 ff8a 	bl	80035c8 <cmox_ModularBN_Sqr>
 80016b4:	6a20      	ldr	r0, [r4, #32]
 80016b6:	9000      	str	r0, [sp, #0]
 80016b8:	4623      	mov	r3, r4
 80016ba:	6838      	ldr	r0, [r7, #0]
 80016bc:	4652      	mov	r2, sl
 80016be:	4649      	mov	r1, r9
 80016c0:	f001 ff5f 	bl	8003582 <cmox_ModularBN_Mul>
 80016c4:	6a20      	ldr	r0, [r4, #32]
 80016c6:	9000      	str	r0, [sp, #0]
 80016c8:	4623      	mov	r3, r4
 80016ca:	68a8      	ldr	r0, [r5, #8]
 80016cc:	464a      	mov	r2, r9
 80016ce:	4649      	mov	r1, r9
 80016d0:	f001 ff57 	bl	8003582 <cmox_ModularBN_Mul>
 80016d4:	6a20      	ldr	r0, [r4, #32]
 80016d6:	9000      	str	r0, [sp, #0]
 80016d8:	4623      	mov	r3, r4
 80016da:	6878      	ldr	r0, [r7, #4]
 80016dc:	464a      	mov	r2, r9
 80016de:	4649      	mov	r1, r9
 80016e0:	f001 ff4f 	bl	8003582 <cmox_ModularBN_Mul>
 80016e4:	6a23      	ldr	r3, [r4, #32]
 80016e6:	68b8      	ldr	r0, [r7, #8]
 80016e8:	4622      	mov	r2, r4
 80016ea:	4641      	mov	r1, r8
 80016ec:	f001 ff6c 	bl	80035c8 <cmox_ModularBN_Sqr>
 80016f0:	6a20      	ldr	r0, [r4, #32]
 80016f2:	9000      	str	r0, [sp, #0]
 80016f4:	4623      	mov	r3, r4
 80016f6:	6828      	ldr	r0, [r5, #0]
 80016f8:	465a      	mov	r2, fp
 80016fa:	4641      	mov	r1, r8
 80016fc:	f001 ff41 	bl	8003582 <cmox_ModularBN_Mul>
 8001700:	6a20      	ldr	r0, [r4, #32]
 8001702:	9000      	str	r0, [sp, #0]
 8001704:	4623      	mov	r3, r4
 8001706:	68b8      	ldr	r0, [r7, #8]
 8001708:	4642      	mov	r2, r8
 800170a:	4641      	mov	r1, r8
 800170c:	f001 ff39 	bl	8003582 <cmox_ModularBN_Mul>
 8001710:	6a20      	ldr	r0, [r4, #32]
 8001712:	9000      	str	r0, [sp, #0]
 8001714:	4623      	mov	r3, r4
 8001716:	6868      	ldr	r0, [r5, #4]
 8001718:	4642      	mov	r2, r8
 800171a:	4641      	mov	r1, r8
 800171c:	f001 ff31 	bl	8003582 <cmox_ModularBN_Mul>
 8001720:	69a0      	ldr	r0, [r4, #24]
 8001722:	6801      	ldr	r1, [r0, #0]
 8001724:	680a      	ldr	r2, [r1, #0]
 8001726:	4653      	mov	r3, sl
 8001728:	4659      	mov	r1, fp
 800172a:	4650      	mov	r0, sl
 800172c:	f001 fd35 	bl	800319a <cmox_ModSubBN>
 8001730:	69a0      	ldr	r0, [r4, #24]
 8001732:	6801      	ldr	r1, [r0, #0]
 8001734:	680a      	ldr	r2, [r1, #0]
 8001736:	464b      	mov	r3, r9
 8001738:	4641      	mov	r1, r8
 800173a:	4648      	mov	r0, r9
 800173c:	f001 fd2d 	bl	800319a <cmox_ModSubBN>
 8001740:	6a20      	ldr	r0, [r4, #32]
 8001742:	9000      	str	r0, [sp, #0]
 8001744:	4623      	mov	r3, r4
 8001746:	6832      	ldr	r2, [r6, #0]
 8001748:	68b8      	ldr	r0, [r7, #8]
 800174a:	4651      	mov	r1, sl
 800174c:	f001 ff19 	bl	8003582 <cmox_ModularBN_Mul>
 8001750:	6a20      	ldr	r0, [r4, #32]
 8001752:	9000      	str	r0, [sp, #0]
 8001754:	68b2      	ldr	r2, [r6, #8]
 8001756:	6831      	ldr	r1, [r6, #0]
 8001758:	68a8      	ldr	r0, [r5, #8]
 800175a:	4623      	mov	r3, r4
 800175c:	f001 ff11 	bl	8003582 <cmox_ModularBN_Mul>
 8001760:	6a23      	ldr	r3, [r4, #32]
 8001762:	6831      	ldr	r1, [r6, #0]
 8001764:	4622      	mov	r2, r4
 8001766:	4650      	mov	r0, sl
 8001768:	f001 ff2e 	bl	80035c8 <cmox_ModularBN_Sqr>
 800176c:	6a20      	ldr	r0, [r4, #32]
 800176e:	9000      	str	r0, [sp, #0]
 8001770:	6872      	ldr	r2, [r6, #4]
 8001772:	6831      	ldr	r1, [r6, #0]
 8001774:	4623      	mov	r3, r4
 8001776:	4650      	mov	r0, sl
 8001778:	f001 ff03 	bl	8003582 <cmox_ModularBN_Mul>
 800177c:	6a20      	ldr	r0, [r4, #32]
 800177e:	9000      	str	r0, [sp, #0]
 8001780:	4623      	mov	r3, r4
 8001782:	6831      	ldr	r1, [r6, #0]
 8001784:	4652      	mov	r2, sl
 8001786:	4658      	mov	r0, fp
 8001788:	f001 fefb 	bl	8003582 <cmox_ModularBN_Mul>
 800178c:	6a23      	ldr	r3, [r4, #32]
 800178e:	6831      	ldr	r1, [r6, #0]
 8001790:	4622      	mov	r2, r4
 8001792:	4648      	mov	r0, r9
 8001794:	f001 ff18 	bl	80035c8 <cmox_ModularBN_Sqr>
 8001798:	69a1      	ldr	r1, [r4, #24]
 800179a:	680a      	ldr	r2, [r1, #0]
 800179c:	6830      	ldr	r0, [r6, #0]
 800179e:	6812      	ldr	r2, [r2, #0]
 80017a0:	6871      	ldr	r1, [r6, #4]
 80017a2:	4603      	mov	r3, r0
 80017a4:	f001 fcf9 	bl	800319a <cmox_ModSubBN>
 80017a8:	6871      	ldr	r1, [r6, #4]
 80017aa:	6a20      	ldr	r0, [r4, #32]
 80017ac:	9000      	str	r0, [sp, #0]
 80017ae:	4623      	mov	r3, r4
 80017b0:	460a      	mov	r2, r1
 80017b2:	4640      	mov	r0, r8
 80017b4:	f001 fee5 	bl	8003582 <cmox_ModularBN_Mul>
 80017b8:	69a0      	ldr	r0, [r4, #24]
 80017ba:	6801      	ldr	r1, [r0, #0]
 80017bc:	6809      	ldr	r1, [r1, #0]
 80017be:	4642      	mov	r2, r8
 80017c0:	4650      	mov	r0, sl
 80017c2:	f001 fe0e 	bl	80033e2 <cmox_FieldBN_Mul2>
 80017c6:	69a1      	ldr	r1, [r4, #24]
 80017c8:	680a      	ldr	r2, [r1, #0]
 80017ca:	6830      	ldr	r0, [r6, #0]
 80017cc:	6812      	ldr	r2, [r2, #0]
 80017ce:	4603      	mov	r3, r0
 80017d0:	4641      	mov	r1, r8
 80017d2:	f001 fce2 	bl	800319a <cmox_ModSubBN>
 80017d6:	69a0      	ldr	r0, [r4, #24]
 80017d8:	6801      	ldr	r1, [r0, #0]
 80017da:	680a      	ldr	r2, [r1, #0]
 80017dc:	6831      	ldr	r1, [r6, #0]
 80017de:	4653      	mov	r3, sl
 80017e0:	4650      	mov	r0, sl
 80017e2:	f001 fcda 	bl	800319a <cmox_ModSubBN>
 80017e6:	6a20      	ldr	r0, [r4, #32]
 80017e8:	9000      	str	r0, [sp, #0]
 80017ea:	4623      	mov	r3, r4
 80017ec:	464a      	mov	r2, r9
 80017ee:	4651      	mov	r1, sl
 80017f0:	4648      	mov	r0, r9
 80017f2:	f001 fec6 	bl	8003582 <cmox_ModularBN_Mul>
 80017f6:	69a0      	ldr	r0, [r4, #24]
 80017f8:	6802      	ldr	r2, [r0, #0]
 80017fa:	6812      	ldr	r2, [r2, #0]
 80017fc:	6871      	ldr	r1, [r6, #4]
 80017fe:	4648      	mov	r0, r9
 8001800:	b001      	add	sp, #4
 8001802:	e8bd 4ff0 	ldmia.w	sp!, {r4, r5, r6, r7, r8, r9, sl, fp, lr}
 8001806:	460b      	mov	r3, r1
 8001808:	f001 bcc7 	b.w	800319a <cmox_ModSubBN>

0800180c <cmox_ECC_SW_DblPoint_Jac_a3>:
 800180c:	e92d 4ffe 	stmdb	sp!, {r1, r2, r3, r4, r5, r6, r7, r8, r9, sl, fp, lr}
 8001810:	4604      	mov	r4, r0
 8001812:	460d      	mov	r5, r1
 8001814:	6960      	ldr	r0, [r4, #20]
 8001816:	6807      	ldr	r7, [r0, #0]
 8001818:	f8d0 9004 	ldr.w	r9, [r0, #4]
 800181c:	6881      	ldr	r1, [r0, #8]
 800181e:	9101      	str	r1, [sp, #4]
 8001820:	4616      	mov	r6, r2
 8001822:	f8d0 a00c 	ldr.w	sl, [r0, #12]
 8001826:	6831      	ldr	r1, [r6, #0]
 8001828:	4698      	mov	r8, r3
 800182a:	463a      	mov	r2, r7
 800182c:	4640      	mov	r0, r8
 800182e:	f003 fd77 	bl	8005320 <cmox_bn_mux>
 8001832:	4683      	mov	fp, r0
 8001834:	6871      	ldr	r1, [r6, #4]
 8001836:	463a      	mov	r2, r7
 8001838:	4640      	mov	r0, r8
 800183a:	f003 fd71 	bl	8005320 <cmox_bn_mux>
 800183e:	9002      	str	r0, [sp, #8]
 8001840:	463a      	mov	r2, r7
 8001842:	68b1      	ldr	r1, [r6, #8]
 8001844:	4640      	mov	r0, r8
 8001846:	f003 fd6b 	bl	8005320 <cmox_bn_mux>
 800184a:	4606      	mov	r6, r0
 800184c:	6a23      	ldr	r3, [r4, #32]
 800184e:	68a8      	ldr	r0, [r5, #8]
 8001850:	4622      	mov	r2, r4
 8001852:	4639      	mov	r1, r7
 8001854:	f001 feb8 	bl	80035c8 <cmox_ModularBN_Sqr>
 8001858:	69a0      	ldr	r0, [r4, #24]
 800185a:	6801      	ldr	r1, [r0, #0]
 800185c:	680a      	ldr	r2, [r1, #0]
 800185e:	6828      	ldr	r0, [r5, #0]
 8001860:	464b      	mov	r3, r9
 8001862:	4639      	mov	r1, r7
 8001864:	f001 fc08 	bl	8003078 <cmox_ModAddBN>
 8001868:	69a0      	ldr	r0, [r4, #24]
 800186a:	6801      	ldr	r1, [r0, #0]
 800186c:	680a      	ldr	r2, [r1, #0]
 800186e:	6828      	ldr	r0, [r5, #0]
 8001870:	463b      	mov	r3, r7
 8001872:	4639      	mov	r1, r7
 8001874:	f001 fc91 	bl	800319a <cmox_ModSubBN>
 8001878:	6a20      	ldr	r0, [r4, #32]
 800187a:	9000      	str	r0, [sp, #0]
 800187c:	4623      	mov	r3, r4
 800187e:	463a      	mov	r2, r7
 8001880:	4649      	mov	r1, r9
 8001882:	4638      	mov	r0, r7
 8001884:	f001 fe7d 	bl	8003582 <cmox_ModularBN_Mul>
 8001888:	69a0      	ldr	r0, [r4, #24]
 800188a:	6801      	ldr	r1, [r0, #0]
 800188c:	6809      	ldr	r1, [r1, #0]
 800188e:	464a      	mov	r2, r9
 8001890:	4638      	mov	r0, r7
 8001892:	f001 fd54 	bl	800333e <cmox_FieldBN_Div2>
 8001896:	69a0      	ldr	r0, [r4, #24]
 8001898:	6801      	ldr	r1, [r0, #0]
 800189a:	680a      	ldr	r2, [r1, #0]
 800189c:	463b      	mov	r3, r7
 800189e:	4649      	mov	r1, r9
 80018a0:	4638      	mov	r0, r7
 80018a2:	f001 fbe9 	bl	8003078 <cmox_ModAddBN>
 80018a6:	6a23      	ldr	r3, [r4, #32]
 80018a8:	6868      	ldr	r0, [r5, #4]
 80018aa:	4622      	mov	r2, r4
 80018ac:	4649      	mov	r1, r9
 80018ae:	f001 fe8b 	bl	80035c8 <cmox_ModularBN_Sqr>
 80018b2:	6a20      	ldr	r0, [r4, #32]
 80018b4:	9a01      	ldr	r2, [sp, #4]
 80018b6:	9000      	str	r0, [sp, #0]
 80018b8:	4623      	mov	r3, r4
 80018ba:	6828      	ldr	r0, [r5, #0]
 80018bc:	4649      	mov	r1, r9
 80018be:	f001 fe60 	bl	8003582 <cmox_ModularBN_Mul>
 80018c2:	6a23      	ldr	r3, [r4, #32]
 80018c4:	4622      	mov	r2, r4
 80018c6:	4651      	mov	r1, sl
 80018c8:	4638      	mov	r0, r7
 80018ca:	f001 fe7d 	bl	80035c8 <cmox_ModularBN_Sqr>
 80018ce:	69a0      	ldr	r0, [r4, #24]
 80018d0:	6801      	ldr	r1, [r0, #0]
 80018d2:	680a      	ldr	r2, [r1, #0]
 80018d4:	9901      	ldr	r1, [sp, #4]
 80018d6:	4653      	mov	r3, sl
 80018d8:	4650      	mov	r0, sl
 80018da:	f001 fc5e 	bl	800319a <cmox_ModSubBN>
 80018de:	69a0      	ldr	r0, [r4, #24]
 80018e0:	6801      	ldr	r1, [r0, #0]
 80018e2:	680a      	ldr	r2, [r1, #0]
 80018e4:	9901      	ldr	r1, [sp, #4]
 80018e6:	465b      	mov	r3, fp
 80018e8:	4650      	mov	r0, sl
 80018ea:	f001 fc56 	bl	800319a <cmox_ModSubBN>
 80018ee:	6a20      	ldr	r0, [r4, #32]
 80018f0:	9000      	str	r0, [sp, #0]
 80018f2:	4623      	mov	r3, r4
 80018f4:	68a9      	ldr	r1, [r5, #8]
 80018f6:	6868      	ldr	r0, [r5, #4]
 80018f8:	4632      	mov	r2, r6
 80018fa:	f001 fe42 	bl	8003582 <cmox_ModularBN_Mul>
 80018fe:	6a23      	ldr	r3, [r4, #32]
 8001900:	4622      	mov	r2, r4
 8001902:	4649      	mov	r1, r9
 8001904:	4648      	mov	r0, r9
 8001906:	f001 fe5f 	bl	80035c8 <cmox_ModularBN_Sqr>
 800190a:	69a0      	ldr	r0, [r4, #24]
 800190c:	6801      	ldr	r1, [r0, #0]
 800190e:	680a      	ldr	r2, [r1, #0]
 8001910:	9801      	ldr	r0, [sp, #4]
 8001912:	4653      	mov	r3, sl
 8001914:	4659      	mov	r1, fp
 8001916:	f001 fc40 	bl	800319a <cmox_ModSubBN>
 800191a:	6a20      	ldr	r0, [r4, #32]
 800191c:	9000      	str	r0, [sp, #0]
 800191e:	4623      	mov	r3, r4
 8001920:	463a      	mov	r2, r7
 8001922:	4651      	mov	r1, sl
 8001924:	4638      	mov	r0, r7
 8001926:	f001 fe2c 	bl	8003582 <cmox_ModularBN_Mul>
 800192a:	69a0      	ldr	r0, [r4, #24]
 800192c:	6801      	ldr	r1, [r0, #0]
 800192e:	9b02      	ldr	r3, [sp, #8]
 8001930:	680a      	ldr	r2, [r1, #0]
 8001932:	4649      	mov	r1, r9
 8001934:	4638      	mov	r0, r7
 8001936:	b003      	add	sp, #12
 8001938:	e8bd 4ff0 	ldmia.w	sp!, {r4, r5, r6, r7, r8, r9, sl, fp, lr}
 800193c:	f001 bc2d 	b.w	800319a <cmox_ModSubBN>

08001940 <cmox_ECC_SW_DblPoint_Jacobian>:
 8001940:	e92d 4ffe 	stmdb	sp!, {r1, r2, r3, r4, r5, r6, r7, r8, r9, sl, fp, lr}
 8001944:	4604      	mov	r4, r0
 8001946:	460d      	mov	r5, r1
 8001948:	6960      	ldr	r0, [r4, #20]
 800194a:	6807      	ldr	r7, [r0, #0]
 800194c:	f8d0 8004 	ldr.w	r8, [r0, #4]
 8001950:	f8d0 9008 	ldr.w	r9, [r0, #8]
 8001954:	68c0      	ldr	r0, [r0, #12]
 8001956:	9001      	str	r0, [sp, #4]
 8001958:	4616      	mov	r6, r2
 800195a:	9802      	ldr	r0, [sp, #8]
 800195c:	6831      	ldr	r1, [r6, #0]
 800195e:	463a      	mov	r2, r7
 8001960:	f003 fcde 	bl	8005320 <cmox_bn_mux>
 8001964:	4682      	mov	sl, r0
 8001966:	6871      	ldr	r1, [r6, #4]
 8001968:	9802      	ldr	r0, [sp, #8]
 800196a:	463a      	mov	r2, r7
 800196c:	f003 fcd8 	bl	8005320 <cmox_bn_mux>
 8001970:	4683      	mov	fp, r0
 8001972:	68b1      	ldr	r1, [r6, #8]
 8001974:	9802      	ldr	r0, [sp, #8]
 8001976:	463a      	mov	r2, r7
 8001978:	f003 fcd2 	bl	8005320 <cmox_bn_mux>
 800197c:	4606      	mov	r6, r0
 800197e:	69a0      	ldr	r0, [r4, #24]
 8001980:	6801      	ldr	r1, [r0, #0]
 8001982:	680a      	ldr	r2, [r1, #0]
 8001984:	68a9      	ldr	r1, [r5, #8]
 8001986:	6868      	ldr	r0, [r5, #4]
 8001988:	463b      	mov	r3, r7
 800198a:	f001 fb75 	bl	8003078 <cmox_ModAddBN>
 800198e:	6a23      	ldr	r3, [r4, #32]
 8001990:	6828      	ldr	r0, [r5, #0]
 8001992:	4622      	mov	r2, r4
 8001994:	4641      	mov	r1, r8
 8001996:	f001 fe17 	bl	80035c8 <cmox_ModularBN_Sqr>
 800199a:	6a23      	ldr	r3, [r4, #32]
 800199c:	6868      	ldr	r0, [r5, #4]
 800199e:	4622      	mov	r2, r4
 80019a0:	4649      	mov	r1, r9
 80019a2:	f001 fe11 	bl	80035c8 <cmox_ModularBN_Sqr>
 80019a6:	69a0      	ldr	r0, [r4, #24]
 80019a8:	6801      	ldr	r1, [r0, #0]
 80019aa:	680a      	ldr	r2, [r1, #0]
 80019ac:	6828      	ldr	r0, [r5, #0]
 80019ae:	4653      	mov	r3, sl
 80019b0:	4649      	mov	r1, r9
 80019b2:	f001 fb61 	bl	8003078 <cmox_ModAddBN>
 80019b6:	6a23      	ldr	r3, [r4, #32]
 80019b8:	9901      	ldr	r1, [sp, #4]
 80019ba:	68a8      	ldr	r0, [r5, #8]
 80019bc:	4622      	mov	r2, r4
 80019be:	f001 fe03 	bl	80035c8 <cmox_ModularBN_Sqr>
 80019c2:	6a23      	ldr	r3, [r4, #32]
 80019c4:	4622      	mov	r2, r4
 80019c6:	4651      	mov	r1, sl
 80019c8:	4650      	mov	r0, sl
 80019ca:	f001 fdfd 	bl	80035c8 <cmox_ModularBN_Sqr>
 80019ce:	69a0      	ldr	r0, [r4, #24]
 80019d0:	6801      	ldr	r1, [r0, #0]
 80019d2:	680a      	ldr	r2, [r1, #0]
 80019d4:	4653      	mov	r3, sl
 80019d6:	4641      	mov	r1, r8
 80019d8:	4650      	mov	r0, sl
 80019da:	f001 fbde 	bl	800319a <cmox_ModSubBN>
 80019de:	69a0      	ldr	r0, [r4, #24]
 80019e0:	6801      	ldr	r1, [r0, #0]
 80019e2:	6809      	ldr	r1, [r1, #0]
 80019e4:	465a      	mov	r2, fp
 80019e6:	4640      	mov	r0, r8
 80019e8:	f001 fcfb 	bl	80033e2 <cmox_FieldBN_Mul2>
 80019ec:	69a0      	ldr	r0, [r4, #24]
 80019ee:	6801      	ldr	r1, [r0, #0]
 80019f0:	680a      	ldr	r2, [r1, #0]
 80019f2:	4643      	mov	r3, r8
 80019f4:	4659      	mov	r1, fp
 80019f6:	4640      	mov	r0, r8
 80019f8:	f001 fb3e 	bl	8003078 <cmox_ModAddBN>
 80019fc:	6a23      	ldr	r3, [r4, #32]
 80019fe:	4622      	mov	r2, r4
 8001a00:	4659      	mov	r1, fp
 8001a02:	4648      	mov	r0, r9
 8001a04:	f001 fde0 	bl	80035c8 <cmox_ModularBN_Sqr>
 8001a08:	6a23      	ldr	r3, [r4, #32]
 8001a0a:	4622      	mov	r2, r4
 8001a0c:	4639      	mov	r1, r7
 8001a0e:	4638      	mov	r0, r7
 8001a10:	f001 fdda 	bl	80035c8 <cmox_ModularBN_Sqr>
 8001a14:	69a0      	ldr	r0, [r4, #24]
 8001a16:	6801      	ldr	r1, [r0, #0]
 8001a18:	680a      	ldr	r2, [r1, #0]
 8001a1a:	463b      	mov	r3, r7
 8001a1c:	4649      	mov	r1, r9
 8001a1e:	4638      	mov	r0, r7
 8001a20:	f001 fbbb 	bl	800319a <cmox_ModSubBN>
 8001a24:	69a0      	ldr	r0, [r4, #24]
 8001a26:	6801      	ldr	r1, [r0, #0]
 8001a28:	680a      	ldr	r2, [r1, #0]
 8001a2a:	9901      	ldr	r1, [sp, #4]
 8001a2c:	4633      	mov	r3, r6
 8001a2e:	4638      	mov	r0, r7
 8001a30:	f001 fbb3 	bl	800319a <cmox_ModSubBN>
 8001a34:	9901      	ldr	r1, [sp, #4]
 8001a36:	6a23      	ldr	r3, [r4, #32]
 8001a38:	4622      	mov	r2, r4
 8001a3a:	4608      	mov	r0, r1
 8001a3c:	f001 fdc4 	bl	80035c8 <cmox_ModularBN_Sqr>
 8001a40:	6a20      	ldr	r0, [r4, #32]
 8001a42:	9a01      	ldr	r2, [sp, #4]
 8001a44:	9000      	str	r0, [sp, #0]
 8001a46:	4623      	mov	r3, r4
 8001a48:	69a0      	ldr	r0, [r4, #24]
 8001a4a:	6805      	ldr	r5, [r0, #0]
 8001a4c:	6928      	ldr	r0, [r5, #16]
 8001a4e:	4611      	mov	r1, r2
 8001a50:	f001 fd97 	bl	8003582 <cmox_ModularBN_Mul>
 8001a54:	69a0      	ldr	r0, [r4, #24]
 8001a56:	6801      	ldr	r1, [r0, #0]
 8001a58:	680a      	ldr	r2, [r1, #0]
 8001a5a:	9901      	ldr	r1, [sp, #4]
 8001a5c:	463b      	mov	r3, r7
 8001a5e:	4640      	mov	r0, r8
 8001a60:	f001 fb0a 	bl	8003078 <cmox_ModAddBN>
 8001a64:	69a0      	ldr	r0, [r4, #24]
 8001a66:	6801      	ldr	r1, [r0, #0]
 8001a68:	680a      	ldr	r2, [r1, #0]
 8001a6a:	4643      	mov	r3, r8
 8001a6c:	4659      	mov	r1, fp
 8001a6e:	4650      	mov	r0, sl
 8001a70:	f001 fb93 	bl	800319a <cmox_ModSubBN>
 8001a74:	69a0      	ldr	r0, [r4, #24]
 8001a76:	6801      	ldr	r1, [r0, #0]
 8001a78:	6809      	ldr	r1, [r1, #0]
 8001a7a:	4642      	mov	r2, r8
 8001a7c:	4640      	mov	r0, r8
 8001a7e:	f001 fcb0 	bl	80033e2 <cmox_FieldBN_Mul2>
 8001a82:	6a23      	ldr	r3, [r4, #32]
 8001a84:	4622      	mov	r2, r4
 8001a86:	4649      	mov	r1, r9
 8001a88:	4638      	mov	r0, r7
 8001a8a:	f001 fd9d 	bl	80035c8 <cmox_ModularBN_Sqr>
 8001a8e:	69a0      	ldr	r0, [r4, #24]
 8001a90:	6801      	ldr	r1, [r0, #0]
 8001a92:	9a01      	ldr	r2, [sp, #4]
 8001a94:	6809      	ldr	r1, [r1, #0]
 8001a96:	4640      	mov	r0, r8
 8001a98:	f001 fca3 	bl	80033e2 <cmox_FieldBN_Mul2>
 8001a9c:	69a0      	ldr	r0, [r4, #24]
 8001a9e:	6801      	ldr	r1, [r0, #0]
 8001aa0:	680a      	ldr	r2, [r1, #0]
 8001aa2:	9901      	ldr	r1, [sp, #4]
 8001aa4:	4653      	mov	r3, sl
 8001aa6:	4648      	mov	r0, r9
 8001aa8:	f001 fb77 	bl	800319a <cmox_ModSubBN>
 8001aac:	69a0      	ldr	r0, [r4, #24]
 8001aae:	6801      	ldr	r1, [r0, #0]
 8001ab0:	680a      	ldr	r2, [r1, #0]
 8001ab2:	4643      	mov	r3, r8
 8001ab4:	4651      	mov	r1, sl
 8001ab6:	4640      	mov	r0, r8
 8001ab8:	f001 fb6f 	bl	800319a <cmox_ModSubBN>
 8001abc:	69a0      	ldr	r0, [r4, #24]
 8001abe:	6801      	ldr	r1, [r0, #0]
 8001ac0:	6809      	ldr	r1, [r1, #0]
 8001ac2:	464a      	mov	r2, r9
 8001ac4:	4658      	mov	r0, fp
 8001ac6:	f001 fc8c 	bl	80033e2 <cmox_FieldBN_Mul2>
 8001aca:	69a0      	ldr	r0, [r4, #24]
 8001acc:	6801      	ldr	r1, [r0, #0]
 8001ace:	6809      	ldr	r1, [r1, #0]
 8001ad0:	464a      	mov	r2, r9
 8001ad2:	4648      	mov	r0, r9
 8001ad4:	f001 fc85 	bl	80033e2 <cmox_FieldBN_Mul2>
 8001ad8:	69a0      	ldr	r0, [r4, #24]
 8001ada:	6801      	ldr	r1, [r0, #0]
 8001adc:	6809      	ldr	r1, [r1, #0]
 8001ade:	464a      	mov	r2, r9
 8001ae0:	4648      	mov	r0, r9
 8001ae2:	f001 fc7e 	bl	80033e2 <cmox_FieldBN_Mul2>
 8001ae6:	6a20      	ldr	r0, [r4, #32]
 8001ae8:	9000      	str	r0, [sp, #0]
 8001aea:	4623      	mov	r3, r4
 8001aec:	463a      	mov	r2, r7
 8001aee:	4641      	mov	r1, r8
 8001af0:	4638      	mov	r0, r7
 8001af2:	f001 fd46 	bl	8003582 <cmox_ModularBN_Mul>
 8001af6:	69a0      	ldr	r0, [r4, #24]
 8001af8:	6801      	ldr	r1, [r0, #0]
 8001afa:	680a      	ldr	r2, [r1, #0]
 8001afc:	465b      	mov	r3, fp
 8001afe:	4649      	mov	r1, r9
 8001b00:	4638      	mov	r0, r7
 8001b02:	b003      	add	sp, #12
 8001b04:	e8bd 4ff0 	ldmia.w	sp!, {r4, r5, r6, r7, r8, r9, sl, fp, lr}
 8001b08:	f001 bb47 	b.w	800319a <cmox_ModSubBN>

08001b0c <cmox_ECC_EDW_AddPoints_ProjAff>:
 8001b0c:	e92d 47fc 	stmdb	sp!, {r2, r3, r4, r5, r6, r7, r8, r9, sl, lr}
 8001b10:	4604      	mov	r4, r0
 8001b12:	6965      	ldr	r5, [r4, #20]
 8001b14:	980a      	ldr	r0, [sp, #40]	; 0x28
 8001b16:	f8d5 8000 	ldr.w	r8, [r5]
 8001b1a:	f8d5 9004 	ldr.w	r9, [r5, #4]
 8001b1e:	f8d5 a008 	ldr.w	sl, [r5, #8]
 8001b22:	b108      	cbz	r0, 8001b28 <cmox_ECC_EDW_AddPoints_ProjAff+0x1c>
 8001b24:	2500      	movs	r5, #0
 8001b26:	6005      	str	r5, [r0, #0]
 8001b28:	4616      	mov	r6, r2
 8001b2a:	6a22      	ldr	r2, [r4, #32]
 8001b2c:	9200      	str	r2, [sp, #0]
 8001b2e:	460f      	mov	r7, r1
 8001b30:	461d      	mov	r5, r3
 8001b32:	6831      	ldr	r1, [r6, #0]
 8001b34:	6838      	ldr	r0, [r7, #0]
 8001b36:	4623      	mov	r3, r4
 8001b38:	4642      	mov	r2, r8
 8001b3a:	f001 fd22 	bl	8003582 <cmox_ModularBN_Mul>
 8001b3e:	69a0      	ldr	r0, [r4, #24]
 8001b40:	6801      	ldr	r1, [r0, #0]
 8001b42:	680a      	ldr	r2, [r1, #0]
 8001b44:	6879      	ldr	r1, [r7, #4]
 8001b46:	6838      	ldr	r0, [r7, #0]
 8001b48:	464b      	mov	r3, r9
 8001b4a:	f001 fa95 	bl	8003078 <cmox_ModAddBN>
 8001b4e:	69a0      	ldr	r0, [r4, #24]
 8001b50:	6801      	ldr	r1, [r0, #0]
 8001b52:	680a      	ldr	r2, [r1, #0]
 8001b54:	682b      	ldr	r3, [r5, #0]
 8001b56:	6871      	ldr	r1, [r6, #4]
 8001b58:	6830      	ldr	r0, [r6, #0]
 8001b5a:	f001 fa8d 	bl	8003078 <cmox_ModAddBN>
 8001b5e:	6a20      	ldr	r0, [r4, #32]
 8001b60:	9000      	str	r0, [sp, #0]
 8001b62:	686a      	ldr	r2, [r5, #4]
 8001b64:	6871      	ldr	r1, [r6, #4]
 8001b66:	6878      	ldr	r0, [r7, #4]
 8001b68:	4623      	mov	r3, r4
 8001b6a:	f001 fd0a 	bl	8003582 <cmox_ModularBN_Mul>
 8001b6e:	6a20      	ldr	r0, [r4, #32]
 8001b70:	9000      	str	r0, [sp, #0]
 8001b72:	4623      	mov	r3, r4
 8001b74:	6869      	ldr	r1, [r5, #4]
 8001b76:	4652      	mov	r2, sl
 8001b78:	4640      	mov	r0, r8
 8001b7a:	f001 fd02 	bl	8003582 <cmox_ModularBN_Mul>
 8001b7e:	6a20      	ldr	r0, [r4, #32]
 8001b80:	9000      	str	r0, [sp, #0]
 8001b82:	4623      	mov	r3, r4
 8001b84:	69a0      	ldr	r0, [r4, #24]
 8001b86:	6806      	ldr	r6, [r0, #0]
 8001b88:	6970      	ldr	r0, [r6, #20]
 8001b8a:	4652      	mov	r2, sl
 8001b8c:	4651      	mov	r1, sl
 8001b8e:	f001 fcf8 	bl	8003582 <cmox_ModularBN_Mul>
 8001b92:	6a20      	ldr	r0, [r4, #32]
 8001b94:	9000      	str	r0, [sp, #0]
 8001b96:	4623      	mov	r3, r4
 8001b98:	6829      	ldr	r1, [r5, #0]
 8001b9a:	464a      	mov	r2, r9
 8001b9c:	4648      	mov	r0, r9
 8001b9e:	f001 fcf0 	bl	8003582 <cmox_ModularBN_Mul>
 8001ba2:	69a0      	ldr	r0, [r4, #24]
 8001ba4:	6801      	ldr	r1, [r0, #0]
 8001ba6:	680a      	ldr	r2, [r1, #0]
 8001ba8:	464b      	mov	r3, r9
 8001baa:	4641      	mov	r1, r8
 8001bac:	4648      	mov	r0, r9
 8001bae:	f001 faf4 	bl	800319a <cmox_ModSubBN>
 8001bb2:	69a0      	ldr	r0, [r4, #24]
 8001bb4:	6801      	ldr	r1, [r0, #0]
 8001bb6:	680a      	ldr	r2, [r1, #0]
 8001bb8:	6869      	ldr	r1, [r5, #4]
 8001bba:	464b      	mov	r3, r9
 8001bbc:	4648      	mov	r0, r9
 8001bbe:	f001 faec 	bl	800319a <cmox_ModSubBN>
 8001bc2:	6a20      	ldr	r0, [r4, #32]
 8001bc4:	9000      	str	r0, [sp, #0]
 8001bc6:	4623      	mov	r3, r4
 8001bc8:	69a0      	ldr	r0, [r4, #24]
 8001bca:	6806      	ldr	r6, [r0, #0]
 8001bcc:	6930      	ldr	r0, [r6, #16]
 8001bce:	4642      	mov	r2, r8
 8001bd0:	4641      	mov	r1, r8
 8001bd2:	f001 fcd6 	bl	8003582 <cmox_ModularBN_Mul>
 8001bd6:	69a1      	ldr	r1, [r4, #24]
 8001bd8:	680a      	ldr	r2, [r1, #0]
 8001bda:	6868      	ldr	r0, [r5, #4]
 8001bdc:	6812      	ldr	r2, [r2, #0]
 8001bde:	4603      	mov	r3, r0
 8001be0:	4641      	mov	r1, r8
 8001be2:	f001 fada 	bl	800319a <cmox_ModSubBN>
 8001be6:	6a23      	ldr	r3, [r4, #32]
 8001be8:	6829      	ldr	r1, [r5, #0]
 8001bea:	68b8      	ldr	r0, [r7, #8]
 8001bec:	4622      	mov	r2, r4
 8001bee:	f001 fceb 	bl	80035c8 <cmox_ModularBN_Sqr>
 8001bf2:	69a0      	ldr	r0, [r4, #24]
 8001bf4:	6801      	ldr	r1, [r0, #0]
 8001bf6:	680a      	ldr	r2, [r1, #0]
 8001bf8:	6828      	ldr	r0, [r5, #0]
 8001bfa:	4643      	mov	r3, r8
 8001bfc:	4651      	mov	r1, sl
 8001bfe:	f001 facc 	bl	800319a <cmox_ModSubBN>
 8001c02:	69a0      	ldr	r0, [r4, #24]
 8001c04:	6801      	ldr	r1, [r0, #0]
 8001c06:	680a      	ldr	r2, [r1, #0]
 8001c08:	6828      	ldr	r0, [r5, #0]
 8001c0a:	4653      	mov	r3, sl
 8001c0c:	4651      	mov	r1, sl
 8001c0e:	f001 fa33 	bl	8003078 <cmox_ModAddBN>
 8001c12:	6a20      	ldr	r0, [r4, #32]
 8001c14:	9000      	str	r0, [sp, #0]
 8001c16:	4623      	mov	r3, r4
 8001c18:	464a      	mov	r2, r9
 8001c1a:	4649      	mov	r1, r9
 8001c1c:	4640      	mov	r0, r8
 8001c1e:	f001 fcb0 	bl	8003582 <cmox_ModularBN_Mul>
 8001c22:	6a20      	ldr	r0, [r4, #32]
 8001c24:	9000      	str	r0, [sp, #0]
 8001c26:	4623      	mov	r3, r4
 8001c28:	682a      	ldr	r2, [r5, #0]
 8001c2a:	68b8      	ldr	r0, [r7, #8]
 8001c2c:	4649      	mov	r1, r9
 8001c2e:	f001 fca8 	bl	8003582 <cmox_ModularBN_Mul>
 8001c32:	6a20      	ldr	r0, [r4, #32]
 8001c34:	9000      	str	r0, [sp, #0]
 8001c36:	4623      	mov	r3, r4
 8001c38:	6869      	ldr	r1, [r5, #4]
 8001c3a:	464a      	mov	r2, r9
 8001c3c:	4650      	mov	r0, sl
 8001c3e:	f001 fca0 	bl	8003582 <cmox_ModularBN_Mul>
 8001c42:	6a20      	ldr	r0, [r4, #32]
 8001c44:	9000      	str	r0, [sp, #0]
 8001c46:	4623      	mov	r3, r4
 8001c48:	686a      	ldr	r2, [r5, #4]
 8001c4a:	68b8      	ldr	r0, [r7, #8]
 8001c4c:	4649      	mov	r1, r9
 8001c4e:	f001 fc98 	bl	8003582 <cmox_ModularBN_Mul>
 8001c52:	6a20      	ldr	r0, [r4, #32]
 8001c54:	9000      	str	r0, [sp, #0]
 8001c56:	4623      	mov	r3, r4
 8001c58:	68aa      	ldr	r2, [r5, #8]
 8001c5a:	4651      	mov	r1, sl
 8001c5c:	4640      	mov	r0, r8
 8001c5e:	f001 fc90 	bl	8003582 <cmox_ModularBN_Mul>
 8001c62:	e8bd 87f3 	ldmia.w	sp!, {r0, r1, r4, r5, r6, r7, r8, r9, sl, pc}

08001c66 <cmox_ECC_EDW_AddPoints_Proj>:
 8001c66:	e92d 47fc 	stmdb	sp!, {r2, r3, r4, r5, r6, r7, r8, r9, sl, lr}
 8001c6a:	4604      	mov	r4, r0
 8001c6c:	460d      	mov	r5, r1
 8001c6e:	6960      	ldr	r0, [r4, #20]
 8001c70:	f8d0 a000 	ldr.w	sl, [r0]
 8001c74:	f8d0 8004 	ldr.w	r8, [r0, #4]
 8001c78:	f8d0 9008 	ldr.w	r9, [r0, #8]
 8001c7c:	6a20      	ldr	r0, [r4, #32]
 8001c7e:	9000      	str	r0, [sp, #0]
 8001c80:	4617      	mov	r7, r2
 8001c82:	461e      	mov	r6, r3
 8001c84:	68b9      	ldr	r1, [r7, #8]
 8001c86:	68a8      	ldr	r0, [r5, #8]
 8001c88:	4623      	mov	r3, r4
 8001c8a:	4652      	mov	r2, sl
 8001c8c:	f001 fc79 	bl	8003582 <cmox_ModularBN_Mul>
 8001c90:	6a20      	ldr	r0, [r4, #32]
 8001c92:	9000      	str	r0, [sp, #0]
 8001c94:	68b2      	ldr	r2, [r6, #8]
 8001c96:	6839      	ldr	r1, [r7, #0]
 8001c98:	6828      	ldr	r0, [r5, #0]
 8001c9a:	4623      	mov	r3, r4
 8001c9c:	f001 fc71 	bl	8003582 <cmox_ModularBN_Mul>
 8001ca0:	69a0      	ldr	r0, [r4, #24]
 8001ca2:	6801      	ldr	r1, [r0, #0]
 8001ca4:	680a      	ldr	r2, [r1, #0]
 8001ca6:	6869      	ldr	r1, [r5, #4]
 8001ca8:	6828      	ldr	r0, [r5, #0]
 8001caa:	4643      	mov	r3, r8
 8001cac:	f001 f9e4 	bl	8003078 <cmox_ModAddBN>
 8001cb0:	69a0      	ldr	r0, [r4, #24]
 8001cb2:	6801      	ldr	r1, [r0, #0]
 8001cb4:	680a      	ldr	r2, [r1, #0]
 8001cb6:	6833      	ldr	r3, [r6, #0]
 8001cb8:	6879      	ldr	r1, [r7, #4]
 8001cba:	6838      	ldr	r0, [r7, #0]
 8001cbc:	f001 f9dc 	bl	8003078 <cmox_ModAddBN>
 8001cc0:	6a20      	ldr	r0, [r4, #32]
 8001cc2:	9000      	str	r0, [sp, #0]
 8001cc4:	6872      	ldr	r2, [r6, #4]
 8001cc6:	6879      	ldr	r1, [r7, #4]
 8001cc8:	6868      	ldr	r0, [r5, #4]
 8001cca:	4623      	mov	r3, r4
 8001ccc:	f001 fc59 	bl	8003582 <cmox_ModularBN_Mul>
 8001cd0:	6a20      	ldr	r0, [r4, #32]
 8001cd2:	9000      	str	r0, [sp, #0]
 8001cd4:	4623      	mov	r3, r4
 8001cd6:	6871      	ldr	r1, [r6, #4]
 8001cd8:	68b0      	ldr	r0, [r6, #8]
 8001cda:	464a      	mov	r2, r9
 8001cdc:	f001 fc51 	bl	8003582 <cmox_ModularBN_Mul>
 8001ce0:	6a20      	ldr	r0, [r4, #32]
 8001ce2:	9000      	str	r0, [sp, #0]
 8001ce4:	4623      	mov	r3, r4
 8001ce6:	69a0      	ldr	r0, [r4, #24]
 8001ce8:	6805      	ldr	r5, [r0, #0]
 8001cea:	6968      	ldr	r0, [r5, #20]
 8001cec:	464a      	mov	r2, r9
 8001cee:	4649      	mov	r1, r9
 8001cf0:	f001 fc47 	bl	8003582 <cmox_ModularBN_Mul>
 8001cf4:	6a20      	ldr	r0, [r4, #32]
 8001cf6:	9000      	str	r0, [sp, #0]
 8001cf8:	4623      	mov	r3, r4
 8001cfa:	6831      	ldr	r1, [r6, #0]
 8001cfc:	4642      	mov	r2, r8
 8001cfe:	4640      	mov	r0, r8
 8001d00:	f001 fc3f 	bl	8003582 <cmox_ModularBN_Mul>
 8001d04:	69a0      	ldr	r0, [r4, #24]
 8001d06:	6801      	ldr	r1, [r0, #0]
 8001d08:	680a      	ldr	r2, [r1, #0]
 8001d0a:	68b1      	ldr	r1, [r6, #8]
 8001d0c:	4643      	mov	r3, r8
 8001d0e:	4640      	mov	r0, r8
 8001d10:	f001 fa43 	bl	800319a <cmox_ModSubBN>
 8001d14:	69a0      	ldr	r0, [r4, #24]
 8001d16:	6801      	ldr	r1, [r0, #0]
 8001d18:	680a      	ldr	r2, [r1, #0]
 8001d1a:	6871      	ldr	r1, [r6, #4]
 8001d1c:	4643      	mov	r3, r8
 8001d1e:	4640      	mov	r0, r8
 8001d20:	f001 fa3b 	bl	800319a <cmox_ModSubBN>
 8001d24:	68b1      	ldr	r1, [r6, #8]
 8001d26:	6a20      	ldr	r0, [r4, #32]
 8001d28:	9000      	str	r0, [sp, #0]
 8001d2a:	4623      	mov	r3, r4
 8001d2c:	69a0      	ldr	r0, [r4, #24]
 8001d2e:	6805      	ldr	r5, [r0, #0]
 8001d30:	6928      	ldr	r0, [r5, #16]
 8001d32:	460a      	mov	r2, r1
 8001d34:	f001 fc25 	bl	8003582 <cmox_ModularBN_Mul>
 8001d38:	69a1      	ldr	r1, [r4, #24]
 8001d3a:	680a      	ldr	r2, [r1, #0]
 8001d3c:	6870      	ldr	r0, [r6, #4]
 8001d3e:	6812      	ldr	r2, [r2, #0]
 8001d40:	68b1      	ldr	r1, [r6, #8]
 8001d42:	4603      	mov	r3, r0
 8001d44:	f001 fa29 	bl	800319a <cmox_ModSubBN>
 8001d48:	6a23      	ldr	r3, [r4, #32]
 8001d4a:	6831      	ldr	r1, [r6, #0]
 8001d4c:	4622      	mov	r2, r4
 8001d4e:	4650      	mov	r0, sl
 8001d50:	f001 fc3a 	bl	80035c8 <cmox_ModularBN_Sqr>
 8001d54:	69a0      	ldr	r0, [r4, #24]
 8001d56:	6801      	ldr	r1, [r0, #0]
 8001d58:	680a      	ldr	r2, [r1, #0]
 8001d5a:	68b3      	ldr	r3, [r6, #8]
 8001d5c:	6830      	ldr	r0, [r6, #0]
 8001d5e:	4649      	mov	r1, r9
 8001d60:	f001 fa1b 	bl	800319a <cmox_ModSubBN>
 8001d64:	69a0      	ldr	r0, [r4, #24]
 8001d66:	6801      	ldr	r1, [r0, #0]
 8001d68:	680a      	ldr	r2, [r1, #0]
 8001d6a:	6830      	ldr	r0, [r6, #0]
 8001d6c:	464b      	mov	r3, r9
 8001d6e:	4649      	mov	r1, r9
 8001d70:	f001 f982 	bl	8003078 <cmox_ModAddBN>
 8001d74:	6a20      	ldr	r0, [r4, #32]
 8001d76:	9000      	str	r0, [sp, #0]
 8001d78:	4623      	mov	r3, r4
 8001d7a:	68b0      	ldr	r0, [r6, #8]
 8001d7c:	4642      	mov	r2, r8
 8001d7e:	4641      	mov	r1, r8
 8001d80:	f001 fbff 	bl	8003582 <cmox_ModularBN_Mul>
 8001d84:	6a20      	ldr	r0, [r4, #32]
 8001d86:	9000      	str	r0, [sp, #0]
 8001d88:	4623      	mov	r3, r4
 8001d8a:	6832      	ldr	r2, [r6, #0]
 8001d8c:	4641      	mov	r1, r8
 8001d8e:	4650      	mov	r0, sl
 8001d90:	f001 fbf7 	bl	8003582 <cmox_ModularBN_Mul>
 8001d94:	6a20      	ldr	r0, [r4, #32]
 8001d96:	9000      	str	r0, [sp, #0]
 8001d98:	4623      	mov	r3, r4
 8001d9a:	6871      	ldr	r1, [r6, #4]
 8001d9c:	4642      	mov	r2, r8
 8001d9e:	4648      	mov	r0, r9
 8001da0:	f001 fbef 	bl	8003582 <cmox_ModularBN_Mul>
 8001da4:	6a20      	ldr	r0, [r4, #32]
 8001da6:	9000      	str	r0, [sp, #0]
 8001da8:	4623      	mov	r3, r4
 8001daa:	6872      	ldr	r2, [r6, #4]
 8001dac:	4641      	mov	r1, r8
 8001dae:	4650      	mov	r0, sl
 8001db0:	f001 fbe7 	bl	8003582 <cmox_ModularBN_Mul>
 8001db4:	68b0      	ldr	r0, [r6, #8]
 8001db6:	6a21      	ldr	r1, [r4, #32]
 8001db8:	9100      	str	r1, [sp, #0]
 8001dba:	4623      	mov	r3, r4
 8001dbc:	4602      	mov	r2, r0
 8001dbe:	4649      	mov	r1, r9
 8001dc0:	f001 fbdf 	bl	8003582 <cmox_ModularBN_Mul>
 8001dc4:	e8bd 87f3 	ldmia.w	sp!, {r0, r1, r4, r5, r6, r7, r8, r9, sl, pc}

08001dc8 <cmox_ECC_EDW_DblPoint_Proj>:
 8001dc8:	e92d 4ff8 	stmdb	sp!, {r3, r4, r5, r6, r7, r8, r9, sl, fp, lr}
 8001dcc:	4604      	mov	r4, r0
 8001dce:	460d      	mov	r5, r1
 8001dd0:	6960      	ldr	r0, [r4, #20]
 8001dd2:	6806      	ldr	r6, [r0, #0]
 8001dd4:	f8d0 a004 	ldr.w	sl, [r0, #4]
 8001dd8:	4617      	mov	r7, r2
 8001dda:	469b      	mov	fp, r3
 8001ddc:	6839      	ldr	r1, [r7, #0]
 8001dde:	4632      	mov	r2, r6
 8001de0:	4658      	mov	r0, fp
 8001de2:	f003 fa9d 	bl	8005320 <cmox_bn_mux>
 8001de6:	4680      	mov	r8, r0
 8001de8:	6879      	ldr	r1, [r7, #4]
 8001dea:	4632      	mov	r2, r6
 8001dec:	4658      	mov	r0, fp
 8001dee:	f003 fa97 	bl	8005320 <cmox_bn_mux>
 8001df2:	4681      	mov	r9, r0
 8001df4:	68b9      	ldr	r1, [r7, #8]
 8001df6:	4632      	mov	r2, r6
 8001df8:	4658      	mov	r0, fp
 8001dfa:	f003 fa91 	bl	8005320 <cmox_bn_mux>
 8001dfe:	4607      	mov	r7, r0
 8001e00:	69a0      	ldr	r0, [r4, #24]
 8001e02:	6801      	ldr	r1, [r0, #0]
 8001e04:	680a      	ldr	r2, [r1, #0]
 8001e06:	6869      	ldr	r1, [r5, #4]
 8001e08:	6828      	ldr	r0, [r5, #0]
 8001e0a:	4633      	mov	r3, r6
 8001e0c:	f001 f934 	bl	8003078 <cmox_ModAddBN>
 8001e10:	6a23      	ldr	r3, [r4, #32]
 8001e12:	6828      	ldr	r0, [r5, #0]
 8001e14:	4622      	mov	r2, r4
 8001e16:	4651      	mov	r1, sl
 8001e18:	f001 fbd6 	bl	80035c8 <cmox_ModularBN_Sqr>
 8001e1c:	6a20      	ldr	r0, [r4, #32]
 8001e1e:	9000      	str	r0, [sp, #0]
 8001e20:	4623      	mov	r3, r4
 8001e22:	69a0      	ldr	r0, [r4, #24]
 8001e24:	f8d0 e000 	ldr.w	lr, [r0]
 8001e28:	f8de 0010 	ldr.w	r0, [lr, #16]
 8001e2c:	4642      	mov	r2, r8
 8001e2e:	4651      	mov	r1, sl
 8001e30:	f001 fba7 	bl	8003582 <cmox_ModularBN_Mul>
 8001e34:	6a23      	ldr	r3, [r4, #32]
 8001e36:	4622      	mov	r2, r4
 8001e38:	4631      	mov	r1, r6
 8001e3a:	4630      	mov	r0, r6
 8001e3c:	f001 fbc4 	bl	80035c8 <cmox_ModularBN_Sqr>
 8001e40:	69a0      	ldr	r0, [r4, #24]
 8001e42:	6801      	ldr	r1, [r0, #0]
 8001e44:	680a      	ldr	r2, [r1, #0]
 8001e46:	4633      	mov	r3, r6
 8001e48:	4651      	mov	r1, sl
 8001e4a:	4630      	mov	r0, r6
 8001e4c:	f001 f9a5 	bl	800319a <cmox_ModSubBN>
 8001e50:	6a23      	ldr	r3, [r4, #32]
 8001e52:	6868      	ldr	r0, [r5, #4]
 8001e54:	4622      	mov	r2, r4
 8001e56:	4649      	mov	r1, r9
 8001e58:	f001 fbb6 	bl	80035c8 <cmox_ModularBN_Sqr>
 8001e5c:	69a0      	ldr	r0, [r4, #24]
 8001e5e:	6801      	ldr	r1, [r0, #0]
 8001e60:	680a      	ldr	r2, [r1, #0]
 8001e62:	4653      	mov	r3, sl
 8001e64:	4649      	mov	r1, r9
 8001e66:	4640      	mov	r0, r8
 8001e68:	f001 f906 	bl	8003078 <cmox_ModAddBN>
 8001e6c:	69a0      	ldr	r0, [r4, #24]
 8001e6e:	6801      	ldr	r1, [r0, #0]
 8001e70:	680a      	ldr	r2, [r1, #0]
 8001e72:	4643      	mov	r3, r8
 8001e74:	4649      	mov	r1, r9
 8001e76:	4640      	mov	r0, r8
 8001e78:	f001 f98f 	bl	800319a <cmox_ModSubBN>
 8001e7c:	69a0      	ldr	r0, [r4, #24]
 8001e7e:	6801      	ldr	r1, [r0, #0]
 8001e80:	680a      	ldr	r2, [r1, #0]
 8001e82:	4633      	mov	r3, r6
 8001e84:	4649      	mov	r1, r9
 8001e86:	4630      	mov	r0, r6
 8001e88:	f001 f987 	bl	800319a <cmox_ModSubBN>
 8001e8c:	6a23      	ldr	r3, [r4, #32]
 8001e8e:	68a8      	ldr	r0, [r5, #8]
 8001e90:	4622      	mov	r2, r4
 8001e92:	4639      	mov	r1, r7
 8001e94:	f001 fb98 	bl	80035c8 <cmox_ModularBN_Sqr>
 8001e98:	69a0      	ldr	r0, [r4, #24]
 8001e9a:	6801      	ldr	r1, [r0, #0]
 8001e9c:	6809      	ldr	r1, [r1, #0]
 8001e9e:	463a      	mov	r2, r7
 8001ea0:	4638      	mov	r0, r7
 8001ea2:	f001 fa9e 	bl	80033e2 <cmox_FieldBN_Mul2>
 8001ea6:	6a20      	ldr	r0, [r4, #32]
 8001ea8:	9000      	str	r0, [sp, #0]
 8001eaa:	4623      	mov	r3, r4
 8001eac:	464a      	mov	r2, r9
 8001eae:	4641      	mov	r1, r8
 8001eb0:	4650      	mov	r0, sl
 8001eb2:	f001 fb66 	bl	8003582 <cmox_ModularBN_Mul>
 8001eb6:	69a0      	ldr	r0, [r4, #24]
 8001eb8:	6801      	ldr	r1, [r0, #0]
 8001eba:	680a      	ldr	r2, [r1, #0]
 8001ebc:	463b      	mov	r3, r7
 8001ebe:	4639      	mov	r1, r7
 8001ec0:	4650      	mov	r0, sl
 8001ec2:	f001 f96a 	bl	800319a <cmox_ModSubBN>
 8001ec6:	6a20      	ldr	r0, [r4, #32]
 8001ec8:	9000      	str	r0, [sp, #0]
 8001eca:	4623      	mov	r3, r4
 8001ecc:	4642      	mov	r2, r8
 8001ece:	4639      	mov	r1, r7
 8001ed0:	4630      	mov	r0, r6
 8001ed2:	f001 fb56 	bl	8003582 <cmox_ModularBN_Mul>
 8001ed6:	6a20      	ldr	r0, [r4, #32]
 8001ed8:	9000      	str	r0, [sp, #0]
 8001eda:	4623      	mov	r3, r4
 8001edc:	463a      	mov	r2, r7
 8001ede:	4639      	mov	r1, r7
 8001ee0:	4650      	mov	r0, sl
 8001ee2:	f001 fb4e 	bl	8003582 <cmox_ModularBN_Mul>
 8001ee6:	e8bd 8ff1 	ldmia.w	sp!, {r0, r4, r5, r6, r7, r8, r9, sl, fp, pc}

08001eea <cmox_ECC_EDW_AddPnts_ExtAff_a_1>:
 8001eea:	e92d 43f8 	stmdb	sp!, {r3, r4, r5, r6, r7, r8, r9, lr}
 8001eee:	460d      	mov	r5, r1
 8001ef0:	4604      	mov	r4, r0
 8001ef2:	6961      	ldr	r1, [r4, #20]
 8001ef4:	9808      	ldr	r0, [sp, #32]
 8001ef6:	f8d1 8000 	ldr.w	r8, [r1]
 8001efa:	f8d1 9004 	ldr.w	r9, [r1, #4]
 8001efe:	4617      	mov	r7, r2
 8001f00:	461e      	mov	r6, r3
 8001f02:	b108      	cbz	r0, 8001f08 <cmox_ECC_EDW_AddPnts_ExtAff_a_1+0x1e>
 8001f04:	2100      	movs	r1, #0
 8001f06:	6001      	str	r1, [r0, #0]
 8001f08:	4643      	mov	r3, r8
 8001f0a:	69a0      	ldr	r0, [r4, #24]
 8001f0c:	6800      	ldr	r0, [r0, #0]
 8001f0e:	6802      	ldr	r2, [r0, #0]
 8001f10:	6829      	ldr	r1, [r5, #0]
 8001f12:	6868      	ldr	r0, [r5, #4]
 8001f14:	f001 f941 	bl	800319a <cmox_ModSubBN>
 8001f18:	69a0      	ldr	r0, [r4, #24]
 8001f1a:	6801      	ldr	r1, [r0, #0]
 8001f1c:	680a      	ldr	r2, [r1, #0]
 8001f1e:	6839      	ldr	r1, [r7, #0]
 8001f20:	6878      	ldr	r0, [r7, #4]
 8001f22:	464b      	mov	r3, r9
 8001f24:	f001 f8a8 	bl	8003078 <cmox_ModAddBN>
 8001f28:	6a20      	ldr	r0, [r4, #32]
 8001f2a:	9000      	str	r0, [sp, #0]
 8001f2c:	4623      	mov	r3, r4
 8001f2e:	4642      	mov	r2, r8
 8001f30:	4649      	mov	r1, r9
 8001f32:	4640      	mov	r0, r8
 8001f34:	f001 fb25 	bl	8003582 <cmox_ModularBN_Mul>
 8001f38:	69a0      	ldr	r0, [r4, #24]
 8001f3a:	6801      	ldr	r1, [r0, #0]
 8001f3c:	680a      	ldr	r2, [r1, #0]
 8001f3e:	6829      	ldr	r1, [r5, #0]
 8001f40:	6868      	ldr	r0, [r5, #4]
 8001f42:	464b      	mov	r3, r9
 8001f44:	f001 f898 	bl	8003078 <cmox_ModAddBN>
 8001f48:	69a0      	ldr	r0, [r4, #24]
 8001f4a:	6801      	ldr	r1, [r0, #0]
 8001f4c:	680a      	ldr	r2, [r1, #0]
 8001f4e:	6833      	ldr	r3, [r6, #0]
 8001f50:	6839      	ldr	r1, [r7, #0]
 8001f52:	6878      	ldr	r0, [r7, #4]
 8001f54:	f001 f921 	bl	800319a <cmox_ModSubBN>
 8001f58:	6a20      	ldr	r0, [r4, #32]
 8001f5a:	9000      	str	r0, [sp, #0]
 8001f5c:	4623      	mov	r3, r4
 8001f5e:	6831      	ldr	r1, [r6, #0]
 8001f60:	464a      	mov	r2, r9
 8001f62:	4648      	mov	r0, r9
 8001f64:	f001 fb0d 	bl	8003582 <cmox_ModularBN_Mul>
 8001f68:	69a0      	ldr	r0, [r4, #24]
 8001f6a:	6801      	ldr	r1, [r0, #0]
 8001f6c:	680a      	ldr	r2, [r1, #0]
 8001f6e:	6833      	ldr	r3, [r6, #0]
 8001f70:	4641      	mov	r1, r8
 8001f72:	4648      	mov	r0, r9
 8001f74:	f001 f911 	bl	800319a <cmox_ModSubBN>
 8001f78:	69a0      	ldr	r0, [r4, #24]
 8001f7a:	6801      	ldr	r1, [r0, #0]
 8001f7c:	680a      	ldr	r2, [r1, #0]
 8001f7e:	464b      	mov	r3, r9
 8001f80:	4641      	mov	r1, r8
 8001f82:	4648      	mov	r0, r9
 8001f84:	f001 f878 	bl	8003078 <cmox_ModAddBN>
 8001f88:	69a0      	ldr	r0, [r4, #24]
 8001f8a:	6801      	ldr	r1, [r0, #0]
 8001f8c:	6872      	ldr	r2, [r6, #4]
 8001f8e:	6809      	ldr	r1, [r1, #0]
 8001f90:	68f8      	ldr	r0, [r7, #12]
 8001f92:	f001 fa26 	bl	80033e2 <cmox_FieldBN_Mul2>
 8001f96:	6871      	ldr	r1, [r6, #4]
 8001f98:	6a20      	ldr	r0, [r4, #32]
 8001f9a:	9000      	str	r0, [sp, #0]
 8001f9c:	4623      	mov	r3, r4
 8001f9e:	68a8      	ldr	r0, [r5, #8]
 8001fa0:	460a      	mov	r2, r1
 8001fa2:	f001 faee 	bl	8003582 <cmox_ModularBN_Mul>
 8001fa6:	69a0      	ldr	r0, [r4, #24]
 8001fa8:	6801      	ldr	r1, [r0, #0]
 8001faa:	68f2      	ldr	r2, [r6, #12]
 8001fac:	6809      	ldr	r1, [r1, #0]
 8001fae:	68e8      	ldr	r0, [r5, #12]
 8001fb0:	f001 fa17 	bl	80033e2 <cmox_FieldBN_Mul2>
 8001fb4:	69a0      	ldr	r0, [r4, #24]
 8001fb6:	6801      	ldr	r1, [r0, #0]
 8001fb8:	680a      	ldr	r2, [r1, #0]
 8001fba:	6871      	ldr	r1, [r6, #4]
 8001fbc:	68f0      	ldr	r0, [r6, #12]
 8001fbe:	4643      	mov	r3, r8
 8001fc0:	f001 f85a 	bl	8003078 <cmox_ModAddBN>
 8001fc4:	69a1      	ldr	r1, [r4, #24]
 8001fc6:	680a      	ldr	r2, [r1, #0]
 8001fc8:	68f0      	ldr	r0, [r6, #12]
 8001fca:	6812      	ldr	r2, [r2, #0]
 8001fcc:	6871      	ldr	r1, [r6, #4]
 8001fce:	4603      	mov	r3, r0
 8001fd0:	f001 f8e3 	bl	800319a <cmox_ModSubBN>
 8001fd4:	6a20      	ldr	r0, [r4, #32]
 8001fd6:	9000      	str	r0, [sp, #0]
 8001fd8:	4623      	mov	r3, r4
 8001fda:	68b2      	ldr	r2, [r6, #8]
 8001fdc:	6830      	ldr	r0, [r6, #0]
 8001fde:	4649      	mov	r1, r9
 8001fe0:	f001 facf 	bl	8003582 <cmox_ModularBN_Mul>
 8001fe4:	6831      	ldr	r1, [r6, #0]
 8001fe6:	6a20      	ldr	r0, [r4, #32]
 8001fe8:	9000      	str	r0, [sp, #0]
 8001fea:	4623      	mov	r3, r4
 8001fec:	460a      	mov	r2, r1
 8001fee:	4640      	mov	r0, r8
 8001ff0:	f001 fac7 	bl	8003582 <cmox_ModularBN_Mul>
 8001ff4:	6a20      	ldr	r0, [r4, #32]
 8001ff6:	9000      	str	r0, [sp, #0]
 8001ff8:	6872      	ldr	r2, [r6, #4]
 8001ffa:	68f1      	ldr	r1, [r6, #12]
 8001ffc:	4623      	mov	r3, r4
 8001ffe:	4648      	mov	r0, r9
 8002000:	f001 fabf 	bl	8003582 <cmox_ModularBN_Mul>
 8002004:	68f1      	ldr	r1, [r6, #12]
 8002006:	6a20      	ldr	r0, [r4, #32]
 8002008:	9000      	str	r0, [sp, #0]
 800200a:	4623      	mov	r3, r4
 800200c:	460a      	mov	r2, r1
 800200e:	4640      	mov	r0, r8
 8002010:	f001 fab7 	bl	8003582 <cmox_ModularBN_Mul>
 8002014:	e8bd 83f1 	ldmia.w	sp!, {r0, r4, r5, r6, r7, r8, r9, pc}

08002018 <cmox_ECC_EDW_AddPoints_Ext_a_1>:
 8002018:	e92d 43f8 	stmdb	sp!, {r3, r4, r5, r6, r7, r8, r9, lr}
 800201c:	4604      	mov	r4, r0
 800201e:	4617      	mov	r7, r2
 8002020:	6960      	ldr	r0, [r4, #20]
 8002022:	f8d0 9004 	ldr.w	r9, [r0, #4]
 8002026:	f8d0 8000 	ldr.w	r8, [r0]
 800202a:	69a0      	ldr	r0, [r4, #24]
 800202c:	6800      	ldr	r0, [r0, #0]
 800202e:	6802      	ldr	r2, [r0, #0]
 8002030:	460d      	mov	r5, r1
 8002032:	461e      	mov	r6, r3
 8002034:	6829      	ldr	r1, [r5, #0]
 8002036:	6868      	ldr	r0, [r5, #4]
 8002038:	4643      	mov	r3, r8
 800203a:	f001 f8ae 	bl	800319a <cmox_ModSubBN>
 800203e:	69a0      	ldr	r0, [r4, #24]
 8002040:	6801      	ldr	r1, [r0, #0]
 8002042:	680a      	ldr	r2, [r1, #0]
 8002044:	6839      	ldr	r1, [r7, #0]
 8002046:	6878      	ldr	r0, [r7, #4]
 8002048:	464b      	mov	r3, r9
 800204a:	f001 f815 	bl	8003078 <cmox_ModAddBN>
 800204e:	6a20      	ldr	r0, [r4, #32]
 8002050:	9000      	str	r0, [sp, #0]
 8002052:	4623      	mov	r3, r4
 8002054:	4642      	mov	r2, r8
 8002056:	4649      	mov	r1, r9
 8002058:	4640      	mov	r0, r8
 800205a:	f001 fa92 	bl	8003582 <cmox_ModularBN_Mul>
 800205e:	69a0      	ldr	r0, [r4, #24]
 8002060:	6801      	ldr	r1, [r0, #0]
 8002062:	680a      	ldr	r2, [r1, #0]
 8002064:	6829      	ldr	r1, [r5, #0]
 8002066:	6868      	ldr	r0, [r5, #4]
 8002068:	464b      	mov	r3, r9
 800206a:	f001 f805 	bl	8003078 <cmox_ModAddBN>
 800206e:	69a0      	ldr	r0, [r4, #24]
 8002070:	6801      	ldr	r1, [r0, #0]
 8002072:	680a      	ldr	r2, [r1, #0]
 8002074:	6833      	ldr	r3, [r6, #0]
 8002076:	6839      	ldr	r1, [r7, #0]
 8002078:	6878      	ldr	r0, [r7, #4]
 800207a:	f001 f88e 	bl	800319a <cmox_ModSubBN>
 800207e:	6a20      	ldr	r0, [r4, #32]
 8002080:	9000      	str	r0, [sp, #0]
 8002082:	4623      	mov	r3, r4
 8002084:	6831      	ldr	r1, [r6, #0]
 8002086:	464a      	mov	r2, r9
 8002088:	4648      	mov	r0, r9
 800208a:	f001 fa7a 	bl	8003582 <cmox_ModularBN_Mul>
 800208e:	69a0      	ldr	r0, [r4, #24]
 8002090:	6801      	ldr	r1, [r0, #0]
 8002092:	680a      	ldr	r2, [r1, #0]
 8002094:	6833      	ldr	r3, [r6, #0]
 8002096:	4641      	mov	r1, r8
 8002098:	4648      	mov	r0, r9
 800209a:	f001 f87e 	bl	800319a <cmox_ModSubBN>
 800209e:	69a0      	ldr	r0, [r4, #24]
 80020a0:	6801      	ldr	r1, [r0, #0]
 80020a2:	680a      	ldr	r2, [r1, #0]
 80020a4:	464b      	mov	r3, r9
 80020a6:	4641      	mov	r1, r8
 80020a8:	4648      	mov	r0, r9
 80020aa:	f000 ffe5 	bl	8003078 <cmox_ModAddBN>
 80020ae:	69a0      	ldr	r0, [r4, #24]
 80020b0:	6801      	ldr	r1, [r0, #0]
 80020b2:	6872      	ldr	r2, [r6, #4]
 80020b4:	6809      	ldr	r1, [r1, #0]
 80020b6:	68f8      	ldr	r0, [r7, #12]
 80020b8:	f001 f993 	bl	80033e2 <cmox_FieldBN_Mul2>
 80020bc:	6871      	ldr	r1, [r6, #4]
 80020be:	6a20      	ldr	r0, [r4, #32]
 80020c0:	9000      	str	r0, [sp, #0]
 80020c2:	4623      	mov	r3, r4
 80020c4:	68a8      	ldr	r0, [r5, #8]
 80020c6:	460a      	mov	r2, r1
 80020c8:	f001 fa5b 	bl	8003582 <cmox_ModularBN_Mul>
 80020cc:	69a0      	ldr	r0, [r4, #24]
 80020ce:	6801      	ldr	r1, [r0, #0]
 80020d0:	68b2      	ldr	r2, [r6, #8]
 80020d2:	6809      	ldr	r1, [r1, #0]
 80020d4:	68b8      	ldr	r0, [r7, #8]
 80020d6:	f001 f984 	bl	80033e2 <cmox_FieldBN_Mul2>
 80020da:	6a20      	ldr	r0, [r4, #32]
 80020dc:	9000      	str	r0, [sp, #0]
 80020de:	68f2      	ldr	r2, [r6, #12]
 80020e0:	68b1      	ldr	r1, [r6, #8]
 80020e2:	68e8      	ldr	r0, [r5, #12]
 80020e4:	4623      	mov	r3, r4
 80020e6:	f001 fa4c 	bl	8003582 <cmox_ModularBN_Mul>
 80020ea:	69a0      	ldr	r0, [r4, #24]
 80020ec:	6801      	ldr	r1, [r0, #0]
 80020ee:	680a      	ldr	r2, [r1, #0]
 80020f0:	6871      	ldr	r1, [r6, #4]
 80020f2:	68f0      	ldr	r0, [r6, #12]
 80020f4:	4643      	mov	r3, r8
 80020f6:	f000 ffbf 	bl	8003078 <cmox_ModAddBN>
 80020fa:	69a1      	ldr	r1, [r4, #24]
 80020fc:	680a      	ldr	r2, [r1, #0]
 80020fe:	68f0      	ldr	r0, [r6, #12]
 8002100:	6812      	ldr	r2, [r2, #0]
 8002102:	6871      	ldr	r1, [r6, #4]
 8002104:	4603      	mov	r3, r0
 8002106:	f001 f848 	bl	800319a <cmox_ModSubBN>
 800210a:	6a20      	ldr	r0, [r4, #32]
 800210c:	9000      	str	r0, [sp, #0]
 800210e:	4623      	mov	r3, r4
 8002110:	68b2      	ldr	r2, [r6, #8]
 8002112:	6830      	ldr	r0, [r6, #0]
 8002114:	4649      	mov	r1, r9
 8002116:	f001 fa34 	bl	8003582 <cmox_ModularBN_Mul>
 800211a:	6831      	ldr	r1, [r6, #0]
 800211c:	6a20      	ldr	r0, [r4, #32]
 800211e:	9000      	str	r0, [sp, #0]
 8002120:	4623      	mov	r3, r4
 8002122:	460a      	mov	r2, r1
 8002124:	4640      	mov	r0, r8
 8002126:	f001 fa2c 	bl	8003582 <cmox_ModularBN_Mul>
 800212a:	6a20      	ldr	r0, [r4, #32]
 800212c:	9000      	str	r0, [sp, #0]
 800212e:	6872      	ldr	r2, [r6, #4]
 8002130:	68f1      	ldr	r1, [r6, #12]
 8002132:	4623      	mov	r3, r4
 8002134:	4648      	mov	r0, r9
 8002136:	f001 fa24 	bl	8003582 <cmox_ModularBN_Mul>
 800213a:	68f1      	ldr	r1, [r6, #12]
 800213c:	6a20      	ldr	r0, [r4, #32]
 800213e:	9000      	str	r0, [sp, #0]
 8002140:	4623      	mov	r3, r4
 8002142:	460a      	mov	r2, r1
 8002144:	4640      	mov	r0, r8
 8002146:	f001 fa1c 	bl	8003582 <cmox_ModularBN_Mul>
 800214a:	e8bd 83f1 	ldmia.w	sp!, {r0, r4, r5, r6, r7, r8, r9, pc}

0800214e <cmox_ECC_EDW_DblPoint_Ext_a_1>:
 800214e:	e92d 4ffe 	stmdb	sp!, {r1, r2, r3, r4, r5, r6, r7, r8, r9, sl, fp, lr}
 8002152:	4604      	mov	r4, r0
 8002154:	4698      	mov	r8, r3
 8002156:	6960      	ldr	r0, [r4, #20]
 8002158:	6807      	ldr	r7, [r0, #0]
 800215a:	6843      	ldr	r3, [r0, #4]
 800215c:	9301      	str	r3, [sp, #4]
 800215e:	460d      	mov	r5, r1
 8002160:	4616      	mov	r6, r2
 8002162:	463a      	mov	r2, r7
 8002164:	6831      	ldr	r1, [r6, #0]
 8002166:	4640      	mov	r0, r8
 8002168:	f003 f8da 	bl	8005320 <cmox_bn_mux>
 800216c:	4681      	mov	r9, r0
 800216e:	6871      	ldr	r1, [r6, #4]
 8002170:	463a      	mov	r2, r7
 8002172:	4640      	mov	r0, r8
 8002174:	f003 f8d4 	bl	8005320 <cmox_bn_mux>
 8002178:	4682      	mov	sl, r0
 800217a:	68b1      	ldr	r1, [r6, #8]
 800217c:	463a      	mov	r2, r7
 800217e:	4640      	mov	r0, r8
 8002180:	f003 f8ce 	bl	8005320 <cmox_bn_mux>
 8002184:	4683      	mov	fp, r0
 8002186:	68f1      	ldr	r1, [r6, #12]
 8002188:	463a      	mov	r2, r7
 800218a:	4640      	mov	r0, r8
 800218c:	f003 f8c8 	bl	8005320 <cmox_bn_mux>
 8002190:	4606      	mov	r6, r0
 8002192:	6a23      	ldr	r3, [r4, #32]
 8002194:	6828      	ldr	r0, [r5, #0]
 8002196:	4622      	mov	r2, r4
 8002198:	4639      	mov	r1, r7
 800219a:	f001 fa15 	bl	80035c8 <cmox_ModularBN_Sqr>
 800219e:	6a23      	ldr	r3, [r4, #32]
 80021a0:	6868      	ldr	r0, [r5, #4]
 80021a2:	4622      	mov	r2, r4
 80021a4:	4631      	mov	r1, r6
 80021a6:	f001 fa0f 	bl	80035c8 <cmox_ModularBN_Sqr>
 80021aa:	6a23      	ldr	r3, [r4, #32]
 80021ac:	68a8      	ldr	r0, [r5, #8]
 80021ae:	4622      	mov	r2, r4
 80021b0:	4659      	mov	r1, fp
 80021b2:	f001 fa09 	bl	80035c8 <cmox_ModularBN_Sqr>
 80021b6:	69a0      	ldr	r0, [r4, #24]
 80021b8:	6801      	ldr	r1, [r0, #0]
 80021ba:	6809      	ldr	r1, [r1, #0]
 80021bc:	465a      	mov	r2, fp
 80021be:	4658      	mov	r0, fp
 80021c0:	f001 f90f 	bl	80033e2 <cmox_FieldBN_Mul2>
 80021c4:	69a0      	ldr	r0, [r4, #24]
 80021c6:	6801      	ldr	r1, [r0, #0]
 80021c8:	680a      	ldr	r2, [r1, #0]
 80021ca:	6869      	ldr	r1, [r5, #4]
 80021cc:	6828      	ldr	r0, [r5, #0]
 80021ce:	464b      	mov	r3, r9
 80021d0:	f000 ff52 	bl	8003078 <cmox_ModAddBN>
 80021d4:	6a23      	ldr	r3, [r4, #32]
 80021d6:	4622      	mov	r2, r4
 80021d8:	4649      	mov	r1, r9
 80021da:	4648      	mov	r0, r9
 80021dc:	f001 f9f4 	bl	80035c8 <cmox_ModularBN_Sqr>
 80021e0:	69a0      	ldr	r0, [r4, #24]
 80021e2:	6801      	ldr	r1, [r0, #0]
 80021e4:	680a      	ldr	r2, [r1, #0]
 80021e6:	464b      	mov	r3, r9
 80021e8:	4639      	mov	r1, r7
 80021ea:	4648      	mov	r0, r9
 80021ec:	f000 ffd5 	bl	800319a <cmox_ModSubBN>
 80021f0:	69a0      	ldr	r0, [r4, #24]
 80021f2:	6803      	ldr	r3, [r0, #0]
 80021f4:	6818      	ldr	r0, [r3, #0]
 80021f6:	4652      	mov	r2, sl
 80021f8:	4639      	mov	r1, r7
 80021fa:	f001 f84d 	bl	8003298 <cmox_SubBN>
 80021fe:	69a0      	ldr	r0, [r4, #24]
 8002200:	6801      	ldr	r1, [r0, #0]
 8002202:	680a      	ldr	r2, [r1, #0]
 8002204:	463b      	mov	r3, r7
 8002206:	4631      	mov	r1, r6
 8002208:	4648      	mov	r0, r9
 800220a:	f000 ffc6 	bl	800319a <cmox_ModSubBN>
 800220e:	69a0      	ldr	r0, [r4, #24]
 8002210:	6801      	ldr	r1, [r0, #0]
 8002212:	680a      	ldr	r2, [r1, #0]
 8002214:	9b01      	ldr	r3, [sp, #4]
 8002216:	4631      	mov	r1, r6
 8002218:	4650      	mov	r0, sl
 800221a:	f000 ff2d 	bl	8003078 <cmox_ModAddBN>
 800221e:	69a0      	ldr	r0, [r4, #24]
 8002220:	6801      	ldr	r1, [r0, #0]
 8002222:	680a      	ldr	r2, [r1, #0]
 8002224:	4633      	mov	r3, r6
 8002226:	4631      	mov	r1, r6
 8002228:	4650      	mov	r0, sl
 800222a:	f000 ffb6 	bl	800319a <cmox_ModSubBN>
 800222e:	69a0      	ldr	r0, [r4, #24]
 8002230:	6801      	ldr	r1, [r0, #0]
 8002232:	680a      	ldr	r2, [r1, #0]
 8002234:	9801      	ldr	r0, [sp, #4]
 8002236:	4653      	mov	r3, sl
 8002238:	4659      	mov	r1, fp
 800223a:	f000 ffae 	bl	800319a <cmox_ModSubBN>
 800223e:	6a20      	ldr	r0, [r4, #32]
 8002240:	9901      	ldr	r1, [sp, #4]
 8002242:	9000      	str	r0, [sp, #0]
 8002244:	4623      	mov	r3, r4
 8002246:	465a      	mov	r2, fp
 8002248:	4650      	mov	r0, sl
 800224a:	f001 f99a 	bl	8003582 <cmox_ModularBN_Mul>
 800224e:	6a20      	ldr	r0, [r4, #32]
 8002250:	9000      	str	r0, [sp, #0]
 8002252:	4623      	mov	r3, r4
 8002254:	464a      	mov	r2, r9
 8002256:	4651      	mov	r1, sl
 8002258:	4638      	mov	r0, r7
 800225a:	f001 f992 	bl	8003582 <cmox_ModularBN_Mul>
 800225e:	6a20      	ldr	r0, [r4, #32]
 8002260:	9000      	str	r0, [sp, #0]
 8002262:	4623      	mov	r3, r4
 8002264:	9801      	ldr	r0, [sp, #4]
 8002266:	4652      	mov	r2, sl
 8002268:	4631      	mov	r1, r6
 800226a:	f001 f98a 	bl	8003582 <cmox_ModularBN_Mul>
 800226e:	6a20      	ldr	r0, [r4, #32]
 8002270:	9000      	str	r0, [sp, #0]
 8002272:	4623      	mov	r3, r4
 8002274:	4632      	mov	r2, r6
 8002276:	4631      	mov	r1, r6
 8002278:	4638      	mov	r0, r7
 800227a:	f001 f982 	bl	8003582 <cmox_ModularBN_Mul>
 800227e:	e8bd 8ff7 	ldmia.w	sp!, {r0, r1, r2, r4, r5, r6, r7, r8, r9, sl, fp, pc}

08002282 <cmox_ECC_MONTY_Ladder_XzAff>:
 8002282:	e92d 43f8 	stmdb	sp!, {r3, r4, r5, r6, r7, r8, r9, lr}
 8002286:	4604      	mov	r4, r0
 8002288:	4616      	mov	r6, r2
 800228a:	6960      	ldr	r0, [r4, #20]
 800228c:	f8d0 9004 	ldr.w	r9, [r0, #4]
 8002290:	f8d0 8000 	ldr.w	r8, [r0]
 8002294:	69a0      	ldr	r0, [r4, #24]
 8002296:	6800      	ldr	r0, [r0, #0]
 8002298:	6802      	ldr	r2, [r0, #0]
 800229a:	460d      	mov	r5, r1
 800229c:	461f      	mov	r7, r3
 800229e:	68b9      	ldr	r1, [r7, #8]
 80022a0:	6838      	ldr	r0, [r7, #0]
 80022a2:	4643      	mov	r3, r8
 80022a4:	f000 fee8 	bl	8003078 <cmox_ModAddBN>
 80022a8:	69a0      	ldr	r0, [r4, #24]
 80022aa:	6801      	ldr	r1, [r0, #0]
 80022ac:	680a      	ldr	r2, [r1, #0]
 80022ae:	68b9      	ldr	r1, [r7, #8]
 80022b0:	6838      	ldr	r0, [r7, #0]
 80022b2:	464b      	mov	r3, r9
 80022b4:	f000 ff71 	bl	800319a <cmox_ModSubBN>
 80022b8:	69a0      	ldr	r0, [r4, #24]
 80022ba:	6801      	ldr	r1, [r0, #0]
 80022bc:	680a      	ldr	r2, [r1, #0]
 80022be:	683b      	ldr	r3, [r7, #0]
 80022c0:	68b1      	ldr	r1, [r6, #8]
 80022c2:	6830      	ldr	r0, [r6, #0]
 80022c4:	f000 fed8 	bl	8003078 <cmox_ModAddBN>
 80022c8:	69a0      	ldr	r0, [r4, #24]
 80022ca:	6801      	ldr	r1, [r0, #0]
 80022cc:	680a      	ldr	r2, [r1, #0]
 80022ce:	68bb      	ldr	r3, [r7, #8]
 80022d0:	68b1      	ldr	r1, [r6, #8]
 80022d2:	6830      	ldr	r0, [r6, #0]
 80022d4:	f000 ff61 	bl	800319a <cmox_ModSubBN>
 80022d8:	68b8      	ldr	r0, [r7, #8]
 80022da:	6a21      	ldr	r1, [r4, #32]
 80022dc:	9100      	str	r1, [sp, #0]
 80022de:	4623      	mov	r3, r4
 80022e0:	4602      	mov	r2, r0
 80022e2:	4641      	mov	r1, r8
 80022e4:	f001 f94d 	bl	8003582 <cmox_ModularBN_Mul>
 80022e8:	6a23      	ldr	r3, [r4, #32]
 80022ea:	4622      	mov	r2, r4
 80022ec:	4641      	mov	r1, r8
 80022ee:	4640      	mov	r0, r8
 80022f0:	f001 f96a 	bl	80035c8 <cmox_ModularBN_Sqr>
 80022f4:	6838      	ldr	r0, [r7, #0]
 80022f6:	6a21      	ldr	r1, [r4, #32]
 80022f8:	9100      	str	r1, [sp, #0]
 80022fa:	4623      	mov	r3, r4
 80022fc:	4602      	mov	r2, r0
 80022fe:	4649      	mov	r1, r9
 8002300:	f001 f93f 	bl	8003582 <cmox_ModularBN_Mul>
 8002304:	6a23      	ldr	r3, [r4, #32]
 8002306:	4622      	mov	r2, r4
 8002308:	4649      	mov	r1, r9
 800230a:	4648      	mov	r0, r9
 800230c:	f001 f95c 	bl	80035c8 <cmox_ModularBN_Sqr>
 8002310:	69a0      	ldr	r0, [r4, #24]
 8002312:	6801      	ldr	r1, [r0, #0]
 8002314:	680a      	ldr	r2, [r1, #0]
 8002316:	6833      	ldr	r3, [r6, #0]
 8002318:	6839      	ldr	r1, [r7, #0]
 800231a:	68b8      	ldr	r0, [r7, #8]
 800231c:	f000 feac 	bl	8003078 <cmox_ModAddBN>
 8002320:	69a1      	ldr	r1, [r4, #24]
 8002322:	680a      	ldr	r2, [r1, #0]
 8002324:	68b8      	ldr	r0, [r7, #8]
 8002326:	6812      	ldr	r2, [r2, #0]
 8002328:	6839      	ldr	r1, [r7, #0]
 800232a:	4603      	mov	r3, r0
 800232c:	f000 ff35 	bl	800319a <cmox_ModSubBN>
 8002330:	6830      	ldr	r0, [r6, #0]
 8002332:	6a23      	ldr	r3, [r4, #32]
 8002334:	4622      	mov	r2, r4
 8002336:	4601      	mov	r1, r0
 8002338:	f001 f946 	bl	80035c8 <cmox_ModularBN_Sqr>
 800233c:	68b8      	ldr	r0, [r7, #8]
 800233e:	6a23      	ldr	r3, [r4, #32]
 8002340:	4622      	mov	r2, r4
 8002342:	4601      	mov	r1, r0
 8002344:	f001 f940 	bl	80035c8 <cmox_ModularBN_Sqr>
 8002348:	6a20      	ldr	r0, [r4, #32]
 800234a:	9000      	str	r0, [sp, #0]
 800234c:	68b2      	ldr	r2, [r6, #8]
 800234e:	68b9      	ldr	r1, [r7, #8]
 8002350:	6828      	ldr	r0, [r5, #0]
 8002352:	4623      	mov	r3, r4
 8002354:	f001 f915 	bl	8003582 <cmox_ModularBN_Mul>
 8002358:	6a20      	ldr	r0, [r4, #32]
 800235a:	9000      	str	r0, [sp, #0]
 800235c:	4623      	mov	r3, r4
 800235e:	683a      	ldr	r2, [r7, #0]
 8002360:	4649      	mov	r1, r9
 8002362:	4640      	mov	r0, r8
 8002364:	f001 f90d 	bl	8003582 <cmox_ModularBN_Mul>
 8002368:	69a0      	ldr	r0, [r4, #24]
 800236a:	6801      	ldr	r1, [r0, #0]
 800236c:	680a      	ldr	r2, [r1, #0]
 800236e:	464b      	mov	r3, r9
 8002370:	4649      	mov	r1, r9
 8002372:	4640      	mov	r0, r8
 8002374:	f000 ff11 	bl	800319a <cmox_ModSubBN>
 8002378:	6a20      	ldr	r0, [r4, #32]
 800237a:	9000      	str	r0, [sp, #0]
 800237c:	4623      	mov	r3, r4
 800237e:	69a0      	ldr	r0, [r4, #24]
 8002380:	6801      	ldr	r1, [r0, #0]
 8002382:	68ba      	ldr	r2, [r7, #8]
 8002384:	6909      	ldr	r1, [r1, #16]
 8002386:	4648      	mov	r0, r9
 8002388:	f001 f8fb 	bl	8003582 <cmox_ModularBN_Mul>
 800238c:	69a0      	ldr	r0, [r4, #24]
 800238e:	6801      	ldr	r1, [r0, #0]
 8002390:	680a      	ldr	r2, [r1, #0]
 8002392:	68b9      	ldr	r1, [r7, #8]
 8002394:	4643      	mov	r3, r8
 8002396:	4640      	mov	r0, r8
 8002398:	f000 fe6e 	bl	8003078 <cmox_ModAddBN>
 800239c:	6a20      	ldr	r0, [r4, #32]
 800239e:	9000      	str	r0, [sp, #0]
 80023a0:	4623      	mov	r3, r4
 80023a2:	68ba      	ldr	r2, [r7, #8]
 80023a4:	4649      	mov	r1, r9
 80023a6:	4640      	mov	r0, r8
 80023a8:	f001 f8eb 	bl	8003582 <cmox_ModularBN_Mul>
 80023ac:	e8bd 83f1 	ldmia.w	sp!, {r0, r4, r5, r6, r7, r8, r9, pc}

080023b0 <cmox_ECC_CompleteMADD>:
 80023b0:	b5fe      	push	{r1, r2, r3, r4, r5, r6, r7, lr}
 80023b2:	4606      	mov	r6, r0
 80023b4:	460c      	mov	r4, r1
 80023b6:	2000      	movs	r0, #0
 80023b8:	4617      	mov	r7, r2
 80023ba:	9001      	str	r0, [sp, #4]
 80023bc:	461d      	mov	r5, r3
 80023be:	6922      	ldr	r2, [r4, #16]
 80023c0:	612a      	str	r2, [r5, #16]
 80023c2:	2100      	movs	r1, #0
 80023c4:	7c20      	ldrb	r0, [r4, #16]
 80023c6:	f000 0001 	and.w	r0, r0, #1
 80023ca:	f001 f93e 	bl	800364a <cmox_mathUtils_neq>
 80023ce:	2801      	cmp	r0, #1
 80023d0:	d107      	bne.n	80023e2 <cmox_ECC_CompleteMADD+0x32>
 80023d2:	7c38      	ldrb	r0, [r7, #16]
 80023d4:	2100      	movs	r1, #0
 80023d6:	f000 0001 	and.w	r0, r0, #1
 80023da:	f001 f936 	bl	800364a <cmox_mathUtils_neq>
 80023de:	2801      	cmp	r0, #1
 80023e0:	d036      	beq.n	8002450 <cmox_ECC_CompleteMADD+0xa0>
 80023e2:	7c20      	ldrb	r0, [r4, #16]
 80023e4:	2100      	movs	r1, #0
 80023e6:	f000 0001 	and.w	r0, r0, #1
 80023ea:	f001 f92e 	bl	800364a <cmox_mathUtils_neq>
 80023ee:	2801      	cmp	r0, #1
 80023f0:	d102      	bne.n	80023f8 <cmox_ECC_CompleteMADD+0x48>
 80023f2:	462a      	mov	r2, r5
 80023f4:	4639      	mov	r1, r7
 80023f6:	e009      	b.n	800240c <cmox_ECC_CompleteMADD+0x5c>
 80023f8:	7c38      	ldrb	r0, [r7, #16]
 80023fa:	2100      	movs	r1, #0
 80023fc:	f000 0001 	and.w	r0, r0, #1
 8002400:	f001 f923 	bl	800364a <cmox_mathUtils_neq>
 8002404:	2801      	cmp	r0, #1
 8002406:	d104      	bne.n	8002412 <cmox_ECC_CompleteMADD+0x62>
 8002408:	462a      	mov	r2, r5
 800240a:	4621      	mov	r1, r4
 800240c:	f7fe faac 	bl	8000968 <cmox_ECC_CondCopyPoint>
 8002410:	bdf7      	pop	{r0, r1, r2, r4, r5, r6, r7, pc}
 8002412:	463a      	mov	r2, r7
 8002414:	a801      	add	r0, sp, #4
 8002416:	9000      	str	r0, [sp, #0]
 8002418:	462b      	mov	r3, r5
 800241a:	69b7      	ldr	r7, [r6, #24]
 800241c:	f8d7 c004 	ldr.w	ip, [r7, #4]
 8002420:	f8dc 7004 	ldr.w	r7, [ip, #4]
 8002424:	4621      	mov	r1, r4
 8002426:	4630      	mov	r0, r6
 8002428:	47b8      	blx	r7
 800242a:	9801      	ldr	r0, [sp, #4]
 800242c:	07c1      	lsls	r1, r0, #31
 800242e:	d513      	bpl.n	8002458 <cmox_ECC_CompleteMADD+0xa8>
 8002430:	f3c0 0040 	ubfx	r0, r0, #1, #1
 8002434:	b160      	cbz	r0, 8002450 <cmox_ECC_CompleteMADD+0xa0>
 8002436:	4630      	mov	r0, r6
 8002438:	69b6      	ldr	r6, [r6, #24]
 800243a:	6877      	ldr	r7, [r6, #4]
 800243c:	f8d7 c000 	ldr.w	ip, [r7]
 8002440:	2301      	movs	r3, #1
 8002442:	462a      	mov	r2, r5
 8002444:	4621      	mov	r1, r4
 8002446:	47e0      	blx	ip
 8002448:	6920      	ldr	r0, [r4, #16]
 800244a:	0840      	lsrs	r0, r0, #1
 800244c:	0040      	lsls	r0, r0, #1
 800244e:	e002      	b.n	8002456 <cmox_ECC_CompleteMADD+0xa6>
 8002450:	6928      	ldr	r0, [r5, #16]
 8002452:	f040 0001 	orr.w	r0, r0, #1
 8002456:	6128      	str	r0, [r5, #16]
 8002458:	bdf7      	pop	{r0, r1, r2, r4, r5, r6, r7, pc}

0800245a <cmox_ECC_CompleteADD>:
 800245a:	b5f8      	push	{r3, r4, r5, r6, r7, lr}
 800245c:	460f      	mov	r7, r1
 800245e:	4606      	mov	r6, r0
 8002460:	461d      	mov	r5, r3
 8002462:	6938      	ldr	r0, [r7, #16]
 8002464:	6128      	str	r0, [r5, #16]
 8002466:	4614      	mov	r4, r2
 8002468:	7c38      	ldrb	r0, [r7, #16]
 800246a:	2100      	movs	r1, #0
 800246c:	f000 0001 	and.w	r0, r0, #1
 8002470:	f001 f8eb 	bl	800364a <cmox_mathUtils_neq>
 8002474:	2801      	cmp	r0, #1
 8002476:	d107      	bne.n	8002488 <cmox_ECC_CompleteADD+0x2e>
 8002478:	7c20      	ldrb	r0, [r4, #16]
 800247a:	2100      	movs	r1, #0
 800247c:	f000 0001 	and.w	r0, r0, #1
 8002480:	f001 f8e3 	bl	800364a <cmox_mathUtils_neq>
 8002484:	2801      	cmp	r0, #1
 8002486:	d03b      	beq.n	8002500 <cmox_ECC_CompleteADD+0xa6>
 8002488:	7c38      	ldrb	r0, [r7, #16]
 800248a:	2100      	movs	r1, #0
 800248c:	f000 0001 	and.w	r0, r0, #1
 8002490:	f001 f8db 	bl	800364a <cmox_mathUtils_neq>
 8002494:	2801      	cmp	r0, #1
 8002496:	d102      	bne.n	800249e <cmox_ECC_CompleteADD+0x44>
 8002498:	462a      	mov	r2, r5
 800249a:	4621      	mov	r1, r4
 800249c:	e009      	b.n	80024b2 <cmox_ECC_CompleteADD+0x58>
 800249e:	7c20      	ldrb	r0, [r4, #16]
 80024a0:	2100      	movs	r1, #0
 80024a2:	f000 0001 	and.w	r0, r0, #1
 80024a6:	f001 f8d0 	bl	800364a <cmox_mathUtils_neq>
 80024aa:	2801      	cmp	r0, #1
 80024ac:	d105      	bne.n	80024ba <cmox_ECC_CompleteADD+0x60>
 80024ae:	462a      	mov	r2, r5
 80024b0:	4639      	mov	r1, r7
 80024b2:	e8bd 40f8 	ldmia.w	sp!, {r3, r4, r5, r6, r7, lr}
 80024b6:	f7fe ba57 	b.w	8000968 <cmox_ECC_CondCopyPoint>
 80024ba:	4639      	mov	r1, r7
 80024bc:	69b7      	ldr	r7, [r6, #24]
 80024be:	f8d7 c004 	ldr.w	ip, [r7, #4]
 80024c2:	f8dc 7008 	ldr.w	r7, [ip, #8]
 80024c6:	462b      	mov	r3, r5
 80024c8:	4622      	mov	r2, r4
 80024ca:	4630      	mov	r0, r6
 80024cc:	47b8      	blx	r7
 80024ce:	68a8      	ldr	r0, [r5, #8]
 80024d0:	2100      	movs	r1, #0
 80024d2:	f002 ff6b 	bl	80053ac <cmox_bn_cmpUint>
 80024d6:	2801      	cmp	r0, #1
 80024d8:	d116      	bne.n	8002508 <cmox_ECC_CompleteADD+0xae>
 80024da:	6828      	ldr	r0, [r5, #0]
 80024dc:	2100      	movs	r1, #0
 80024de:	f002 ff65 	bl	80053ac <cmox_bn_cmpUint>
 80024e2:	2801      	cmp	r0, #1
 80024e4:	d10c      	bne.n	8002500 <cmox_ECC_CompleteADD+0xa6>
 80024e6:	4630      	mov	r0, r6
 80024e8:	69b6      	ldr	r6, [r6, #24]
 80024ea:	6877      	ldr	r7, [r6, #4]
 80024ec:	f8d7 c000 	ldr.w	ip, [r7]
 80024f0:	2301      	movs	r3, #1
 80024f2:	462a      	mov	r2, r5
 80024f4:	4621      	mov	r1, r4
 80024f6:	47e0      	blx	ip
 80024f8:	6920      	ldr	r0, [r4, #16]
 80024fa:	0840      	lsrs	r0, r0, #1
 80024fc:	0040      	lsls	r0, r0, #1
 80024fe:	e002      	b.n	8002506 <cmox_ECC_CompleteADD+0xac>
 8002500:	6928      	ldr	r0, [r5, #16]
 8002502:	f040 0001 	orr.w	r0, r0, #1
 8002506:	6128      	str	r0, [r5, #16]
 8002508:	bdf1      	pop	{r0, r4, r5, r6, r7, pc}

0800250a <cmox_ECC_CompleteDBL>:
 800250a:	b5f8      	push	{r3, r4, r5, r6, r7, lr}
 800250c:	460e      	mov	r6, r1
 800250e:	4605      	mov	r5, r0
 8002510:	4614      	mov	r4, r2
 8002512:	6930      	ldr	r0, [r6, #16]
 8002514:	6120      	str	r0, [r4, #16]
 8002516:	2100      	movs	r1, #0
 8002518:	7c30      	ldrb	r0, [r6, #16]
 800251a:	f000 0001 	and.w	r0, r0, #1
 800251e:	f001 f894 	bl	800364a <cmox_mathUtils_neq>
 8002522:	2801      	cmp	r0, #1
 8002524:	d103      	bne.n	800252e <cmox_ECC_CompleteDBL+0x24>
 8002526:	6920      	ldr	r0, [r4, #16]
 8002528:	f040 0001 	orr.w	r0, r0, #1
 800252c:	e00a      	b.n	8002544 <cmox_ECC_CompleteDBL+0x3a>
 800252e:	4628      	mov	r0, r5
 8002530:	69ad      	ldr	r5, [r5, #24]
 8002532:	4631      	mov	r1, r6
 8002534:	686e      	ldr	r6, [r5, #4]
 8002536:	6837      	ldr	r7, [r6, #0]
 8002538:	2301      	movs	r3, #1
 800253a:	4622      	mov	r2, r4
 800253c:	47b8      	blx	r7
 800253e:	6920      	ldr	r0, [r4, #16]
 8002540:	0840      	lsrs	r0, r0, #1
 8002542:	0040      	lsls	r0, r0, #1
 8002544:	6120      	str	r0, [r4, #16]
 8002546:	bdf1      	pop	{r0, r4, r5, r6, r7, pc}
 8002548:	0101b004 	.word	0x0101b004
 800254c:	45011700 	.word	0x45011700

08002550 <cmox_ecdsa_verify>:
 8002550:	e92d 4ff8 	stmdb	sp!, {r3, r4, r5, r6, r7, r8, r9, sl, fp, lr}
 8002554:	b092      	sub	sp, #72	; 0x48
 8002556:	2400      	movs	r4, #0
 8002558:	460d      	mov	r5, r1
 800255a:	9405      	str	r4, [sp, #20]
 800255c:	9404      	str	r4, [sp, #16]
 800255e:	9408      	str	r4, [sp, #32]
 8002560:	9407      	str	r4, [sp, #28]
 8002562:	9406      	str	r4, [sp, #24]
 8002564:	b3a5      	cbz	r5, 80025d0 <cmox_ecdsa_verify+0x80>
 8002566:	0016      	movs	r6, r2
 8002568:	bf1f      	itttt	ne
 800256a:	9f1c      	ldrne	r7, [sp, #112]	; 0x70
 800256c:	2f00      	cmpne	r7, #0
 800256e:	f8dd 8078 	ldrne.w	r8, [sp, #120]	; 0x78
 8002572:	f1b8 0f00 	cmpne.w	r8, #0
 8002576:	d02b      	beq.n	80025d0 <cmox_ecdsa_verify+0x80>
 8002578:	0004      	movs	r4, r0
 800257a:	d029      	beq.n	80025d0 <cmox_ecdsa_verify+0x80>
 800257c:	6960      	ldr	r0, [r4, #20]
 800257e:	49a4      	ldr	r1, [pc, #656]	; (8002810 <cmox_ecdsa_verify+0x2c0>)
 8002580:	4288      	cmp	r0, r1
 8002582:	d125      	bne.n	80025d0 <cmox_ecdsa_verify+0x80>
 8002584:	6920      	ldr	r0, [r4, #16]
 8002586:	69c1      	ldr	r1, [r0, #28]
 8002588:	6a68      	ldr	r0, [r5, #36]	; 0x24
 800258a:	4201      	tst	r1, r0
 800258c:	bf08      	it	eq
 800258e:	4ea1      	ldreq	r6, [pc, #644]	; (8002814 <cmox_ecdsa_verify+0x2c4>)
 8002590:	d01f      	beq.n	80025d2 <cmox_ecdsa_verify+0x82>
 8002592:	f895 0028 	ldrb.w	r0, [r5, #40]	; 0x28
 8002596:	07c1      	lsls	r1, r0, #31
 8002598:	bf58      	it	pl
 800259a:	4e9f      	ldrpl	r6, [pc, #636]	; (8002818 <cmox_ecdsa_verify+0x2c8>)
 800259c:	d57a      	bpl.n	8002694 <cmox_ecdsa_verify+0x144>
 800259e:	9300      	str	r3, [sp, #0]
 80025a0:	6829      	ldr	r1, [r5, #0]
 80025a2:	6888      	ldr	r0, [r1, #8]
 80025a4:	f002 ff18 	bl	80053d8 <cmox_bn_countBits>
 80025a8:	4681      	mov	r9, r0
 80025aa:	f109 0007 	add.w	r0, r9, #7
 80025ae:	ea4f 0ad0 	mov.w	sl, r0, lsr #3
 80025b2:	6828      	ldr	r0, [r5, #0]
 80025b4:	6800      	ldr	r0, [r0, #0]
 80025b6:	f002 ff0f 	bl	80053d8 <cmox_bn_countBits>
 80025ba:	1dc0      	adds	r0, r0, #7
 80025bc:	ea4f 0bd0 	mov.w	fp, r0, lsr #3
 80025c0:	9800      	ldr	r0, [sp, #0]
 80025c2:	ebb0 0f4b 	cmp.w	r0, fp, lsl #1
 80025c6:	bf04      	itt	eq
 80025c8:	981f      	ldreq	r0, [sp, #124]	; 0x7c
 80025ca:	ebb0 0f4a 	cmpeq.w	r0, sl, lsl #1
 80025ce:	d001      	beq.n	80025d4 <cmox_ecdsa_verify+0x84>
 80025d0:	4e92      	ldr	r6, [pc, #584]	; (800281c <cmox_ecdsa_verify+0x2cc>)
 80025d2:	e05f      	b.n	8002694 <cmox_ecdsa_verify+0x144>
 80025d4:	6923      	ldr	r3, [r4, #16]
 80025d6:	4622      	mov	r2, r4
 80025d8:	4629      	mov	r1, r5
 80025da:	a809      	add	r0, sp, #36	; 0x24
 80025dc:	f7fe f916 	bl	800080c <cmox_ECC_InitCurve>
 80025e0:	980f      	ldr	r0, [sp, #60]	; 0x3c
 80025e2:	4d8f      	ldr	r5, [pc, #572]	; (8002820 <cmox_ecdsa_verify+0x2d0>)
 80025e4:	6801      	ldr	r1, [r0, #0]
 80025e6:	688a      	ldr	r2, [r1, #8]
 80025e8:	6812      	ldr	r2, [r2, #0]
 80025ea:	a905      	add	r1, sp, #20
 80025ec:	4620      	mov	r0, r4
 80025ee:	f002 fe19 	bl	8005224 <cmox_bn_alloc>
 80025f2:	b108      	cbz	r0, 80025f8 <cmox_ecdsa_verify+0xa8>
 80025f4:	462e      	mov	r6, r5
 80025f6:	e04d      	b.n	8002694 <cmox_ecdsa_verify+0x144>
 80025f8:	980f      	ldr	r0, [sp, #60]	; 0x3c
 80025fa:	6801      	ldr	r1, [r0, #0]
 80025fc:	688a      	ldr	r2, [r1, #8]
 80025fe:	6812      	ldr	r2, [r2, #0]
 8002600:	a904      	add	r1, sp, #16
 8002602:	4620      	mov	r0, r4
 8002604:	f002 fe0e 	bl	8005224 <cmox_bn_alloc>
 8002608:	b108      	cbz	r0, 800260e <cmox_ecdsa_verify+0xbe>
 800260a:	462e      	mov	r6, r5
 800260c:	e03e      	b.n	800268c <cmox_ecdsa_verify+0x13c>
 800260e:	980f      	ldr	r0, [sp, #60]	; 0x3c
 8002610:	6801      	ldr	r1, [r0, #0]
 8002612:	688a      	ldr	r2, [r1, #8]
 8002614:	6812      	ldr	r2, [r2, #0]
 8002616:	a908      	add	r1, sp, #32
 8002618:	4620      	mov	r0, r4
 800261a:	f002 fe03 	bl	8005224 <cmox_bn_alloc>
 800261e:	2800      	cmp	r0, #0
 8002620:	f040 8088 	bne.w	8002734 <cmox_ecdsa_verify+0x1e4>
 8002624:	9a05      	ldr	r2, [sp, #20]
 8002626:	4651      	mov	r1, sl
 8002628:	eb08 000a 	add.w	r0, r8, sl
 800262c:	f002 ff5c 	bl	80054e8 <cmox_bn_fromU8BE>
 8002630:	9805      	ldr	r0, [sp, #20]
 8002632:	2100      	movs	r1, #0
 8002634:	f002 feba 	bl	80053ac <cmox_bn_cmpUint>
 8002638:	2801      	cmp	r0, #1
 800263a:	d007      	beq.n	800264c <cmox_ecdsa_verify+0xfc>
 800263c:	980f      	ldr	r0, [sp, #60]	; 0x3c
 800263e:	6801      	ldr	r1, [r0, #0]
 8002640:	9805      	ldr	r0, [sp, #20]
 8002642:	6889      	ldr	r1, [r1, #8]
 8002644:	f002 fe71 	bl	800532a <cmox_bn_cmp>
 8002648:	2800      	cmp	r0, #0
 800264a:	d401      	bmi.n	8002650 <cmox_ecdsa_verify+0x100>
 800264c:	4e75      	ldr	r6, [pc, #468]	; (8002824 <cmox_ecdsa_verify+0x2d4>)
 800264e:	e015      	b.n	800267c <cmox_ecdsa_verify+0x12c>
 8002650:	a809      	add	r0, sp, #36	; 0x24
 8002652:	f7fe f8f1 	bl	8000838 <cmox_ECC_InitCurveModDomainN>
 8002656:	b108      	cbz	r0, 800265c <cmox_ecdsa_verify+0x10c>
 8002658:	462e      	mov	r6, r5
 800265a:	e00f      	b.n	800267c <cmox_ecdsa_verify+0x12c>
 800265c:	9a11      	ldr	r2, [sp, #68]	; 0x44
 800265e:	9805      	ldr	r0, [sp, #20]
 8002660:	a909      	add	r1, sp, #36	; 0x24
 8002662:	f000 ff64 	bl	800352e <cmox_ModularBN_Enter>
 8002666:	9b04      	ldr	r3, [sp, #16]
 8002668:	9a08      	ldr	r2, [sp, #32]
 800266a:	9905      	ldr	r1, [sp, #20]
 800266c:	a809      	add	r0, sp, #36	; 0x24
 800266e:	f7fe f89f 	bl	80007b0 <cmox_ECC_InvertModN>
 8002672:	b198      	cbz	r0, 800269c <cmox_ecdsa_verify+0x14c>
 8002674:	462e      	mov	r6, r5
 8002676:	a809      	add	r0, sp, #36	; 0x24
 8002678:	f7fe f8e6 	bl	8000848 <cmox_ECC_DeInitCurveModDomain>
 800267c:	a908      	add	r1, sp, #32
 800267e:	4620      	mov	r0, r4
 8002680:	f002 fddb 	bl	800523a <cmox_bn_free>
 8002684:	a904      	add	r1, sp, #16
 8002686:	4620      	mov	r0, r4
 8002688:	f002 fdd7 	bl	800523a <cmox_bn_free>
 800268c:	a905      	add	r1, sp, #20
 800268e:	4620      	mov	r0, r4
 8002690:	f002 fdd3 	bl	800523a <cmox_bn_free>
 8002694:	4630      	mov	r0, r6
 8002696:	b013      	add	sp, #76	; 0x4c
 8002698:	e8bd 8ff0 	ldmia.w	sp!, {r4, r5, r6, r7, r8, r9, sl, fp, pc}
 800269c:	991d      	ldr	r1, [sp, #116]	; 0x74
 800269e:	9a04      	ldr	r2, [sp, #16]
 80026a0:	ebb9 0fc1 	cmp.w	r9, r1, lsl #3
 80026a4:	d20b      	bcs.n	80026be <cmox_ecdsa_verify+0x16e>
 80026a6:	4651      	mov	r1, sl
 80026a8:	4638      	mov	r0, r7
 80026aa:	f002 ff1d 	bl	80054e8 <cmox_bn_fromU8BE>
 80026ae:	9a04      	ldr	r2, [sp, #16]
 80026b0:	ebc9 09ca 	rsb	r9, r9, sl, lsl #3
 80026b4:	4649      	mov	r1, r9
 80026b6:	4610      	mov	r0, r2
 80026b8:	f000 fcb3 	bl	8003022 <cmox_RightShiftBN>
 80026bc:	e002      	b.n	80026c4 <cmox_ecdsa_verify+0x174>
 80026be:	4638      	mov	r0, r7
 80026c0:	f002 ff12 	bl	80054e8 <cmox_bn_fromU8BE>
 80026c4:	980f      	ldr	r0, [sp, #60]	; 0x3c
 80026c6:	6801      	ldr	r1, [r0, #0]
 80026c8:	9b04      	ldr	r3, [sp, #16]
 80026ca:	6889      	ldr	r1, [r1, #8]
 80026cc:	460a      	mov	r2, r1
 80026ce:	4618      	mov	r0, r3
 80026d0:	f000 fd63 	bl	800319a <cmox_ModSubBN>
 80026d4:	9811      	ldr	r0, [sp, #68]	; 0x44
 80026d6:	9a04      	ldr	r2, [sp, #16]
 80026d8:	9908      	ldr	r1, [sp, #32]
 80026da:	9000      	str	r0, [sp, #0]
 80026dc:	ab09      	add	r3, sp, #36	; 0x24
 80026de:	4610      	mov	r0, r2
 80026e0:	f000 ff4f 	bl	8003582 <cmox_ModularBN_Mul>
 80026e4:	9a05      	ldr	r2, [sp, #20]
 80026e6:	4651      	mov	r1, sl
 80026e8:	4640      	mov	r0, r8
 80026ea:	f002 fefd 	bl	80054e8 <cmox_bn_fromU8BE>
 80026ee:	9805      	ldr	r0, [sp, #20]
 80026f0:	2100      	movs	r1, #0
 80026f2:	f002 fe5b 	bl	80053ac <cmox_bn_cmpUint>
 80026f6:	2801      	cmp	r0, #1
 80026f8:	d007      	beq.n	800270a <cmox_ecdsa_verify+0x1ba>
 80026fa:	980f      	ldr	r0, [sp, #60]	; 0x3c
 80026fc:	6801      	ldr	r1, [r0, #0]
 80026fe:	9805      	ldr	r0, [sp, #20]
 8002700:	6889      	ldr	r1, [r1, #8]
 8002702:	f002 fe12 	bl	800532a <cmox_bn_cmp>
 8002706:	2800      	cmp	r0, #0
 8002708:	d401      	bmi.n	800270e <cmox_ecdsa_verify+0x1be>
 800270a:	4e46      	ldr	r6, [pc, #280]	; (8002824 <cmox_ecdsa_verify+0x2d4>)
 800270c:	e7b3      	b.n	8002676 <cmox_ecdsa_verify+0x126>
 800270e:	9811      	ldr	r0, [sp, #68]	; 0x44
 8002710:	9a05      	ldr	r2, [sp, #20]
 8002712:	9908      	ldr	r1, [sp, #32]
 8002714:	9000      	str	r0, [sp, #0]
 8002716:	ab09      	add	r3, sp, #36	; 0x24
 8002718:	4610      	mov	r0, r2
 800271a:	f000 ff32 	bl	8003582 <cmox_ModularBN_Mul>
 800271e:	a809      	add	r0, sp, #36	; 0x24
 8002720:	f7fe f892 	bl	8000848 <cmox_ECC_DeInitCurveModDomain>
 8002724:	a908      	add	r1, sp, #32
 8002726:	4620      	mov	r0, r4
 8002728:	f002 fd87 	bl	800523a <cmox_bn_free>
 800272c:	a809      	add	r0, sp, #36	; 0x24
 800272e:	f7fe f87b 	bl	8000828 <cmox_ECC_InitCurveModDomainP>
 8002732:	b108      	cbz	r0, 8002738 <cmox_ecdsa_verify+0x1e8>
 8002734:	462e      	mov	r6, r5
 8002736:	e7a5      	b.n	8002684 <cmox_ecdsa_verify+0x134>
 8002738:	a907      	add	r1, sp, #28
 800273a:	a809      	add	r0, sp, #36	; 0x24
 800273c:	f7fe f887 	bl	800084e <cmox_ECC_AllocPoint>
 8002740:	b108      	cbz	r0, 8002746 <cmox_ecdsa_verify+0x1f6>
 8002742:	462e      	mov	r6, r5
 8002744:	e05f      	b.n	8002806 <cmox_ecdsa_verify+0x2b6>
 8002746:	a906      	add	r1, sp, #24
 8002748:	a809      	add	r0, sp, #36	; 0x24
 800274a:	f7fe f880 	bl	800084e <cmox_ECC_AllocPoint>
 800274e:	b108      	cbz	r0, 8002754 <cmox_ecdsa_verify+0x204>
 8002750:	462e      	mov	r6, r5
 8002752:	e054      	b.n	80027fe <cmox_ecdsa_verify+0x2ae>
 8002754:	9806      	ldr	r0, [sp, #24]
 8002756:	6802      	ldr	r2, [r0, #0]
 8002758:	4659      	mov	r1, fp
 800275a:	4630      	mov	r0, r6
 800275c:	f002 fec4 	bl	80054e8 <cmox_bn_fromU8BE>
 8002760:	9806      	ldr	r0, [sp, #24]
 8002762:	6842      	ldr	r2, [r0, #4]
 8002764:	4659      	mov	r1, fp
 8002766:	eb06 000b 	add.w	r0, r6, fp
 800276a:	f002 febd 	bl	80054e8 <cmox_bn_fromU8BE>
 800276e:	9806      	ldr	r0, [sp, #24]
 8002770:	6880      	ldr	r0, [r0, #8]
 8002772:	2101      	movs	r1, #1
 8002774:	f002 fd8d 	bl	8005292 <cmox_bn_init>
 8002778:	9806      	ldr	r0, [sp, #24]
 800277a:	6901      	ldr	r1, [r0, #16]
 800277c:	f041 0102 	orr.w	r1, r1, #2
 8002780:	6101      	str	r1, [r0, #16]
 8002782:	a809      	add	r0, sp, #36	; 0x24
 8002784:	9e0f      	ldr	r6, [sp, #60]	; 0x3c
 8002786:	9907      	ldr	r1, [sp, #28]
 8002788:	9b04      	ldr	r3, [sp, #16]
 800278a:	9a06      	ldr	r2, [sp, #24]
 800278c:	9100      	str	r1, [sp, #0]
 800278e:	6977      	ldr	r7, [r6, #20]
 8002790:	9905      	ldr	r1, [sp, #20]
 8002792:	f8d7 c000 	ldr.w	ip, [r7]
 8002796:	47e0      	blx	ip
 8002798:	b118      	cbz	r0, 80027a2 <cmox_ecdsa_verify+0x252>
 800279a:	2804      	cmp	r0, #4
 800279c:	d110      	bne.n	80027c0 <cmox_ecdsa_verify+0x270>
 800279e:	4e22      	ldr	r6, [pc, #136]	; (8002828 <cmox_ecdsa_verify+0x2d8>)
 80027a0:	e029      	b.n	80027f6 <cmox_ecdsa_verify+0x2a6>
 80027a2:	9807      	ldr	r0, [sp, #28]
 80027a4:	4e21      	ldr	r6, [pc, #132]	; (800282c <cmox_ecdsa_verify+0x2dc>)
 80027a6:	7c00      	ldrb	r0, [r0, #16]
 80027a8:	2100      	movs	r1, #0
 80027aa:	f000 0001 	and.w	r0, r0, #1
 80027ae:	f000 ff4c 	bl	800364a <cmox_mathUtils_neq>
 80027b2:	2801      	cmp	r0, #1
 80027b4:	d01f      	beq.n	80027f6 <cmox_ecdsa_verify+0x2a6>
 80027b6:	9907      	ldr	r1, [sp, #28]
 80027b8:	a809      	add	r0, sp, #36	; 0x24
 80027ba:	f7fe fafb 	bl	8000db4 <cmox_ECC_PointToAffine>
 80027be:	b108      	cbz	r0, 80027c4 <cmox_ecdsa_verify+0x274>
 80027c0:	462e      	mov	r6, r5
 80027c2:	e018      	b.n	80027f6 <cmox_ecdsa_verify+0x2a6>
 80027c4:	980f      	ldr	r0, [sp, #60]	; 0x3c
 80027c6:	6801      	ldr	r1, [r0, #0]
 80027c8:	9807      	ldr	r0, [sp, #28]
 80027ca:	6889      	ldr	r1, [r1, #8]
 80027cc:	9b04      	ldr	r3, [sp, #16]
 80027ce:	6800      	ldr	r0, [r0, #0]
 80027d0:	460a      	mov	r2, r1
 80027d2:	f000 fce2 	bl	800319a <cmox_ModSubBN>
 80027d6:	9820      	ldr	r0, [sp, #128]	; 0x80
 80027d8:	4a15      	ldr	r2, [pc, #84]	; (8002830 <cmox_ecdsa_verify+0x2e0>)
 80027da:	4916      	ldr	r1, [pc, #88]	; (8002834 <cmox_ecdsa_verify+0x2e4>)
 80027dc:	6813      	ldr	r3, [r2, #0]
 80027de:	9003      	str	r0, [sp, #12]
 80027e0:	9300      	str	r3, [sp, #0]
 80027e2:	9602      	str	r6, [sp, #8]
 80027e4:	9101      	str	r1, [sp, #4]
 80027e6:	4651      	mov	r1, sl
 80027e8:	9804      	ldr	r0, [sp, #16]
 80027ea:	6803      	ldr	r3, [r0, #0]
 80027ec:	1d02      	adds	r2, r0, #4
 80027ee:	4640      	mov	r0, r8
 80027f0:	f002 fb3a 	bl	8004e68 <cmox_utils_robustCmp>
 80027f4:	4606      	mov	r6, r0
 80027f6:	a906      	add	r1, sp, #24
 80027f8:	a809      	add	r0, sp, #36	; 0x24
 80027fa:	f7fe f884 	bl	8000906 <cmox_ECC_FreePoint>
 80027fe:	a907      	add	r1, sp, #28
 8002800:	a809      	add	r0, sp, #36	; 0x24
 8002802:	f7fe f880 	bl	8000906 <cmox_ECC_FreePoint>
 8002806:	a809      	add	r0, sp, #36	; 0x24
 8002808:	f7fe f81e 	bl	8000848 <cmox_ECC_DeInitCurveModDomain>
 800280c:	e73a      	b.n	8002684 <cmox_ecdsa_verify+0x134>
 800280e:	bf00      	nop
 8002810:	5e1caffe 	.word	0x5e1caffe
 8002814:	0006000e 	.word	0x0006000e
 8002818:	0006000f 	.word	0x0006000f
 800281c:	00060003 	.word	0x00060003
 8002820:	0006000c 	.word	0x0006000c
 8002824:	00060009 	.word	0x00060009
 8002828:	00060008 	.word	0x00060008
 800282c:	00066e93 	.word	0x00066e93
 8002830:	080098bc 	.word	0x080098bc
 8002834:	0006c726 	.word	0x0006c726

08002838 <CMOX_GCMFAST_DEC_AESFAST_IMPL>:
 8002838:	08002eb1 080098c8                       ........

08002840 <cmox_gcmFast_decrypt>:
 8002840:	b5f0      	push	{r4, r5, r6, r7, lr}
 8002842:	f5ad 6d10 	sub.w	sp, sp, #2304	; 0x900
 8002846:	b097      	sub	sp, #92	; 0x5c
 8002848:	4604      	mov	r4, r0
 800284a:	460d      	mov	r5, r1
 800284c:	4616      	mov	r6, r2
 800284e:	461f      	mov	r7, r3
 8002850:	4912      	ldr	r1, [pc, #72]	; (800289c <cmox_gcmFast_decrypt+0x5c>)
 8002852:	a809      	add	r0, sp, #36	; 0x24
 8002854:	f000 fabd 	bl	8002dd2 <cmox_gcmFast_construct>
 8002858:	f8dd 198c 	ldr.w	r1, [sp, #2444]	; 0x98c
 800285c:	f8dd 2988 	ldr.w	r2, [sp, #2440]	; 0x988
 8002860:	9108      	str	r1, [sp, #32]
 8002862:	9207      	str	r2, [sp, #28]
 8002864:	9700      	str	r7, [sp, #0]
 8002866:	f8dd 1984 	ldr.w	r1, [sp, #2436]	; 0x984
 800286a:	f8dd 2980 	ldr.w	r2, [sp, #2432]	; 0x980
 800286e:	9106      	str	r1, [sp, #24]
 8002870:	9205      	str	r2, [sp, #20]
 8002872:	4633      	mov	r3, r6
 8002874:	f8dd 197c 	ldr.w	r1, [sp, #2428]	; 0x97c
 8002878:	f8dd 2978 	ldr.w	r2, [sp, #2424]	; 0x978
 800287c:	9104      	str	r1, [sp, #16]
 800287e:	9203      	str	r2, [sp, #12]
 8002880:	f8dd 1974 	ldr.w	r1, [sp, #2420]	; 0x974
 8002884:	f8dd 2970 	ldr.w	r2, [sp, #2416]	; 0x970
 8002888:	9102      	str	r1, [sp, #8]
 800288a:	9201      	str	r2, [sp, #4]
 800288c:	4621      	mov	r1, r4
 800288e:	462a      	mov	r2, r5
 8002890:	f7fd fd46 	bl	8000320 <cmox_aead_innerDecrypt>
 8002894:	f50d 6d10 	add.w	sp, sp, #2304	; 0x900
 8002898:	b017      	add	sp, #92	; 0x5c
 800289a:	bdf0      	pop	{r4, r5, r6, r7, pc}
 800289c:	08002838 	.word	0x08002838

080028a0 <gfmulFast>:
 80028a0:	e92d 42f0 	stmdb	sp!, {r4, r5, r6, r7, r9, lr}
 80028a4:	b090      	sub	sp, #64	; 0x40
 80028a6:	4607      	mov	r7, r0
 80028a8:	2000      	movs	r0, #0
 80028aa:	460d      	mov	r5, r1
 80028ac:	4691      	mov	r9, r2
 80028ae:	9000      	str	r0, [sp, #0]
 80028b0:	9001      	str	r0, [sp, #4]
 80028b2:	9002      	str	r0, [sp, #8]
 80028b4:	9003      	str	r0, [sp, #12]
 80028b6:	9004      	str	r0, [sp, #16]
 80028b8:	9005      	str	r0, [sp, #20]
 80028ba:	9006      	str	r0, [sp, #24]
 80028bc:	9007      	str	r0, [sp, #28]
 80028be:	9008      	str	r0, [sp, #32]
 80028c0:	9009      	str	r0, [sp, #36]	; 0x24
 80028c2:	900a      	str	r0, [sp, #40]	; 0x28
 80028c4:	900b      	str	r0, [sp, #44]	; 0x2c
 80028c6:	900c      	str	r0, [sp, #48]	; 0x30
 80028c8:	900d      	str	r0, [sp, #52]	; 0x34
 80028ca:	900e      	str	r0, [sp, #56]	; 0x38
 80028cc:	900f      	str	r0, [sp, #60]	; 0x3c
 80028ce:	2404      	movs	r4, #4
 80028d0:	683e      	ldr	r6, [r7, #0]
 80028d2:	0e36      	lsrs	r6, r6, #24
 80028d4:	f505 6380 	add.w	r3, r5, #1024	; 0x400
 80028d8:	f006 000f 	and.w	r0, r6, #15
 80028dc:	eb03 1100 	add.w	r1, r3, r0, lsl #4
 80028e0:	466a      	mov	r2, sp
 80028e2:	4668      	mov	r0, sp
 80028e4:	f002 fe8f 	bl	8005606 <poly_xor>
 80028e8:	f026 060f 	bic.w	r6, r6, #15
 80028ec:	466a      	mov	r2, sp
 80028ee:	19a9      	adds	r1, r5, r6
 80028f0:	4668      	mov	r0, sp
 80028f2:	f002 fe88 	bl	8005606 <poly_xor>
 80028f6:	683e      	ldr	r6, [r7, #0]
 80028f8:	0236      	lsls	r6, r6, #8
 80028fa:	0e36      	lsrs	r6, r6, #24
 80028fc:	f505 6080 	add.w	r0, r5, #1024	; 0x400
 8002900:	f006 010f 	and.w	r1, r6, #15
 8002904:	eb00 1101 	add.w	r1, r0, r1, lsl #4
 8002908:	aa04      	add	r2, sp, #16
 800290a:	a804      	add	r0, sp, #16
 800290c:	f002 fe7b 	bl	8005606 <poly_xor>
 8002910:	f026 060f 	bic.w	r6, r6, #15
 8002914:	aa04      	add	r2, sp, #16
 8002916:	19a9      	adds	r1, r5, r6
 8002918:	a804      	add	r0, sp, #16
 800291a:	f002 fe74 	bl	8005606 <poly_xor>
 800291e:	683e      	ldr	r6, [r7, #0]
 8002920:	0436      	lsls	r6, r6, #16
 8002922:	0e36      	lsrs	r6, r6, #24
 8002924:	f505 6080 	add.w	r0, r5, #1024	; 0x400
 8002928:	f006 010f 	and.w	r1, r6, #15
 800292c:	eb00 1101 	add.w	r1, r0, r1, lsl #4
 8002930:	aa08      	add	r2, sp, #32
 8002932:	a808      	add	r0, sp, #32
 8002934:	f002 fe67 	bl	8005606 <poly_xor>
 8002938:	f026 060f 	bic.w	r6, r6, #15
 800293c:	aa08      	add	r2, sp, #32
 800293e:	19a9      	adds	r1, r5, r6
 8002940:	a808      	add	r0, sp, #32
 8002942:	f002 fe60 	bl	8005606 <poly_xor>
 8002946:	f857 6b04 	ldr.w	r6, [r7], #4
 800294a:	b2f6      	uxtb	r6, r6
 800294c:	f505 6080 	add.w	r0, r5, #1024	; 0x400
 8002950:	f006 010f 	and.w	r1, r6, #15
 8002954:	eb00 1101 	add.w	r1, r0, r1, lsl #4
 8002958:	aa0c      	add	r2, sp, #48	; 0x30
 800295a:	a80c      	add	r0, sp, #48	; 0x30
 800295c:	f002 fe53 	bl	8005606 <poly_xor>
 8002960:	f026 060f 	bic.w	r6, r6, #15
 8002964:	aa0c      	add	r2, sp, #48	; 0x30
 8002966:	19a9      	adds	r1, r5, r6
 8002968:	a80c      	add	r0, sp, #48	; 0x30
 800296a:	f002 fe4c 	bl	8005606 <poly_xor>
 800296e:	1e64      	subs	r4, r4, #1
 8002970:	f505 7580 	add.w	r5, r5, #256	; 0x100
 8002974:	d1ac      	bne.n	80028d0 <gfmulFast+0x30>
 8002976:	990e      	ldr	r1, [sp, #56]	; 0x38
 8002978:	980f      	ldr	r0, [sp, #60]	; 0x3c
 800297a:	4c2e      	ldr	r4, [pc, #184]	; (8002a34 <gfmulFast+0x194>)
 800297c:	060a      	lsls	r2, r1, #24
 800297e:	ea42 2210 	orr.w	r2, r2, r0, lsr #8
 8002982:	920f      	str	r2, [sp, #60]	; 0x3c
 8002984:	f000 00ff 	and.w	r0, r0, #255	; 0xff
 8002988:	9a0d      	ldr	r2, [sp, #52]	; 0x34
 800298a:	0613      	lsls	r3, r2, #24
 800298c:	ea43 2311 	orr.w	r3, r3, r1, lsr #8
 8002990:	930e      	str	r3, [sp, #56]	; 0x38
 8002992:	990c      	ldr	r1, [sp, #48]	; 0x30
 8002994:	060b      	lsls	r3, r1, #24
 8002996:	ea43 2312 	orr.w	r3, r3, r2, lsr #8
 800299a:	930d      	str	r3, [sp, #52]	; 0x34
 800299c:	aa08      	add	r2, sp, #32
 800299e:	f834 0010 	ldrh.w	r0, [r4, r0, lsl #1]
 80029a2:	0400      	lsls	r0, r0, #16
 80029a4:	ea80 2011 	eor.w	r0, r0, r1, lsr #8
 80029a8:	900c      	str	r0, [sp, #48]	; 0x30
 80029aa:	a90c      	add	r1, sp, #48	; 0x30
 80029ac:	a808      	add	r0, sp, #32
 80029ae:	f002 fe2a 	bl	8005606 <poly_xor>
 80029b2:	990a      	ldr	r1, [sp, #40]	; 0x28
 80029b4:	980b      	ldr	r0, [sp, #44]	; 0x2c
 80029b6:	060a      	lsls	r2, r1, #24
 80029b8:	ea42 2210 	orr.w	r2, r2, r0, lsr #8
 80029bc:	920b      	str	r2, [sp, #44]	; 0x2c
 80029be:	f000 00ff 	and.w	r0, r0, #255	; 0xff
 80029c2:	9a09      	ldr	r2, [sp, #36]	; 0x24
 80029c4:	0613      	lsls	r3, r2, #24
 80029c6:	ea43 2311 	orr.w	r3, r3, r1, lsr #8
 80029ca:	930a      	str	r3, [sp, #40]	; 0x28
 80029cc:	9908      	ldr	r1, [sp, #32]
 80029ce:	060b      	lsls	r3, r1, #24
 80029d0:	ea43 2312 	orr.w	r3, r3, r2, lsr #8
 80029d4:	9309      	str	r3, [sp, #36]	; 0x24
 80029d6:	aa04      	add	r2, sp, #16
 80029d8:	f834 0010 	ldrh.w	r0, [r4, r0, lsl #1]
 80029dc:	0400      	lsls	r0, r0, #16
 80029de:	ea80 2011 	eor.w	r0, r0, r1, lsr #8
 80029e2:	9008      	str	r0, [sp, #32]
 80029e4:	a908      	add	r1, sp, #32
 80029e6:	a804      	add	r0, sp, #16
 80029e8:	f002 fe0d 	bl	8005606 <poly_xor>
 80029ec:	9906      	ldr	r1, [sp, #24]
 80029ee:	9807      	ldr	r0, [sp, #28]
 80029f0:	060a      	lsls	r2, r1, #24
 80029f2:	ea42 2210 	orr.w	r2, r2, r0, lsr #8
 80029f6:	9207      	str	r2, [sp, #28]
 80029f8:	f000 00ff 	and.w	r0, r0, #255	; 0xff
 80029fc:	9a05      	ldr	r2, [sp, #20]
 80029fe:	0613      	lsls	r3, r2, #24
 8002a00:	ea43 2311 	orr.w	r3, r3, r1, lsr #8
 8002a04:	9306      	str	r3, [sp, #24]
 8002a06:	9904      	ldr	r1, [sp, #16]
 8002a08:	060b      	lsls	r3, r1, #24
 8002a0a:	ea43 2312 	orr.w	r3, r3, r2, lsr #8
 8002a0e:	9305      	str	r3, [sp, #20]
 8002a10:	466a      	mov	r2, sp
 8002a12:	f834 0010 	ldrh.w	r0, [r4, r0, lsl #1]
 8002a16:	0400      	lsls	r0, r0, #16
 8002a18:	ea80 2011 	eor.w	r0, r0, r1, lsr #8
 8002a1c:	9004      	str	r0, [sp, #16]
 8002a1e:	a904      	add	r1, sp, #16
 8002a20:	4668      	mov	r0, sp
 8002a22:	f002 fdf0 	bl	8005606 <poly_xor>
 8002a26:	4649      	mov	r1, r9
 8002a28:	4668      	mov	r0, sp
 8002a2a:	f002 fdfe 	bl	800562a <poly_copy>
 8002a2e:	b010      	add	sp, #64	; 0x40
 8002a30:	e8bd 82f0 	ldmia.w	sp!, {r4, r5, r6, r7, r9, pc}
 8002a34:	08009514 	.word	0x08009514

08002a38 <cmox_gcmFast_cleanup>:
 8002a38:	b510      	push	{r4, lr}
 8002a3a:	6802      	ldr	r2, [r0, #0]
 8002a3c:	428a      	cmp	r2, r1
 8002a3e:	f44f 3480 	mov.w	r4, #65536	; 0x10000
 8002a42:	d100      	bne.n	8002a46 <cmox_gcmFast_cleanup+0xe>
 8002a44:	b910      	cbnz	r0, 8002a4c <cmox_gcmFast_cleanup+0x14>
 8002a46:	4c04      	ldr	r4, [pc, #16]	; (8002a58 <cmox_gcmFast_cleanup+0x20>)
 8002a48:	4620      	mov	r0, r4
 8002a4a:	bd10      	pop	{r4, pc}
 8002a4c:	f640 1134 	movw	r1, #2356	; 0x934
 8002a50:	f006 fc1c 	bl	800928c <__aeabi_memclr>
 8002a54:	4620      	mov	r0, r4
 8002a56:	bd10      	pop	{r4, pc}
 8002a58:	00010003 	.word	0x00010003

08002a5c <cmox_gcmFast_init>:
 8002a5c:	b500      	push	{lr}
 8002a5e:	b081      	sub	sp, #4
 8002a60:	6802      	ldr	r2, [r0, #0]
 8002a62:	428a      	cmp	r2, r1
 8002a64:	d101      	bne.n	8002a6a <cmox_gcmFast_init+0xe>
 8002a66:	0001      	movs	r1, r0
 8002a68:	d102      	bne.n	8002a70 <cmox_gcmFast_init+0x14>
 8002a6a:	4805      	ldr	r0, [pc, #20]	; (8002a80 <cmox_gcmFast_init+0x24>)
 8002a6c:	b001      	add	sp, #4
 8002a6e:	bd00      	pop	{pc}
 8002a70:	f100 0108 	add.w	r1, r0, #8
 8002a74:	f002 fe30 	bl	80056d8 <cmox_gcm_initCommon>
 8002a78:	f44f 3080 	mov.w	r0, #65536	; 0x10000
 8002a7c:	b001      	add	sp, #4
 8002a7e:	bd00      	pop	{pc}
 8002a80:	00010003 	.word	0x00010003

08002a84 <cmox_gcmFast_setKey>:
 8002a84:	e92d 47f0 	stmdb	sp!, {r4, r5, r6, r7, r8, r9, sl, lr}
 8002a88:	4680      	mov	r8, r0
 8002a8a:	b084      	sub	sp, #16
 8002a8c:	f8d8 0000 	ldr.w	r0, [r8]
 8002a90:	4298      	cmp	r0, r3
 8002a92:	d102      	bne.n	8002a9a <cmox_gcmFast_setKey+0x16>
 8002a94:	f1b8 0f00 	cmp.w	r8, #0
 8002a98:	d104      	bne.n	8002aa4 <cmox_gcmFast_setKey+0x20>
 8002a9a:	4d9f      	ldr	r5, [pc, #636]	; (8002d18 <cmox_gcmFast_setKey+0x294>)
 8002a9c:	4628      	mov	r0, r5
 8002a9e:	b004      	add	sp, #16
 8002aa0:	e8bd 87f0 	ldmia.w	sp!, {r4, r5, r6, r7, r8, r9, sl, pc}
 8002aa4:	f108 0008 	add.w	r0, r8, #8
 8002aa8:	f7fd fc6e 	bl	8000388 <cmox_cipherMode_setKey>
 8002aac:	4605      	mov	r5, r0
 8002aae:	f5b5 3f80 	cmp.w	r5, #65536	; 0x10000
 8002ab2:	f040 812d 	bne.w	8002d10 <cmox_gcmFast_setKey+0x28c>
 8002ab6:	4668      	mov	r0, sp
 8002ab8:	2100      	movs	r1, #0
 8002aba:	2200      	movs	r2, #0
 8002abc:	2300      	movs	r3, #0
 8002abe:	2400      	movs	r4, #0
 8002ac0:	e880 001e 	stmia.w	r0, {r1, r2, r3, r4}
 8002ac4:	f8d8 3008 	ldr.w	r3, [r8, #8]
 8002ac8:	681c      	ldr	r4, [r3, #0]
 8002aca:	466a      	mov	r2, sp
 8002acc:	4669      	mov	r1, sp
 8002ace:	f108 0008 	add.w	r0, r8, #8
 8002ad2:	47a0      	blx	r4
 8002ad4:	f508 71da 	add.w	r1, r8, #436	; 0x1b4
 8002ad8:	4668      	mov	r0, sp
 8002ada:	f002 fda6 	bl	800562a <poly_copy>
 8002ade:	2404      	movs	r4, #4
 8002ae0:	f508 709a 	add.w	r0, r8, #308	; 0x134
 8002ae4:	eb00 1104 	add.w	r1, r0, r4, lsl #4
 8002ae8:	f508 729a 	add.w	r2, r8, #308	; 0x134
 8002aec:	eb02 1044 	add.w	r0, r2, r4, lsl #5
 8002af0:	f002 fda4 	bl	800563c <gfmul_x>
 8002af4:	0864      	lsrs	r4, r4, #1
 8002af6:	d1f3      	bne.n	8002ae0 <cmox_gcmFast_setKey+0x5c>
 8002af8:	f04f 0902 	mov.w	r9, #2
 8002afc:	e003      	b.n	8002b06 <cmox_gcmFast_setKey+0x82>
 8002afe:	bf00      	nop
 8002b00:	f1b9 0f01 	cmp.w	r9, #1
 8002b04:	d914      	bls.n	8002b30 <cmox_gcmFast_setKey+0xac>
 8002b06:	eb08 1109 	add.w	r1, r8, r9, lsl #4
 8002b0a:	f501 76a2 	add.w	r6, r1, #324	; 0x144
 8002b0e:	f508 719a 	add.w	r1, r8, #308	; 0x134
 8002b12:	f508 77a2 	add.w	r7, r8, #324	; 0x144
 8002b16:	f1a9 0401 	sub.w	r4, r9, #1
 8002b1a:	eb01 1a09 	add.w	sl, r1, r9, lsl #4
 8002b1e:	4632      	mov	r2, r6
 8002b20:	4639      	mov	r1, r7
 8002b22:	4650      	mov	r0, sl
 8002b24:	f002 fd6f 	bl	8005606 <poly_xor>
 8002b28:	3710      	adds	r7, #16
 8002b2a:	3610      	adds	r6, #16
 8002b2c:	1e64      	subs	r4, r4, #1
 8002b2e:	d1f6      	bne.n	8002b1e <cmox_gcmFast_setKey+0x9a>
 8002b30:	ea4f 0949 	mov.w	r9, r9, lsl #1
 8002b34:	f1b9 0f09 	cmp.w	r9, #9
 8002b38:	d3e2      	bcc.n	8002b00 <cmox_gcmFast_setKey+0x7c>
 8002b3a:	2000      	movs	r0, #0
 8002b3c:	f8c8 0134 	str.w	r0, [r8, #308]	; 0x134
 8002b40:	f8c8 0138 	str.w	r0, [r8, #312]	; 0x138
 8002b44:	f8c8 013c 	str.w	r0, [r8, #316]	; 0x13c
 8002b48:	f8c8 0140 	str.w	r0, [r8, #320]	; 0x140
 8002b4c:	f208 5134 	addw	r1, r8, #1332	; 0x534
 8002b50:	f508 709a 	add.w	r0, r8, #308	; 0x134
 8002b54:	f002 fd90 	bl	8005678 <gfmul_x4>
 8002b58:	f208 5144 	addw	r1, r8, #1348	; 0x544
 8002b5c:	f508 70a2 	add.w	r0, r8, #324	; 0x144
 8002b60:	f002 fd8a 	bl	8005678 <gfmul_x4>
 8002b64:	f208 5154 	addw	r1, r8, #1364	; 0x554
 8002b68:	f508 70aa 	add.w	r0, r8, #340	; 0x154
 8002b6c:	f002 fd84 	bl	8005678 <gfmul_x4>
 8002b70:	f208 5164 	addw	r1, r8, #1380	; 0x564
 8002b74:	f508 70b2 	add.w	r0, r8, #356	; 0x164
 8002b78:	f002 fd7e 	bl	8005678 <gfmul_x4>
 8002b7c:	f208 5174 	addw	r1, r8, #1396	; 0x574
 8002b80:	f508 70ba 	add.w	r0, r8, #372	; 0x174
 8002b84:	f002 fd78 	bl	8005678 <gfmul_x4>
 8002b88:	f208 5184 	addw	r1, r8, #1412	; 0x584
 8002b8c:	f508 70c2 	add.w	r0, r8, #388	; 0x184
 8002b90:	f002 fd72 	bl	8005678 <gfmul_x4>
 8002b94:	f208 5194 	addw	r1, r8, #1428	; 0x594
 8002b98:	f508 70ca 	add.w	r0, r8, #404	; 0x194
 8002b9c:	f002 fd6c 	bl	8005678 <gfmul_x4>
 8002ba0:	f208 51a4 	addw	r1, r8, #1444	; 0x5a4
 8002ba4:	f508 70d2 	add.w	r0, r8, #420	; 0x1a4
 8002ba8:	f002 fd66 	bl	8005678 <gfmul_x4>
 8002bac:	f208 51b4 	addw	r1, r8, #1460	; 0x5b4
 8002bb0:	f508 70da 	add.w	r0, r8, #436	; 0x1b4
 8002bb4:	f002 fd60 	bl	8005678 <gfmul_x4>
 8002bb8:	f208 51c4 	addw	r1, r8, #1476	; 0x5c4
 8002bbc:	f508 70e2 	add.w	r0, r8, #452	; 0x1c4
 8002bc0:	f002 fd5a 	bl	8005678 <gfmul_x4>
 8002bc4:	f208 51d4 	addw	r1, r8, #1492	; 0x5d4
 8002bc8:	f508 70ea 	add.w	r0, r8, #468	; 0x1d4
 8002bcc:	f002 fd54 	bl	8005678 <gfmul_x4>
 8002bd0:	f208 51e4 	addw	r1, r8, #1508	; 0x5e4
 8002bd4:	f508 70f2 	add.w	r0, r8, #484	; 0x1e4
 8002bd8:	f002 fd4e 	bl	8005678 <gfmul_x4>
 8002bdc:	f208 51f4 	addw	r1, r8, #1524	; 0x5f4
 8002be0:	f508 70fa 	add.w	r0, r8, #500	; 0x1f4
 8002be4:	f002 fd48 	bl	8005678 <gfmul_x4>
 8002be8:	f208 6104 	addw	r1, r8, #1540	; 0x604
 8002bec:	f508 7001 	add.w	r0, r8, #516	; 0x204
 8002bf0:	f002 fd42 	bl	8005678 <gfmul_x4>
 8002bf4:	f208 6114 	addw	r1, r8, #1556	; 0x614
 8002bf8:	f508 7005 	add.w	r0, r8, #532	; 0x214
 8002bfc:	f002 fd3c 	bl	8005678 <gfmul_x4>
 8002c00:	f208 6124 	addw	r1, r8, #1572	; 0x624
 8002c04:	f508 7009 	add.w	r0, r8, #548	; 0x224
 8002c08:	f002 fd36 	bl	8005678 <gfmul_x4>
 8002c0c:	f508 780d 	add.w	r8, r8, #564	; 0x234
 8002c10:	2403      	movs	r4, #3
 8002c12:	4e42      	ldr	r6, [pc, #264]	; (8002d1c <cmox_gcmFast_setKey+0x298>)
 8002c14:	f05f 0700 	movs.w	r7, #0
 8002c18:	f5a8 7180 	sub.w	r1, r8, #256	; 0x100
 8002c1c:	1c7f      	adds	r7, r7, #1
 8002c1e:	688a      	ldr	r2, [r1, #8]
 8002c20:	68c8      	ldr	r0, [r1, #12]
 8002c22:	0612      	lsls	r2, r2, #24
 8002c24:	ea42 2210 	orr.w	r2, r2, r0, lsr #8
 8002c28:	f000 0cff 	and.w	ip, r0, #255	; 0xff
 8002c2c:	f8c8 200c 	str.w	r2, [r8, #12]
 8002c30:	684b      	ldr	r3, [r1, #4]
 8002c32:	6888      	ldr	r0, [r1, #8]
 8002c34:	061b      	lsls	r3, r3, #24
 8002c36:	ea43 2310 	orr.w	r3, r3, r0, lsr #8
 8002c3a:	f8c8 3008 	str.w	r3, [r8, #8]
 8002c3e:	6808      	ldr	r0, [r1, #0]
 8002c40:	f8d1 e004 	ldr.w	lr, [r1, #4]
 8002c44:	0600      	lsls	r0, r0, #24
 8002c46:	ea40 201e 	orr.w	r0, r0, lr, lsr #8
 8002c4a:	f8c8 0004 	str.w	r0, [r8, #4]
 8002c4e:	f002 0eff 	and.w	lr, r2, #255	; 0xff
 8002c52:	f836 c01c 	ldrh.w	ip, [r6, ip, lsl #1]
 8002c56:	6809      	ldr	r1, [r1, #0]
 8002c58:	ea4f 4c0c 	mov.w	ip, ip, lsl #16
 8002c5c:	ea8c 2c11 	eor.w	ip, ip, r1, lsr #8
 8002c60:	0619      	lsls	r1, r3, #24
 8002c62:	f8c8 c000 	str.w	ip, [r8]
 8002c66:	ea41 2112 	orr.w	r1, r1, r2, lsr #8
 8002c6a:	0602      	lsls	r2, r0, #24
 8002c6c:	ea42 2213 	orr.w	r2, r2, r3, lsr #8
 8002c70:	ea4f 630c 	mov.w	r3, ip, lsl #24
 8002c74:	ea43 2310 	orr.w	r3, r3, r0, lsr #8
 8002c78:	f8c8 100c 	str.w	r1, [r8, #12]
 8002c7c:	f8c8 2008 	str.w	r2, [r8, #8]
 8002c80:	f8c8 3004 	str.w	r3, [r8, #4]
 8002c84:	f836 001e 	ldrh.w	r0, [r6, lr, lsl #1]
 8002c88:	0400      	lsls	r0, r0, #16
 8002c8a:	f001 0eff 	and.w	lr, r1, #255	; 0xff
 8002c8e:	ea80 201c 	eor.w	r0, r0, ip, lsr #8
 8002c92:	ea4f 6c02 	mov.w	ip, r2, lsl #24
 8002c96:	f8c8 0000 	str.w	r0, [r8]
 8002c9a:	ea4c 2c11 	orr.w	ip, ip, r1, lsr #8
 8002c9e:	0619      	lsls	r1, r3, #24
 8002ca0:	ea41 2112 	orr.w	r1, r1, r2, lsr #8
 8002ca4:	0602      	lsls	r2, r0, #24
 8002ca6:	ea42 2213 	orr.w	r2, r2, r3, lsr #8
 8002caa:	f8c8 c00c 	str.w	ip, [r8, #12]
 8002cae:	f8c8 1008 	str.w	r1, [r8, #8]
 8002cb2:	f8c8 2004 	str.w	r2, [r8, #4]
 8002cb6:	f836 301e 	ldrh.w	r3, [r6, lr, lsl #1]
 8002cba:	041b      	lsls	r3, r3, #16
 8002cbc:	ea83 2310 	eor.w	r3, r3, r0, lsr #8
 8002cc0:	f00c 00ff 	and.w	r0, ip, #255	; 0xff
 8002cc4:	ea4f 6e01 	mov.w	lr, r1, lsl #24
 8002cc8:	f8c8 3000 	str.w	r3, [r8]
 8002ccc:	ea4e 2e1c 	orr.w	lr, lr, ip, lsr #8
 8002cd0:	ea4f 6c02 	mov.w	ip, r2, lsl #24
 8002cd4:	ea4c 2111 	orr.w	r1, ip, r1, lsr #8
 8002cd8:	f8c8 1008 	str.w	r1, [r8, #8]
 8002cdc:	f8c8 e00c 	str.w	lr, [r8, #12]
 8002ce0:	0619      	lsls	r1, r3, #24
 8002ce2:	ea41 2112 	orr.w	r1, r1, r2, lsr #8
 8002ce6:	f8c8 1004 	str.w	r1, [r8, #4]
 8002cea:	f508 6180 	add.w	r1, r8, #1024	; 0x400
 8002cee:	f836 0010 	ldrh.w	r0, [r6, r0, lsl #1]
 8002cf2:	0400      	lsls	r0, r0, #16
 8002cf4:	ea80 2013 	eor.w	r0, r0, r3, lsr #8
 8002cf8:	f8c8 0000 	str.w	r0, [r8]
 8002cfc:	4640      	mov	r0, r8
 8002cfe:	f002 fcbb 	bl	8005678 <gfmul_x4>
 8002d02:	2f10      	cmp	r7, #16
 8002d04:	f108 0810 	add.w	r8, r8, #16
 8002d08:	d386      	bcc.n	8002c18 <cmox_gcmFast_setKey+0x194>
 8002d0a:	1e64      	subs	r4, r4, #1
 8002d0c:	f47f af82 	bne.w	8002c14 <cmox_gcmFast_setKey+0x190>
 8002d10:	4628      	mov	r0, r5
 8002d12:	b004      	add	sp, #16
 8002d14:	e8bd 87f0 	ldmia.w	sp!, {r4, r5, r6, r7, r8, r9, sl, pc}
 8002d18:	00010003 	.word	0x00010003
 8002d1c:	08009514 	.word	0x08009514

08002d20 <cmox_gcmFast_setIV>:
 8002d20:	2a0c      	cmp	r2, #12
 8002d22:	bf04      	itt	eq
 8002d24:	6802      	ldreq	r2, [r0, #0]
 8002d26:	429a      	cmpeq	r2, r3
 8002d28:	d101      	bne.n	8002d2e <cmox_gcmFast_setIV+0xe>
 8002d2a:	0002      	movs	r2, r0
 8002d2c:	d101      	bne.n	8002d32 <cmox_gcmFast_setIV+0x12>
 8002d2e:	480a      	ldr	r0, [pc, #40]	; (8002d58 <cmox_gcmFast_setIV+0x38>)
 8002d30:	4770      	bx	lr
 8002d32:	680b      	ldr	r3, [r1, #0]
 8002d34:	ba1b      	rev	r3, r3
 8002d36:	f8c0 3104 	str.w	r3, [r0, #260]	; 0x104
 8002d3a:	684b      	ldr	r3, [r1, #4]
 8002d3c:	ba1b      	rev	r3, r3
 8002d3e:	f8c0 3108 	str.w	r3, [r0, #264]	; 0x108
 8002d42:	6889      	ldr	r1, [r1, #8]
 8002d44:	ba09      	rev	r1, r1
 8002d46:	f8c0 110c 	str.w	r1, [r0, #268]	; 0x10c
 8002d4a:	6841      	ldr	r1, [r0, #4]
 8002d4c:	f041 0101 	orr.w	r1, r1, #1
 8002d50:	6041      	str	r1, [r0, #4]
 8002d52:	f44f 3080 	mov.w	r0, #65536	; 0x10000
 8002d56:	4770      	bx	lr
 8002d58:	00010003 	.word	0x00010003

08002d5c <cmox_gcmFast_setTagLen>:
 8002d5c:	b131      	cbz	r1, 8002d6c <cmox_gcmFast_setTagLen+0x10>
 8002d5e:	2911      	cmp	r1, #17
 8002d60:	d204      	bcs.n	8002d6c <cmox_gcmFast_setTagLen+0x10>
 8002d62:	6803      	ldr	r3, [r0, #0]
 8002d64:	4293      	cmp	r3, r2
 8002d66:	d101      	bne.n	8002d6c <cmox_gcmFast_setTagLen+0x10>
 8002d68:	0002      	movs	r2, r0
 8002d6a:	d101      	bne.n	8002d70 <cmox_gcmFast_setTagLen+0x14>
 8002d6c:	4805      	ldr	r0, [pc, #20]	; (8002d84 <cmox_gcmFast_setTagLen+0x28>)
 8002d6e:	4770      	bx	lr
 8002d70:	f8c0 1114 	str.w	r1, [r0, #276]	; 0x114
 8002d74:	6841      	ldr	r1, [r0, #4]
 8002d76:	f041 0102 	orr.w	r1, r1, #2
 8002d7a:	6041      	str	r1, [r0, #4]
 8002d7c:	f44f 3080 	mov.w	r0, #65536	; 0x10000
 8002d80:	4770      	bx	lr
 8002d82:	bf00      	nop
 8002d84:	00010003 	.word	0x00010003

08002d88 <cmox_gcmFast_appendAD>:
 8002d88:	b530      	push	{r4, r5, lr}
 8002d8a:	b081      	sub	sp, #4
 8002d8c:	6804      	ldr	r4, [r0, #0]
 8002d8e:	429c      	cmp	r4, r3
 8002d90:	d101      	bne.n	8002d96 <cmox_gcmFast_appendAD+0xe>
 8002d92:	0004      	movs	r4, r0
 8002d94:	d102      	bne.n	8002d9c <cmox_gcmFast_appendAD+0x14>
 8002d96:	480a      	ldr	r0, [pc, #40]	; (8002dc0 <cmox_gcmFast_appendAD+0x38>)
 8002d98:	b001      	add	sp, #4
 8002d9a:	bd30      	pop	{r4, r5, pc}
 8002d9c:	7903      	ldrb	r3, [r0, #4]
 8002d9e:	075d      	lsls	r5, r3, #29
 8002da0:	bf48      	it	mi
 8002da2:	4808      	ldrmi	r0, [pc, #32]	; (8002dc4 <cmox_gcmFast_appendAD+0x3c>)
 8002da4:	d40a      	bmi.n	8002dbc <cmox_gcmFast_appendAD+0x34>
 8002da6:	f500 739a 	add.w	r3, r0, #308	; 0x134
 8002daa:	9300      	str	r3, [sp, #0]
 8002dac:	4613      	mov	r3, r2
 8002dae:	460a      	mov	r2, r1
 8002db0:	f100 0108 	add.w	r1, r0, #8
 8002db4:	f002 fca4 	bl	8005700 <cmox_gcm_appendAD_common>
 8002db8:	f44f 3080 	mov.w	r0, #65536	; 0x10000
 8002dbc:	b001      	add	sp, #4
 8002dbe:	bd30      	pop	{r4, r5, pc}
 8002dc0:	00010003 	.word	0x00010003
 8002dc4:	00010004 	.word	0x00010004

08002dc8 <cmox_gcmFast_getByCipher>:
 8002dc8:	6802      	ldr	r2, [r0, #0]
 8002dca:	428a      	cmp	r2, r1
 8002dcc:	bf18      	it	ne
 8002dce:	2000      	movne	r0, #0
 8002dd0:	4770      	bx	lr

08002dd2 <cmox_gcmFast_construct>:
 8002dd2:	460a      	mov	r2, r1
 8002dd4:	2800      	cmp	r0, #0
 8002dd6:	bf18      	it	ne
 8002dd8:	2a00      	cmpne	r2, #0
 8002dda:	d101      	bne.n	8002de0 <cmox_gcmFast_construct+0xe>
 8002ddc:	2000      	movs	r0, #0
 8002dde:	4770      	bx	lr
 8002de0:	6853      	ldr	r3, [r2, #4]
 8002de2:	6812      	ldr	r2, [r2, #0]
 8002de4:	6819      	ldr	r1, [r3, #0]

08002de6 <__iar_annotation$$tailcall>:
 8002de6:	4710      	bx	r2

08002de8 <gcmFast_decrypt_cleanup>:
 8002de8:	4901      	ldr	r1, [pc, #4]	; (8002df0 <gcmFast_decrypt_cleanup+0x8>)
 8002dea:	f7ff be25 	b.w	8002a38 <cmox_gcmFast_cleanup>
 8002dee:	bf00      	nop
 8002df0:	0800971c 	.word	0x0800971c

08002df4 <gcmFast_decrypt_init>:
 8002df4:	4901      	ldr	r1, [pc, #4]	; (8002dfc <gcmFast_decrypt_init+0x8>)
 8002df6:	f7ff be31 	b.w	8002a5c <cmox_gcmFast_init>
 8002dfa:	bf00      	nop
 8002dfc:	0800971c 	.word	0x0800971c

08002e00 <gcmFast_decrypt_setKey>:
 8002e00:	4b01      	ldr	r3, [pc, #4]	; (8002e08 <gcmFast_decrypt_setKey+0x8>)
 8002e02:	f7ff be3f 	b.w	8002a84 <cmox_gcmFast_setKey>
 8002e06:	bf00      	nop
 8002e08:	0800971c 	.word	0x0800971c

08002e0c <gcmFast_decrypt_setIV>:
 8002e0c:	4b01      	ldr	r3, [pc, #4]	; (8002e14 <gcmFast_decrypt_setIV+0x8>)
 8002e0e:	f7ff bf87 	b.w	8002d20 <cmox_gcmFast_setIV>
 8002e12:	bf00      	nop
 8002e14:	0800971c 	.word	0x0800971c

08002e18 <gcmFast_decrypt_setTagLen>:
 8002e18:	4a01      	ldr	r2, [pc, #4]	; (8002e20 <gcmFast_decrypt_setTagLen+0x8>)
 8002e1a:	f7ff bf9f 	b.w	8002d5c <cmox_gcmFast_setTagLen>
 8002e1e:	bf00      	nop
 8002e20:	0800971c 	.word	0x0800971c

08002e24 <gcmFast_decrypt_appendAD>:
 8002e24:	4b01      	ldr	r3, [pc, #4]	; (8002e2c <gcmFast_decrypt_appendAD+0x8>)
 8002e26:	f7ff bfaf 	b.w	8002d88 <cmox_gcmFast_appendAD>
 8002e2a:	bf00      	nop
 8002e2c:	0800971c 	.word	0x0800971c

08002e30 <cmox_gcmFast_decrypt>:
 8002e30:	b5f0      	push	{r4, r5, r6, r7, lr}
 8002e32:	460d      	mov	r5, r1
 8002e34:	b085      	sub	sp, #20
 8002e36:	4604      	mov	r4, r0
 8002e38:	4616      	mov	r6, r2
 8002e3a:	461f      	mov	r7, r3
 8002e3c:	490b      	ldr	r1, [pc, #44]	; (8002e6c <cmox_gcmFast_decrypt+0x3c>)
 8002e3e:	f7ff ffc3 	bl	8002dc8 <cmox_gcmFast_getByCipher>
 8002e42:	b910      	cbnz	r0, 8002e4a <cmox_gcmFast_decrypt+0x1a>
 8002e44:	480a      	ldr	r0, [pc, #40]	; (8002e70 <cmox_gcmFast_decrypt+0x40>)
 8002e46:	b005      	add	sp, #20
 8002e48:	bdf0      	pop	{r4, r5, r6, r7, pc}
 8002e4a:	990a      	ldr	r1, [sp, #40]	; 0x28
 8002e4c:	9103      	str	r1, [sp, #12]
 8002e4e:	f500 739a 	add.w	r3, r0, #308	; 0x134
 8002e52:	f100 0208 	add.w	r2, r0, #8
 8002e56:	f100 0108 	add.w	r1, r0, #8
 8002e5a:	9702      	str	r7, [sp, #8]
 8002e5c:	9601      	str	r6, [sp, #4]
 8002e5e:	9500      	str	r5, [sp, #0]
 8002e60:	4620      	mov	r0, r4
 8002e62:	f002 fcf7 	bl	8005854 <cmox_gcm_decrypt_common>
 8002e66:	b005      	add	sp, #20
 8002e68:	bdf0      	pop	{r4, r5, r6, r7, pc}
 8002e6a:	bf00      	nop
 8002e6c:	0800971c 	.word	0x0800971c
 8002e70:	00010003 	.word	0x00010003

08002e74 <gcmFast_decrypt_verifyTag>:
 8002e74:	b570      	push	{r4, r5, r6, lr}
 8002e76:	460d      	mov	r5, r1
 8002e78:	b082      	sub	sp, #8
 8002e7a:	4604      	mov	r4, r0
 8002e7c:	4616      	mov	r6, r2
 8002e7e:	490a      	ldr	r1, [pc, #40]	; (8002ea8 <gcmFast_decrypt_verifyTag+0x34>)
 8002e80:	f7ff ffa2 	bl	8002dc8 <cmox_gcmFast_getByCipher>
 8002e84:	b910      	cbnz	r0, 8002e8c <gcmFast_decrypt_verifyTag+0x18>
 8002e86:	4809      	ldr	r0, [pc, #36]	; (8002eac <gcmFast_decrypt_verifyTag+0x38>)
 8002e88:	b002      	add	sp, #8
 8002e8a:	bd70      	pop	{r4, r5, r6, pc}
 8002e8c:	f500 739a 	add.w	r3, r0, #308	; 0x134
 8002e90:	f100 0208 	add.w	r2, r0, #8
 8002e94:	f100 0108 	add.w	r1, r0, #8
 8002e98:	9601      	str	r6, [sp, #4]
 8002e9a:	9500      	str	r5, [sp, #0]
 8002e9c:	4620      	mov	r0, r4
 8002e9e:	f002 fdad 	bl	80059fc <cmox_gcm_decrypt_verify_common>
 8002ea2:	b002      	add	sp, #8
 8002ea4:	bd70      	pop	{r4, r5, r6, pc}
 8002ea6:	bf00      	nop
 8002ea8:	0800971c 	.word	0x0800971c
 8002eac:	00010003 	.word	0x00010003

08002eb0 <cmox_gcmFastDecrypt_construct>:
 8002eb0:	b138      	cbz	r0, 8002ec2 <cmox_gcmFastDecrypt_construct+0x12>
 8002eb2:	4a04      	ldr	r2, [pc, #16]	; (8002ec4 <cmox_gcmFastDecrypt_construct+0x14>)
 8002eb4:	4b04      	ldr	r3, [pc, #16]	; (8002ec8 <cmox_gcmFastDecrypt_construct+0x18>)
 8002eb6:	6002      	str	r2, [r0, #0]
 8002eb8:	f8d3 c000 	ldr.w	ip, [r3]
 8002ebc:	f8c0 c130 	str.w	ip, [r0, #304]	; 0x130
 8002ec0:	6081      	str	r1, [r0, #8]
 8002ec2:	4770      	bx	lr
 8002ec4:	0800971c 	.word	0x0800971c
 8002ec8:	08009718 	.word	0x08009718

08002ecc <cmox_hash_cleanup>:
 8002ecc:	b580      	push	{r7, lr}
 8002ece:	2800      	cmp	r0, #0
 8002ed0:	bf1c      	itt	ne
 8002ed2:	6802      	ldrne	r2, [r0, #0]
 8002ed4:	2a00      	cmpne	r2, #0
 8002ed6:	4904      	ldr	r1, [pc, #16]	; (8002ee8 <cmox_hash_cleanup+0x1c>)
 8002ed8:	d003      	beq.n	8002ee2 <cmox_hash_cleanup+0x16>
 8002eda:	6812      	ldr	r2, [r2, #0]
 8002edc:	b10a      	cbz	r2, 8002ee2 <cmox_hash_cleanup+0x16>
 8002ede:	4790      	blx	r2
 8002ee0:	4601      	mov	r1, r0
 8002ee2:	4608      	mov	r0, r1
 8002ee4:	bd02      	pop	{r1, pc}
 8002ee6:	bf00      	nop
 8002ee8:	00020003 	.word	0x00020003

08002eec <cmox_hash_init>:
 8002eec:	b580      	push	{r7, lr}
 8002eee:	2800      	cmp	r0, #0
 8002ef0:	bf1c      	itt	ne
 8002ef2:	6802      	ldrne	r2, [r0, #0]
 8002ef4:	2a00      	cmpne	r2, #0
 8002ef6:	4904      	ldr	r1, [pc, #16]	; (8002f08 <cmox_hash_init+0x1c>)
 8002ef8:	d003      	beq.n	8002f02 <cmox_hash_init+0x16>
 8002efa:	6852      	ldr	r2, [r2, #4]
 8002efc:	b10a      	cbz	r2, 8002f02 <cmox_hash_init+0x16>
 8002efe:	4790      	blx	r2
 8002f00:	4601      	mov	r1, r0
 8002f02:	4608      	mov	r0, r1
 8002f04:	bd02      	pop	{r1, pc}
 8002f06:	bf00      	nop
 8002f08:	00020003 	.word	0x00020003

08002f0c <cmox_hash_setTagLen>:
 8002f0c:	b580      	push	{r7, lr}
 8002f0e:	2800      	cmp	r0, #0
 8002f10:	bf1c      	itt	ne
 8002f12:	6803      	ldrne	r3, [r0, #0]
 8002f14:	2b00      	cmpne	r3, #0
 8002f16:	4a05      	ldr	r2, [pc, #20]	; (8002f2c <cmox_hash_setTagLen+0x20>)
 8002f18:	d006      	beq.n	8002f28 <cmox_hash_setTagLen+0x1c>
 8002f1a:	689b      	ldr	r3, [r3, #8]
 8002f1c:	2b00      	cmp	r3, #0
 8002f1e:	bf18      	it	ne
 8002f20:	2900      	cmpne	r1, #0
 8002f22:	d001      	beq.n	8002f28 <cmox_hash_setTagLen+0x1c>
 8002f24:	4798      	blx	r3
 8002f26:	4602      	mov	r2, r0
 8002f28:	4610      	mov	r0, r2
 8002f2a:	bd02      	pop	{r1, pc}
 8002f2c:	00020003 	.word	0x00020003

08002f30 <cmox_hash_append>:
 8002f30:	2800      	cmp	r0, #0
 8002f32:	bf1c      	itt	ne
 8002f34:	6803      	ldrne	r3, [r0, #0]
 8002f36:	2b00      	cmpne	r3, #0
 8002f38:	d003      	beq.n	8002f42 <cmox_hash_append+0x12>
 8002f3a:	68db      	ldr	r3, [r3, #12]
 8002f3c:	b10b      	cbz	r3, 8002f42 <cmox_hash_append+0x12>
 8002f3e:	b911      	cbnz	r1, 8002f46 <__iar_annotation$$tailcall>
 8002f40:	b112      	cbz	r2, 8002f48 <__iar_annotation$$tailcall+0x2>
 8002f42:	4803      	ldr	r0, [pc, #12]	; (8002f50 <__iar_annotation$$tailcall+0xa>)
 8002f44:	4770      	bx	lr

08002f46 <__iar_annotation$$tailcall>:
 8002f46:	4718      	bx	r3
 8002f48:	f44f 3000 	mov.w	r0, #131072	; 0x20000
 8002f4c:	4770      	bx	lr
 8002f4e:	bf00      	nop
 8002f50:	00020003 	.word	0x00020003

08002f54 <cmox_hash_generateTag>:
 8002f54:	b510      	push	{r4, lr}
 8002f56:	2800      	cmp	r0, #0
 8002f58:	bf1c      	itt	ne
 8002f5a:	6804      	ldrne	r4, [r0, #0]
 8002f5c:	2c00      	cmpne	r4, #0
 8002f5e:	4b05      	ldr	r3, [pc, #20]	; (8002f74 <cmox_hash_generateTag+0x20>)
 8002f60:	d006      	beq.n	8002f70 <cmox_hash_generateTag+0x1c>
 8002f62:	6924      	ldr	r4, [r4, #16]
 8002f64:	2c00      	cmp	r4, #0
 8002f66:	bf18      	it	ne
 8002f68:	2900      	cmpne	r1, #0
 8002f6a:	d001      	beq.n	8002f70 <cmox_hash_generateTag+0x1c>
 8002f6c:	47a0      	blx	r4
 8002f6e:	4603      	mov	r3, r0
 8002f70:	4618      	mov	r0, r3
 8002f72:	bd10      	pop	{r4, pc}
 8002f74:	00020003 	.word	0x00020003

08002f78 <cmox_hash_common_compute>:
 8002f78:	e92d 41f0 	stmdb	sp!, {r4, r5, r6, r7, r8, lr}
 8002f7c:	4604      	mov	r4, r0
 8002f7e:	460e      	mov	r6, r1
 8002f80:	6821      	ldr	r1, [r4, #0]
 8002f82:	4617      	mov	r7, r2
 8002f84:	684a      	ldr	r2, [r1, #4]
 8002f86:	461d      	mov	r5, r3
 8002f88:	4790      	blx	r2
 8002f8a:	4680      	mov	r8, r0
 8002f8c:	f5b8 3f00 	cmp.w	r8, #131072	; 0x20000
 8002f90:	d119      	bne.n	8002fc6 <cmox_hash_common_compute+0x4e>
 8002f92:	6822      	ldr	r2, [r4, #0]
 8002f94:	9906      	ldr	r1, [sp, #24]
 8002f96:	6893      	ldr	r3, [r2, #8]
 8002f98:	4620      	mov	r0, r4
 8002f9a:	4798      	blx	r3
 8002f9c:	4680      	mov	r8, r0
 8002f9e:	f5b8 3f00 	cmp.w	r8, #131072	; 0x20000
 8002fa2:	d110      	bne.n	8002fc6 <cmox_hash_common_compute+0x4e>
 8002fa4:	6823      	ldr	r3, [r4, #0]
 8002fa6:	4631      	mov	r1, r6
 8002fa8:	68de      	ldr	r6, [r3, #12]
 8002faa:	463a      	mov	r2, r7
 8002fac:	4620      	mov	r0, r4
 8002fae:	47b0      	blx	r6
 8002fb0:	4680      	mov	r8, r0
 8002fb2:	f5b8 3f00 	cmp.w	r8, #131072	; 0x20000
 8002fb6:	d106      	bne.n	8002fc6 <cmox_hash_common_compute+0x4e>
 8002fb8:	6823      	ldr	r3, [r4, #0]
 8002fba:	9a07      	ldr	r2, [sp, #28]
 8002fbc:	4629      	mov	r1, r5
 8002fbe:	691d      	ldr	r5, [r3, #16]
 8002fc0:	4620      	mov	r0, r4
 8002fc2:	47a8      	blx	r5
 8002fc4:	4680      	mov	r8, r0
 8002fc6:	6821      	ldr	r1, [r4, #0]
 8002fc8:	680a      	ldr	r2, [r1, #0]
 8002fca:	4620      	mov	r0, r4
 8002fcc:	4790      	blx	r2
 8002fce:	4640      	mov	r0, r8
 8002fd0:	e8bd 81f0 	ldmia.w	sp!, {r4, r5, r6, r7, r8, pc}

08002fd4 <cmox_red_fake_copy_in_to_out>:
 8002fd4:	b510      	push	{r4, lr}
 8002fd6:	2200      	movs	r2, #0
 8002fd8:	e004      	b.n	8002fe4 <cmox_red_fake_copy_in_to_out+0x10>
 8002fda:	f850 4022 	ldr.w	r4, [r0, r2, lsl #2]
 8002fde:	f843 4022 	str.w	r4, [r3, r2, lsl #2]
 8002fe2:	1c52      	adds	r2, r2, #1
 8002fe4:	428a      	cmp	r2, r1
 8002fe6:	d3f8      	bcc.n	8002fda <cmox_red_fake_copy_in_to_out+0x6>
 8002fe8:	bd10      	pop	{r4, pc}

08002fea <basic_type_modinv>:
 8002fea:	b5f0      	push	{r4, r5, r6, r7, lr}
 8002fec:	4603      	mov	r3, r0
 8002fee:	460e      	mov	r6, r1
 8002ff0:	2701      	movs	r7, #1
 8002ff2:	f04f 0c03 	mov.w	ip, #3
 8002ff6:	2402      	movs	r4, #2
 8002ff8:	221f      	movs	r2, #31
 8002ffa:	2500      	movs	r5, #0
 8002ffc:	fb07 f003 	mul.w	r0, r7, r3
 8003000:	ea0c 0000 	and.w	r0, ip, r0
 8003004:	2100      	movs	r1, #0
 8003006:	1b00      	subs	r0, r0, r4
 8003008:	41a9      	sbcs	r1, r5
 800300a:	ea24 0101 	bic.w	r1, r4, r1
 800300e:	19cf      	adds	r7, r1, r7
 8003010:	0064      	lsls	r4, r4, #1
 8003012:	ea4f 004c 	mov.w	r0, ip, lsl #1
 8003016:	1e52      	subs	r2, r2, #1
 8003018:	f080 0c01 	eor.w	ip, r0, #1
 800301c:	d1ee      	bne.n	8002ffc <basic_type_modinv+0x12>
 800301e:	6037      	str	r7, [r6, #0]
 8003020:	bdf0      	pop	{r4, r5, r6, r7, pc}

08003022 <cmox_RightShiftBN>:
 8003022:	b5f0      	push	{r4, r5, r6, r7, lr}
 8003024:	2300      	movs	r3, #0
 8003026:	2920      	cmp	r1, #32
 8003028:	bf28      	it	cs
 800302a:	2301      	movcs	r3, #1
 800302c:	d222      	bcs.n	8003074 <cmox_RightShiftBN+0x52>
 800302e:	6814      	ldr	r4, [r2, #0]
 8003030:	6805      	ldr	r5, [r0, #0]
 8003032:	42ac      	cmp	r4, r5
 8003034:	bf38      	it	cc
 8003036:	2303      	movcc	r3, #3
 8003038:	d31c      	bcc.n	8003074 <cmox_RightShiftBN+0x52>
 800303a:	2401      	movs	r4, #1
 800303c:	e00a      	b.n	8003054 <cmox_RightShiftBN+0x32>
 800303e:	eb00 0784 	add.w	r7, r0, r4, lsl #2
 8003042:	f1c1 0e20 	rsb	lr, r1, #32
 8003046:	687f      	ldr	r7, [r7, #4]
 8003048:	fa07 f70e 	lsl.w	r7, r7, lr
 800304c:	433e      	orrs	r6, r7
 800304e:	f842 6024 	str.w	r6, [r2, r4, lsl #2]
 8003052:	462c      	mov	r4, r5
 8003054:	f850 6024 	ldr.w	r6, [r0, r4, lsl #2]
 8003058:	6807      	ldr	r7, [r0, #0]
 800305a:	40ce      	lsrs	r6, r1
 800305c:	1c65      	adds	r5, r4, #1
 800305e:	42bc      	cmp	r4, r7
 8003060:	d3ed      	bcc.n	800303e <cmox_RightShiftBN+0x1c>
 8003062:	f842 6024 	str.w	r6, [r2, r4, lsl #2]
 8003066:	e002      	b.n	800306e <cmox_RightShiftBN+0x4c>
 8003068:	f842 3025 	str.w	r3, [r2, r5, lsl #2]
 800306c:	1c6d      	adds	r5, r5, #1
 800306e:	6810      	ldr	r0, [r2, #0]
 8003070:	42a8      	cmp	r0, r5
 8003072:	d2f9      	bcs.n	8003068 <cmox_RightShiftBN+0x46>
 8003074:	4618      	mov	r0, r3
 8003076:	bdf0      	pop	{r4, r5, r6, r7, pc}

08003078 <cmox_ModAddBN>:
 8003078:	e92d 4eff 	stmdb	sp!, {r0, r1, r2, r3, r4, r5, r6, r7, r9, sl, fp, lr}
 800307c:	4682      	mov	sl, r0
 800307e:	2000      	movs	r0, #0
 8003080:	e9cd 0002 	strd	r0, r0, [sp, #8]
 8003084:	4617      	mov	r7, r2
 8003086:	469c      	mov	ip, r3
 8003088:	460e      	mov	r6, r1
 800308a:	683a      	ldr	r2, [r7, #0]
 800308c:	f8dc 3000 	ldr.w	r3, [ip]
 8003090:	2100      	movs	r1, #0
 8003092:	4293      	cmp	r3, r2
 8003094:	bf21      	itttt	cs
 8003096:	f8da b000 	ldrcs.w	fp, [sl]
 800309a:	4593      	cmpcs	fp, r2
 800309c:	6835      	ldrcs	r5, [r6, #0]
 800309e:	4295      	cmpcs	r5, r2
 80030a0:	d201      	bcs.n	80030a6 <cmox_ModAddBN+0x2e>
 80030a2:	2003      	movs	r0, #3
 80030a4:	e076      	b.n	8003194 <cmox_ModAddBN+0x11c>
 80030a6:	45ab      	cmp	fp, r5
 80030a8:	d303      	bcc.n	80030b2 <cmox_ModAddBN+0x3a>
 80030aa:	f8cd a004 	str.w	sl, [sp, #4]
 80030ae:	9500      	str	r5, [sp, #0]
 80030b0:	e003      	b.n	80030ba <cmox_ModAddBN+0x42>
 80030b2:	f8cd b000 	str.w	fp, [sp]
 80030b6:	9601      	str	r6, [sp, #4]
 80030b8:	46ab      	mov	fp, r5
 80030ba:	455b      	cmp	r3, fp
 80030bc:	bf38      	it	cc
 80030be:	469b      	movcc	fp, r3
 80030c0:	f04f 0e01 	mov.w	lr, #1
 80030c4:	2500      	movs	r5, #0
 80030c6:	e015      	b.n	80030f4 <cmox_ModAddBN+0x7c>
 80030c8:	f85a 202e 	ldr.w	r2, [sl, lr, lsl #2]
 80030cc:	f856 402e 	ldr.w	r4, [r6, lr, lsl #2]
 80030d0:	1880      	adds	r0, r0, r2
 80030d2:	eb41 0905 	adc.w	r9, r1, r5
 80030d6:	1902      	adds	r2, r0, r4
 80030d8:	eb49 0305 	adc.w	r3, r9, r5
 80030dc:	f857 002e 	ldr.w	r0, [r7, lr, lsl #2]
 80030e0:	2100      	movs	r1, #0
 80030e2:	1a10      	subs	r0, r2, r0
 80030e4:	f84c 002e 	str.w	r0, [ip, lr, lsl #2]
 80030e8:	eb63 0101 	sbc.w	r1, r3, r1
 80030ec:	4608      	mov	r0, r1
 80030ee:	17c9      	asrs	r1, r1, #31
 80030f0:	f10e 0e01 	add.w	lr, lr, #1
 80030f4:	683a      	ldr	r2, [r7, #0]
 80030f6:	4572      	cmp	r2, lr
 80030f8:	d2e6      	bcs.n	80030c8 <cmox_ModAddBN+0x50>
 80030fa:	9c00      	ldr	r4, [sp, #0]
 80030fc:	4574      	cmp	r4, lr
 80030fe:	d31c      	bcc.n	800313a <cmox_ModAddBN+0xc2>
 8003100:	f85a 202e 	ldr.w	r2, [sl, lr, lsl #2]
 8003104:	f856 402e 	ldr.w	r4, [r6, lr, lsl #2]
 8003108:	2300      	movs	r3, #0
 800310a:	2500      	movs	r5, #0
 800310c:	1914      	adds	r4, r2, r4
 800310e:	415d      	adcs	r5, r3
 8003110:	1900      	adds	r0, r0, r4
 8003112:	f84c 002e 	str.w	r0, [ip, lr, lsl #2]
 8003116:	4169      	adcs	r1, r5
 8003118:	4608      	mov	r0, r1
 800311a:	17c9      	asrs	r1, r1, #31
 800311c:	f10e 0e01 	add.w	lr, lr, #1
 8003120:	e7eb      	b.n	80030fa <cmox_ModAddBN+0x82>
 8003122:	9c01      	ldr	r4, [sp, #4]
 8003124:	f854 202e 	ldr.w	r2, [r4, lr, lsl #2]
 8003128:	2300      	movs	r3, #0
 800312a:	1880      	adds	r0, r0, r2
 800312c:	f84c 002e 	str.w	r0, [ip, lr, lsl #2]
 8003130:	4159      	adcs	r1, r3
 8003132:	4608      	mov	r0, r1
 8003134:	17c9      	asrs	r1, r1, #31
 8003136:	f10e 0e01 	add.w	lr, lr, #1
 800313a:	45f3      	cmp	fp, lr
 800313c:	d2f1      	bcs.n	8003122 <cmox_ModAddBN+0xaa>
 800313e:	4686      	mov	lr, r0
 8003140:	e9dd 0102 	ldrd	r0, r1, [sp, #8]
 8003144:	4666      	mov	r6, ip
 8003146:	f04f 0c01 	mov.w	ip, #1
 800314a:	2500      	movs	r5, #0
 800314c:	e010      	b.n	8003170 <cmox_ModAddBN+0xf8>
 800314e:	f857 202c 	ldr.w	r2, [r7, ip, lsl #2]
 8003152:	f856 402c 	ldr.w	r4, [r6, ip, lsl #2]
 8003156:	ea02 020e 	and.w	r2, r2, lr
 800315a:	2300      	movs	r3, #0
 800315c:	18a2      	adds	r2, r4, r2
 800315e:	416b      	adcs	r3, r5
 8003160:	1880      	adds	r0, r0, r2
 8003162:	f846 002c 	str.w	r0, [r6, ip, lsl #2]
 8003166:	4159      	adcs	r1, r3
 8003168:	4608      	mov	r0, r1
 800316a:	2100      	movs	r1, #0
 800316c:	f10c 0c01 	add.w	ip, ip, #1
 8003170:	683a      	ldr	r2, [r7, #0]
 8003172:	4562      	cmp	r2, ip
 8003174:	d2eb      	bcs.n	800314e <cmox_ModAddBN+0xd6>
 8003176:	6834      	ldr	r4, [r6, #0]
 8003178:	4564      	cmp	r4, ip
 800317a:	d30a      	bcc.n	8003192 <cmox_ModAddBN+0x11a>
 800317c:	f856 202c 	ldr.w	r2, [r6, ip, lsl #2]
 8003180:	1880      	adds	r0, r0, r2
 8003182:	f846 002c 	str.w	r0, [r6, ip, lsl #2]
 8003186:	4169      	adcs	r1, r5
 8003188:	4608      	mov	r0, r1
 800318a:	2100      	movs	r1, #0
 800318c:	f10c 0c01 	add.w	ip, ip, #1
 8003190:	e7f1      	b.n	8003176 <cmox_ModAddBN+0xfe>
 8003192:	2000      	movs	r0, #0
 8003194:	b004      	add	sp, #16
 8003196:	e8bd 8ef0 	ldmia.w	sp!, {r4, r5, r6, r7, r9, sl, fp, pc}

0800319a <cmox_ModSubBN>:
 800319a:	e92d 4ff4 	stmdb	sp!, {r2, r4, r5, r6, r7, r8, r9, sl, fp, lr}
 800319e:	b084      	sub	sp, #16
 80031a0:	468e      	mov	lr, r1
 80031a2:	2100      	movs	r1, #0
 80031a4:	e9cd 1102 	strd	r1, r1, [sp, #8]
 80031a8:	9a04      	ldr	r2, [sp, #16]
 80031aa:	681c      	ldr	r4, [r3, #0]
 80031ac:	6815      	ldr	r5, [r2, #0]
 80031ae:	4683      	mov	fp, r0
 80031b0:	42ac      	cmp	r4, r5
 80031b2:	bf38      	it	cc
 80031b4:	2003      	movcc	r0, #3
 80031b6:	d36c      	bcc.n	8003292 <cmox_ModSubBN+0xf8>
 80031b8:	f8de 5000 	ldr.w	r5, [lr]
 80031bc:	f8db 9000 	ldr.w	r9, [fp]
 80031c0:	45a9      	cmp	r9, r5
 80031c2:	d306      	bcc.n	80031d2 <cmox_ModSubBN+0x38>
 80031c4:	f8cd 9000 	str.w	r9, [sp]
 80031c8:	f8cd b004 	str.w	fp, [sp, #4]
 80031cc:	46a9      	mov	r9, r5
 80031ce:	468c      	mov	ip, r1
 80031d0:	e004      	b.n	80031dc <cmox_ModSubBN+0x42>
 80031d2:	f8cd e004 	str.w	lr, [sp, #4]
 80031d6:	9500      	str	r5, [sp, #0]
 80031d8:	f04f 3cff 	mov.w	ip, #4294967295
 80031dc:	9d00      	ldr	r5, [sp, #0]
 80031de:	42ac      	cmp	r4, r5
 80031e0:	bf38      	it	cc
 80031e2:	9400      	strcc	r4, [sp, #0]
 80031e4:	4698      	mov	r8, r3
 80031e6:	f04f 0a01 	mov.w	sl, #1
 80031ea:	2200      	movs	r2, #0
 80031ec:	2300      	movs	r3, #0
 80031ee:	2500      	movs	r5, #0
 80031f0:	e00f      	b.n	8003212 <cmox_ModSubBN+0x78>
 80031f2:	f85b 002a 	ldr.w	r0, [fp, sl, lsl #2]
 80031f6:	f85e 402a 	ldr.w	r4, [lr, sl, lsl #2]
 80031fa:	1816      	adds	r6, r2, r0
 80031fc:	eb43 0701 	adc.w	r7, r3, r1
 8003200:	1b32      	subs	r2, r6, r4
 8003202:	f848 202a 	str.w	r2, [r8, sl, lsl #2]
 8003206:	eb67 0305 	sbc.w	r3, r7, r5
 800320a:	461a      	mov	r2, r3
 800320c:	17db      	asrs	r3, r3, #31
 800320e:	f10a 0a01 	add.w	sl, sl, #1
 8003212:	45d1      	cmp	r9, sl
 8003214:	d2ed      	bcs.n	80031f2 <cmox_ModSubBN+0x58>
 8003216:	9800      	ldr	r0, [sp, #0]
 8003218:	4550      	cmp	r0, sl
 800321a:	d311      	bcc.n	8003240 <cmox_ModSubBN+0xa6>
 800321c:	9e01      	ldr	r6, [sp, #4]
 800321e:	f856 002a 	ldr.w	r0, [r6, sl, lsl #2]
 8003222:	ea20 040c 	bic.w	r4, r0, ip
 8003226:	1912      	adds	r2, r2, r4
 8003228:	416b      	adcs	r3, r5
 800322a:	ea00 000c 	and.w	r0, r0, ip
 800322e:	1a12      	subs	r2, r2, r0
 8003230:	f848 202a 	str.w	r2, [r8, sl, lsl #2]
 8003234:	418b      	sbcs	r3, r1
 8003236:	461a      	mov	r2, r3
 8003238:	17db      	asrs	r3, r3, #31
 800323a:	f10a 0a01 	add.w	sl, sl, #1
 800323e:	e7ea      	b.n	8003216 <cmox_ModSubBN+0x7c>
 8003240:	e9dd 0102 	ldrd	r0, r1, [sp, #8]
 8003244:	f8dd c010 	ldr.w	ip, [sp, #16]
 8003248:	4616      	mov	r6, r2
 800324a:	2701      	movs	r7, #1
 800324c:	e00e      	b.n	800326c <cmox_ModSubBN+0xd2>
 800324e:	f85c 2027 	ldr.w	r2, [ip, r7, lsl #2]
 8003252:	f858 4027 	ldr.w	r4, [r8, r7, lsl #2]
 8003256:	4032      	ands	r2, r6
 8003258:	2300      	movs	r3, #0
 800325a:	18a2      	adds	r2, r4, r2
 800325c:	416b      	adcs	r3, r5
 800325e:	1880      	adds	r0, r0, r2
 8003260:	f848 0027 	str.w	r0, [r8, r7, lsl #2]
 8003264:	4159      	adcs	r1, r3
 8003266:	4608      	mov	r0, r1
 8003268:	2100      	movs	r1, #0
 800326a:	1c7f      	adds	r7, r7, #1
 800326c:	f8dc 2000 	ldr.w	r2, [ip]
 8003270:	42ba      	cmp	r2, r7
 8003272:	d2ec      	bcs.n	800324e <cmox_ModSubBN+0xb4>
 8003274:	f8d8 4000 	ldr.w	r4, [r8]
 8003278:	42bc      	cmp	r4, r7
 800327a:	d309      	bcc.n	8003290 <cmox_ModSubBN+0xf6>
 800327c:	f858 2027 	ldr.w	r2, [r8, r7, lsl #2]
 8003280:	1880      	adds	r0, r0, r2
 8003282:	f848 0027 	str.w	r0, [r8, r7, lsl #2]
 8003286:	4169      	adcs	r1, r5
 8003288:	4608      	mov	r0, r1
 800328a:	2100      	movs	r1, #0
 800328c:	1c7f      	adds	r7, r7, #1
 800328e:	e7f1      	b.n	8003274 <cmox_ModSubBN+0xda>
 8003290:	2000      	movs	r0, #0
 8003292:	b005      	add	sp, #20
 8003294:	e8bd 8ff0 	ldmia.w	sp!, {r4, r5, r6, r7, r8, r9, sl, fp, pc}

08003298 <cmox_SubBN>:
 8003298:	b5f0      	push	{r4, r5, r6, r7, lr}
 800329a:	6813      	ldr	r3, [r2, #0]
 800329c:	6806      	ldr	r6, [r0, #0]
 800329e:	2400      	movs	r4, #0
 80032a0:	2500      	movs	r5, #0
 80032a2:	42b3      	cmp	r3, r6
 80032a4:	d201      	bcs.n	80032aa <cmox_SubBN+0x12>
 80032a6:	2003      	movs	r0, #3
 80032a8:	bdf0      	pop	{r4, r5, r6, r7, pc}
 80032aa:	468e      	mov	lr, r1
 80032ac:	f04f 0c01 	mov.w	ip, #1
 80032b0:	4606      	mov	r6, r0
 80032b2:	4617      	mov	r7, r2
 80032b4:	2100      	movs	r1, #0
 80032b6:	e00f      	b.n	80032d8 <cmox_SubBN+0x40>
 80032b8:	f856 202c 	ldr.w	r2, [r6, ip, lsl #2]
 80032bc:	f85e 002c 	ldr.w	r0, [lr, ip, lsl #2]
 80032c0:	2300      	movs	r3, #0
 80032c2:	18a2      	adds	r2, r4, r2
 80032c4:	416b      	adcs	r3, r5
 80032c6:	1a14      	subs	r4, r2, r0
 80032c8:	f847 402c 	str.w	r4, [r7, ip, lsl #2]
 80032cc:	eb63 0501 	sbc.w	r5, r3, r1
 80032d0:	462c      	mov	r4, r5
 80032d2:	17ed      	asrs	r5, r5, #31
 80032d4:	f10c 0c01 	add.w	ip, ip, #1
 80032d8:	f8de 0000 	ldr.w	r0, [lr]
 80032dc:	4560      	cmp	r0, ip
 80032de:	d2eb      	bcs.n	80032b8 <cmox_SubBN+0x20>
 80032e0:	6832      	ldr	r2, [r6, #0]
 80032e2:	4562      	cmp	r2, ip
 80032e4:	d30a      	bcc.n	80032fc <cmox_SubBN+0x64>
 80032e6:	f856 002c 	ldr.w	r0, [r6, ip, lsl #2]
 80032ea:	1824      	adds	r4, r4, r0
 80032ec:	f847 402c 	str.w	r4, [r7, ip, lsl #2]
 80032f0:	414d      	adcs	r5, r1
 80032f2:	462c      	mov	r4, r5
 80032f4:	17ed      	asrs	r5, r5, #31
 80032f6:	f10c 0c01 	add.w	ip, ip, #1
 80032fa:	e7f1      	b.n	80032e0 <cmox_SubBN+0x48>
 80032fc:	2000      	movs	r0, #0
 80032fe:	bdf0      	pop	{r4, r5, r6, r7, pc}

08003300 <cmox_AddBN_Int>:
 8003300:	b5f0      	push	{r4, r5, r6, r7, lr}
 8003302:	4604      	mov	r4, r0
 8003304:	4615      	mov	r5, r2
 8003306:	6866      	ldr	r6, [r4, #4]
 8003308:	2700      	movs	r7, #0
 800330a:	1872      	adds	r2, r6, r1
 800330c:	606a      	str	r2, [r5, #4]
 800330e:	eb47 73e1 	adc.w	r3, r7, r1, asr #31
 8003312:	461a      	mov	r2, r3
 8003314:	17db      	asrs	r3, r3, #31
 8003316:	2602      	movs	r6, #2
 8003318:	e008      	b.n	800332c <cmox_AddBN_Int+0x2c>
 800331a:	f854 0026 	ldr.w	r0, [r4, r6, lsl #2]
 800331e:	1812      	adds	r2, r2, r0
 8003320:	f845 2026 	str.w	r2, [r5, r6, lsl #2]
 8003324:	417b      	adcs	r3, r7
 8003326:	461a      	mov	r2, r3
 8003328:	17db      	asrs	r3, r3, #31
 800332a:	1c76      	adds	r6, r6, #1
 800332c:	6820      	ldr	r0, [r4, #0]
 800332e:	42b0      	cmp	r0, r6
 8003330:	d2f3      	bcs.n	800331a <cmox_AddBN_Int+0x1a>
 8003332:	4610      	mov	r0, r2
 8003334:	4252      	negs	r2, r2
 8003336:	ea22 0000 	bic.w	r0, r2, r0
 800333a:	0fc0      	lsrs	r0, r0, #31
 800333c:	bdf0      	pop	{r4, r5, r6, r7, pc}

0800333e <cmox_FieldBN_Div2>:
 800333e:	e92d 45f0 	stmdb	sp!, {r4, r5, r6, r7, r8, sl, lr}
 8003342:	4615      	mov	r5, r2
 8003344:	6842      	ldr	r2, [r0, #4]
 8003346:	468e      	mov	lr, r1
 8003348:	f002 0601 	and.w	r6, r2, #1
 800334c:	6801      	ldr	r1, [r0, #0]
 800334e:	f8de 3000 	ldr.w	r3, [lr]
 8003352:	4276      	negs	r6, r6
 8003354:	4299      	cmp	r1, r3
 8003356:	d102      	bne.n	800335e <cmox_FieldBN_Div2+0x20>
 8003358:	682c      	ldr	r4, [r5, #0]
 800335a:	428c      	cmp	r4, r1
 800335c:	d201      	bcs.n	8003362 <cmox_FieldBN_Div2+0x24>
 800335e:	2001      	movs	r0, #1
 8003360:	e03d      	b.n	80033de <cmox_FieldBN_Div2+0xa0>
 8003362:	f8de 7004 	ldr.w	r7, [lr, #4]
 8003366:	2300      	movs	r3, #0
 8003368:	4037      	ands	r7, r6
 800336a:	2400      	movs	r4, #0
 800336c:	19d2      	adds	r2, r2, r7
 800336e:	4163      	adcs	r3, r4
 8003370:	4604      	mov	r4, r0
 8003372:	606a      	str	r2, [r5, #4]
 8003374:	2100      	movs	r1, #0
 8003376:	f04f 0802 	mov.w	r8, #2
 800337a:	4618      	mov	r0, r3
 800337c:	e018      	b.n	80033b0 <cmox_FieldBN_Div2+0x72>
 800337e:	4607      	mov	r7, r0
 8003380:	f85e 0028 	ldr.w	r0, [lr, r8, lsl #2]
 8003384:	f854 2028 	ldr.w	r2, [r4, r8, lsl #2]
 8003388:	2300      	movs	r3, #0
 800338a:	4030      	ands	r0, r6
 800338c:	1810      	adds	r0, r2, r0
 800338e:	4159      	adcs	r1, r3
 8003390:	1838      	adds	r0, r7, r0
 8003392:	f845 0028 	str.w	r0, [r5, r8, lsl #2]
 8003396:	4159      	adcs	r1, r3
 8003398:	f855 3028 	ldr.w	r3, [r5, r8, lsl #2]
 800339c:	f85c 2c04 	ldr.w	r2, [ip, #-4]
 80033a0:	07db      	lsls	r3, r3, #31
 80033a2:	4608      	mov	r0, r1
 80033a4:	ea43 0352 	orr.w	r3, r3, r2, lsr #1
 80033a8:	2100      	movs	r1, #0
 80033aa:	f84c 3c04 	str.w	r3, [ip, #-4]
 80033ae:	46d0      	mov	r8, sl
 80033b0:	6822      	ldr	r2, [r4, #0]
 80033b2:	4542      	cmp	r2, r8
 80033b4:	eb05 0c88 	add.w	ip, r5, r8, lsl #2
 80033b8:	f108 0a01 	add.w	sl, r8, #1
 80033bc:	d2df      	bcs.n	800337e <cmox_FieldBN_Div2+0x40>
 80033be:	f85c 3c04 	ldr.w	r3, [ip, #-4]
 80033c2:	07c0      	lsls	r0, r0, #31
 80033c4:	ea40 0053 	orr.w	r0, r0, r3, lsr #1
 80033c8:	f84c 0c04 	str.w	r0, [ip, #-4]
 80033cc:	e003      	b.n	80033d6 <cmox_FieldBN_Div2+0x98>
 80033ce:	f845 102a 	str.w	r1, [r5, sl, lsl #2]
 80033d2:	f10a 0a01 	add.w	sl, sl, #1
 80033d6:	6828      	ldr	r0, [r5, #0]
 80033d8:	4550      	cmp	r0, sl
 80033da:	d2f8      	bcs.n	80033ce <cmox_FieldBN_Div2+0x90>
 80033dc:	2000      	movs	r0, #0
 80033de:	e8bd 85f0 	ldmia.w	sp!, {r4, r5, r6, r7, r8, sl, pc}

080033e2 <cmox_FieldBN_Mul2>:
 80033e2:	e92d 47f0 	stmdb	sp!, {r4, r5, r6, r7, r8, r9, sl, lr}
 80033e6:	4690      	mov	r8, r2
 80033e8:	6802      	ldr	r2, [r0, #0]
 80033ea:	680b      	ldr	r3, [r1, #0]
 80033ec:	429a      	cmp	r2, r3
 80033ee:	d103      	bne.n	80033f8 <cmox_FieldBN_Mul2+0x16>
 80033f0:	f8d8 4000 	ldr.w	r4, [r8]
 80033f4:	4294      	cmp	r4, r2
 80033f6:	d201      	bcs.n	80033fc <cmox_FieldBN_Mul2+0x1a>
 80033f8:	2001      	movs	r0, #1
 80033fa:	e04f      	b.n	800349c <cmox_FieldBN_Mul2+0xba>
 80033fc:	6844      	ldr	r4, [r0, #4]
 80033fe:	684a      	ldr	r2, [r1, #4]
 8003400:	0064      	lsls	r4, r4, #1
 8003402:	2300      	movs	r3, #0
 8003404:	f04f 0900 	mov.w	r9, #0
 8003408:	1aa2      	subs	r2, r4, r2
 800340a:	eb69 0303 	sbc.w	r3, r9, r3
 800340e:	4615      	mov	r5, r2
 8003410:	461a      	mov	r2, r3
 8003412:	17db      	asrs	r3, r3, #31
 8003414:	2702      	movs	r7, #2
 8003416:	4684      	mov	ip, r0
 8003418:	468e      	mov	lr, r1
 800341a:	e018      	b.n	800344e <cmox_FieldBN_Mul2+0x6c>
 800341c:	eb0c 0487 	add.w	r4, ip, r7, lsl #2
 8003420:	f854 0c04 	ldr.w	r0, [r4, #-4]
 8003424:	f85c 1027 	ldr.w	r1, [ip, r7, lsl #2]
 8003428:	f85e 4027 	ldr.w	r4, [lr, r7, lsl #2]
 800342c:	0fc0      	lsrs	r0, r0, #31
 800342e:	ea40 0041 	orr.w	r0, r0, r1, lsl #1
 8003432:	1816      	adds	r6, r2, r0
 8003434:	eb08 0087 	add.w	r0, r8, r7, lsl #2
 8003438:	eb43 0a09 	adc.w	sl, r3, r9
 800343c:	f840 5c04 	str.w	r5, [r0, #-4]
 8003440:	1b32      	subs	r2, r6, r4
 8003442:	eb6a 0309 	sbc.w	r3, sl, r9
 8003446:	4615      	mov	r5, r2
 8003448:	461a      	mov	r2, r3
 800344a:	17db      	asrs	r3, r3, #31
 800344c:	1c7f      	adds	r7, r7, #1
 800344e:	f8dc 0000 	ldr.w	r0, [ip]
 8003452:	42b8      	cmp	r0, r7
 8003454:	d2e2      	bcs.n	800341c <cmox_FieldBN_Mul2+0x3a>
 8003456:	4646      	mov	r6, r8
 8003458:	4664      	mov	r4, ip
 800345a:	46c8      	mov	r8, r9
 800345c:	f854 1020 	ldr.w	r1, [r4, r0, lsl #2]
 8003460:	f846 5020 	str.w	r5, [r6, r0, lsl #2]
 8003464:	eb02 73d1 	add.w	r3, r2, r1, lsr #31
 8003468:	2500      	movs	r5, #0
 800346a:	f04f 0c01 	mov.w	ip, #1
 800346e:	e011      	b.n	8003494 <cmox_FieldBN_Mul2+0xb2>
 8003470:	f85e 002c 	ldr.w	r0, [lr, ip, lsl #2]
 8003474:	f856 202c 	ldr.w	r2, [r6, ip, lsl #2]
 8003478:	4018      	ands	r0, r3
 800347a:	2100      	movs	r1, #0
 800347c:	1810      	adds	r0, r2, r0
 800347e:	eb49 0101 	adc.w	r1, r9, r1
 8003482:	eb18 0000 	adds.w	r0, r8, r0
 8003486:	414d      	adcs	r5, r1
 8003488:	f846 002c 	str.w	r0, [r6, ip, lsl #2]
 800348c:	46a8      	mov	r8, r5
 800348e:	17ed      	asrs	r5, r5, #31
 8003490:	f10c 0c01 	add.w	ip, ip, #1
 8003494:	6820      	ldr	r0, [r4, #0]
 8003496:	4560      	cmp	r0, ip
 8003498:	d2ea      	bcs.n	8003470 <cmox_FieldBN_Mul2+0x8e>
 800349a:	2000      	movs	r0, #0
 800349c:	e8bd 87f0 	ldmia.w	sp!, {r4, r5, r6, r7, r8, r9, sl, pc}

080034a0 <cmox_FieldBN_CondNegate>:
 80034a0:	e92d 43f8 	stmdb	sp!, {r3, r4, r5, r6, r7, r8, r9, lr}
 80034a4:	2400      	movs	r4, #0
 80034a6:	2500      	movs	r5, #0
 80034a8:	2900      	cmp	r1, #0
 80034aa:	bf18      	it	ne
 80034ac:	2a00      	cmpne	r2, #0
 80034ae:	d003      	beq.n	80034b8 <cmox_FieldBN_CondNegate+0x18>
 80034b0:	680b      	ldr	r3, [r1, #0]
 80034b2:	6816      	ldr	r6, [r2, #0]
 80034b4:	42b3      	cmp	r3, r6
 80034b6:	d201      	bcs.n	80034bc <cmox_FieldBN_CondNegate+0x1c>
 80034b8:	2001      	movs	r0, #1
 80034ba:	e01d      	b.n	80034f8 <cmox_FieldBN_CondNegate+0x58>
 80034bc:	2701      	movs	r7, #1
 80034be:	4681      	mov	r9, r0
 80034c0:	460e      	mov	r6, r1
 80034c2:	4690      	mov	r8, r2
 80034c4:	e013      	b.n	80034ee <cmox_FieldBN_CondNegate+0x4e>
 80034c6:	f858 0027 	ldr.w	r0, [r8, r7, lsl #2]
 80034ca:	f856 2027 	ldr.w	r2, [r6, r7, lsl #2]
 80034ce:	2100      	movs	r1, #0
 80034d0:	1820      	adds	r0, r4, r0
 80034d2:	4169      	adcs	r1, r5
 80034d4:	2300      	movs	r3, #0
 80034d6:	1a84      	subs	r4, r0, r2
 80034d8:	eb61 0503 	sbc.w	r5, r1, r3
 80034dc:	4621      	mov	r1, r4
 80034de:	4648      	mov	r0, r9
 80034e0:	f000 f8ab 	bl	800363a <cmox_mathUtils_mux>
 80034e4:	f846 0027 	str.w	r0, [r6, r7, lsl #2]
 80034e8:	462c      	mov	r4, r5
 80034ea:	17ed      	asrs	r5, r5, #31
 80034ec:	1c7f      	adds	r7, r7, #1
 80034ee:	f8d8 0000 	ldr.w	r0, [r8]
 80034f2:	42b8      	cmp	r0, r7
 80034f4:	d2e7      	bcs.n	80034c6 <cmox_FieldBN_CondNegate+0x26>
 80034f6:	2000      	movs	r0, #0
 80034f8:	e8bd 83f2 	ldmia.w	sp!, {r1, r4, r5, r6, r7, r8, r9, pc}

080034fc <cmox_ModularBN_InitWithR2>:
 80034fc:	b5f8      	push	{r3, r4, r5, r6, r7, lr}
 80034fe:	4617      	mov	r7, r2
 8003500:	4605      	mov	r5, r0
 8003502:	460e      	mov	r6, r1
 8003504:	682a      	ldr	r2, [r5, #0]
 8003506:	4618      	mov	r0, r3
 8003508:	0052      	lsls	r2, r2, #1
 800350a:	f107 0108 	add.w	r1, r7, #8
 800350e:	f001 fe89 	bl	8005224 <cmox_bn_alloc>
 8003512:	0004      	movs	r4, r0
 8003514:	d109      	bne.n	800352a <cmox_ModularBN_InitWithR2+0x2e>
 8003516:	607e      	str	r6, [r7, #4]
 8003518:	603d      	str	r5, [r7, #0]
 800351a:	f107 010c 	add.w	r1, r7, #12
 800351e:	6868      	ldr	r0, [r5, #4]
 8003520:	f7ff fd63 	bl	8002fea <basic_type_modinv>
 8003524:	68f8      	ldr	r0, [r7, #12]
 8003526:	4240      	negs	r0, r0
 8003528:	60f8      	str	r0, [r7, #12]
 800352a:	4620      	mov	r0, r4
 800352c:	bdf2      	pop	{r1, r4, r5, r6, r7, pc}

0800352e <cmox_ModularBN_Enter>:
 800352e:	b580      	push	{r7, lr}
 8003530:	460b      	mov	r3, r1
 8003532:	9200      	str	r2, [sp, #0]
 8003534:	4602      	mov	r2, r0
 8003536:	6859      	ldr	r1, [r3, #4]
 8003538:	f000 f823 	bl	8003582 <cmox_ModularBN_Mul>
 800353c:	bd02      	pop	{r1, pc}

0800353e <cmox_ModularBN_Exit>:
 800353e:	e92d 41fc 	stmdb	sp!, {r2, r3, r4, r5, r6, r7, r8, lr}
 8003542:	461f      	mov	r7, r3
 8003544:	4605      	mov	r5, r0
 8003546:	2300      	movs	r3, #0
 8003548:	4690      	mov	r8, r2
 800354a:	9301      	str	r3, [sp, #4]
 800354c:	460e      	mov	r6, r1
 800354e:	682a      	ldr	r2, [r5, #0]
 8003550:	a901      	add	r1, sp, #4
 8003552:	4640      	mov	r0, r8
 8003554:	f001 fe66 	bl	8005224 <cmox_bn_alloc>
 8003558:	0004      	movs	r4, r0
 800355a:	d10f      	bne.n	800357c <cmox_ModularBN_Exit+0x3e>
 800355c:	9801      	ldr	r0, [sp, #4]
 800355e:	2101      	movs	r1, #1
 8003560:	f001 fe97 	bl	8005292 <cmox_bn_init>
 8003564:	9700      	str	r7, [sp, #0]
 8003566:	4633      	mov	r3, r6
 8003568:	9901      	ldr	r1, [sp, #4]
 800356a:	462a      	mov	r2, r5
 800356c:	4628      	mov	r0, r5
 800356e:	f000 f808 	bl	8003582 <cmox_ModularBN_Mul>
 8003572:	4604      	mov	r4, r0
 8003574:	a901      	add	r1, sp, #4
 8003576:	4640      	mov	r0, r8
 8003578:	f001 fe5f 	bl	800523a <cmox_bn_free>
 800357c:	4620      	mov	r0, r4
 800357e:	e8bd 81f6 	ldmia.w	sp!, {r1, r2, r4, r5, r6, r7, r8, pc}

08003582 <cmox_ModularBN_Mul>:
 8003582:	b5fe      	push	{r1, r2, r3, r4, r5, r6, r7, lr}
 8003584:	461d      	mov	r5, r3
 8003586:	4614      	mov	r4, r2
 8003588:	682a      	ldr	r2, [r5, #0]
 800358a:	6823      	ldr	r3, [r4, #0]
 800358c:	6816      	ldr	r6, [r2, #0]
 800358e:	42b3      	cmp	r3, r6
 8003590:	d201      	bcs.n	8003596 <cmox_ModularBN_Mul+0x14>
 8003592:	2003      	movs	r0, #3
 8003594:	bdfe      	pop	{r1, r2, r3, r4, r5, r6, r7, pc}
 8003596:	68eb      	ldr	r3, [r5, #12]
 8003598:	9f08      	ldr	r7, [sp, #32]
 800359a:	9301      	str	r3, [sp, #4]
 800359c:	1d12      	adds	r2, r2, #4
 800359e:	9200      	str	r2, [sp, #0]
 80035a0:	1d09      	adds	r1, r1, #4
 80035a2:	68aa      	ldr	r2, [r5, #8]
 80035a4:	f8d7 c000 	ldr.w	ip, [r7]
 80035a8:	1d13      	adds	r3, r2, #4
 80035aa:	4632      	mov	r2, r6
 80035ac:	1d00      	adds	r0, r0, #4
 80035ae:	47e0      	blx	ip
 80035b0:	68e8      	ldr	r0, [r5, #12]
 80035b2:	9000      	str	r0, [sp, #0]
 80035b4:	1d23      	adds	r3, r4, #4
 80035b6:	6829      	ldr	r1, [r5, #0]
 80035b8:	68a8      	ldr	r0, [r5, #8]
 80035ba:	687c      	ldr	r4, [r7, #4]
 80035bc:	1d0a      	adds	r2, r1, #4
 80035be:	4631      	mov	r1, r6
 80035c0:	1d00      	adds	r0, r0, #4
 80035c2:	47a0      	blx	r4
 80035c4:	2000      	movs	r0, #0
 80035c6:	bdfe      	pop	{r1, r2, r3, r4, r5, r6, r7, pc}

080035c8 <cmox_ModularBN_Sqr>:
 80035c8:	b5f8      	push	{r3, r4, r5, r6, r7, lr}
 80035ca:	4615      	mov	r5, r2
 80035cc:	460c      	mov	r4, r1
 80035ce:	6829      	ldr	r1, [r5, #0]
 80035d0:	6822      	ldr	r2, [r4, #0]
 80035d2:	680e      	ldr	r6, [r1, #0]
 80035d4:	42b2      	cmp	r2, r6
 80035d6:	461f      	mov	r7, r3
 80035d8:	d201      	bcs.n	80035de <cmox_ModularBN_Sqr+0x16>
 80035da:	2003      	movs	r0, #3
 80035dc:	bdf2      	pop	{r1, r4, r5, r6, r7, pc}
 80035de:	68ea      	ldr	r2, [r5, #12]
 80035e0:	9200      	str	r2, [sp, #0]
 80035e2:	1d0b      	adds	r3, r1, #4
 80035e4:	68a9      	ldr	r1, [r5, #8]
 80035e6:	f8d7 c008 	ldr.w	ip, [r7, #8]
 80035ea:	1d0a      	adds	r2, r1, #4
 80035ec:	4631      	mov	r1, r6
 80035ee:	1d00      	adds	r0, r0, #4
 80035f0:	47e0      	blx	ip
 80035f2:	68e8      	ldr	r0, [r5, #12]
 80035f4:	9000      	str	r0, [sp, #0]
 80035f6:	1d23      	adds	r3, r4, #4
 80035f8:	6829      	ldr	r1, [r5, #0]
 80035fa:	68a8      	ldr	r0, [r5, #8]
 80035fc:	68fc      	ldr	r4, [r7, #12]
 80035fe:	1d0a      	adds	r2, r1, #4
 8003600:	4631      	mov	r1, r6
 8003602:	1d00      	adds	r0, r0, #4
 8003604:	47a0      	blx	r4
 8003606:	2000      	movs	r0, #0
 8003608:	bdf2      	pop	{r1, r4, r5, r6, r7, pc}

0800360a <cmox_ModularBN_DeinitWithR2>:
 800360a:	460a      	mov	r2, r1
 800360c:	2100      	movs	r1, #0
 800360e:	6001      	str	r1, [r0, #0]
 8003610:	60c1      	str	r1, [r0, #12]
 8003612:	6881      	ldr	r1, [r0, #8]
 8003614:	b121      	cbz	r1, 8003620 <cmox_ModularBN_DeinitWithR2+0x16>
 8003616:	f100 0108 	add.w	r1, r0, #8
 800361a:	4610      	mov	r0, r2
 800361c:	f001 be0d 	b.w	800523a <cmox_bn_free>
 8003620:	4770      	bx	lr

08003622 <cmox_asm_montymul__sqr>:
 8003622:	b510      	push	{r4, lr}
 8003624:	b082      	sub	sp, #8
 8003626:	9300      	str	r3, [sp, #0]
 8003628:	4613      	mov	r3, r2
 800362a:	9c04      	ldr	r4, [sp, #16]
 800362c:	9401      	str	r4, [sp, #4]
 800362e:	460a      	mov	r2, r1
 8003630:	4601      	mov	r1, r0
 8003632:	f002 fa1d 	bl	8005a70 <cmox_asm_montymul>
 8003636:	b002      	add	sp, #8
 8003638:	bd10      	pop	{r4, pc}

0800363a <cmox_mathUtils_mux>:
 800363a:	4240      	negs	r0, r0
 800363c:	4051      	eors	r1, r2
 800363e:	4008      	ands	r0, r1
 8003640:	4050      	eors	r0, r2
 8003642:	4770      	bx	lr

08003644 <cmox_mathUtils_not>:
 8003644:	f080 0001 	eor.w	r0, r0, #1
 8003648:	4770      	bx	lr

0800364a <cmox_mathUtils_neq>:
 800364a:	4048      	eors	r0, r1
 800364c:	4241      	negs	r1, r0
 800364e:	4308      	orrs	r0, r1
 8003650:	0fc0      	lsrs	r0, r0, #31
 8003652:	4770      	bx	lr

08003654 <cmox_mathUtils_gt>:
 8003654:	1a0a      	subs	r2, r1, r0
 8003656:	4041      	eors	r1, r0
 8003658:	4050      	eors	r0, r2
 800365a:	4008      	ands	r0, r1
 800365c:	4050      	eors	r0, r2
 800365e:	0fc0      	lsrs	r0, r0, #31
 8003660:	4770      	bx	lr

08003662 <cmox_mathUtils_bitLength>:
 8003662:	b510      	push	{r4, lr}
 8003664:	4601      	mov	r1, r0
 8003666:	2020      	movs	r0, #32
 8003668:	2201      	movs	r2, #1
 800366a:	231f      	movs	r3, #31
 800366c:	fa21 f403 	lsr.w	r4, r1, r3
 8003670:	f004 0401 	and.w	r4, r4, #1
 8003674:	f084 0401 	eor.w	r4, r4, #1
 8003678:	4022      	ands	r2, r4
 800367a:	1a80      	subs	r0, r0, r2
 800367c:	1e5b      	subs	r3, r3, #1
 800367e:	f113 0f01 	cmn.w	r3, #1
 8003682:	d1f3      	bne.n	800366c <cmox_mathUtils_bitLength+0xa>
 8003684:	bd10      	pop	{r4, pc}

08003686 <cmox_mathUtils_abs>:
 8003686:	4601      	mov	r1, r0
 8003688:	4248      	negs	r0, r1
 800368a:	ea01 72e0 	and.w	r2, r1, r0, asr #31
 800368e:	ea00 70e1 	and.w	r0, r0, r1, asr #31
 8003692:	4310      	orrs	r0, r2
 8003694:	4770      	bx	lr

08003696 <cmox_membuf_init>:
 8003696:	2300      	movs	r3, #0

08003698 <cmox_membuf_set>:
 8003698:	2900      	cmp	r1, #0
 800369a:	bf18      	it	ne
 800369c:	2a00      	cmpne	r2, #0
 800369e:	d004      	beq.n	80036aa <cmox_membuf_set+0x12>
 80036a0:	6001      	str	r1, [r0, #0]
 80036a2:	6042      	str	r2, [r0, #4]
 80036a4:	2100      	movs	r1, #0
 80036a6:	6083      	str	r3, [r0, #8]
 80036a8:	60c1      	str	r1, [r0, #12]
 80036aa:	4770      	bx	lr

080036ac <cmox_membuf_getFree>:
 80036ac:	4601      	mov	r1, r0
 80036ae:	6848      	ldr	r0, [r1, #4]
 80036b0:	6889      	ldr	r1, [r1, #8]
 80036b2:	1a40      	subs	r0, r0, r1
 80036b4:	4770      	bx	lr

080036b6 <cmox_membuf_alloc>:
 80036b6:	b520      	push	{r5, lr}
 80036b8:	b111      	cbz	r1, 80036c0 <cmox_membuf_alloc+0xa>
 80036ba:	b91a      	cbnz	r2, 80036c4 <cmox_membuf_alloc+0xe>
 80036bc:	2000      	movs	r0, #0
 80036be:	6008      	str	r0, [r1, #0]
 80036c0:	2001      	movs	r0, #1
 80036c2:	bd20      	pop	{r5, pc}
 80036c4:	6883      	ldr	r3, [r0, #8]
 80036c6:	6845      	ldr	r5, [r0, #4]
 80036c8:	1cd2      	adds	r2, r2, #3
 80036ca:	0892      	lsrs	r2, r2, #2
 80036cc:	eb03 0282 	add.w	r2, r3, r2, lsl #2
 80036d0:	4295      	cmp	r5, r2
 80036d2:	d203      	bcs.n	80036dc <cmox_membuf_alloc+0x26>
 80036d4:	2000      	movs	r0, #0
 80036d6:	6008      	str	r0, [r1, #0]
 80036d8:	2002      	movs	r0, #2
 80036da:	bd20      	pop	{r5, pc}
 80036dc:	6805      	ldr	r5, [r0, #0]
 80036de:	442b      	add	r3, r5
 80036e0:	600b      	str	r3, [r1, #0]
 80036e2:	6082      	str	r2, [r0, #8]
 80036e4:	4611      	mov	r1, r2
 80036e6:	68c2      	ldr	r2, [r0, #12]
 80036e8:	4291      	cmp	r1, r2
 80036ea:	bf38      	it	cc
 80036ec:	4611      	movcc	r1, r2
 80036ee:	60c1      	str	r1, [r0, #12]
 80036f0:	2000      	movs	r0, #0
 80036f2:	bd20      	pop	{r5, pc}

080036f4 <cmox_membuf_free>:
 80036f4:	b510      	push	{r4, lr}
 80036f6:	4604      	mov	r4, r0
 80036f8:	2000      	movs	r0, #0
 80036fa:	2900      	cmp	r1, #0
 80036fc:	bf1c      	itt	ne
 80036fe:	680b      	ldrne	r3, [r1, #0]
 8003700:	2b00      	cmpne	r3, #0
 8003702:	d003      	beq.n	800370c <cmox_membuf_free+0x18>
 8003704:	b112      	cbz	r2, 800370c <cmox_membuf_free+0x18>
 8003706:	68a3      	ldr	r3, [r4, #8]
 8003708:	4293      	cmp	r3, r2
 800370a:	d201      	bcs.n	8003710 <cmox_membuf_free+0x1c>
 800370c:	2001      	movs	r0, #1
 800370e:	bd10      	pop	{r4, pc}
 8003710:	1cd2      	adds	r2, r2, #3
 8003712:	0892      	lsrs	r2, r2, #2
 8003714:	6008      	str	r0, [r1, #0]
 8003716:	eba3 0282 	sub.w	r2, r3, r2, lsl #2
 800371a:	60a2      	str	r2, [r4, #8]
 800371c:	bd10      	pop	{r4, pc}

0800371e <cmox_membuf_cleanup>:
 800371e:	b510      	push	{r4, lr}
 8003720:	4604      	mov	r4, r0
 8003722:	6861      	ldr	r1, [r4, #4]
 8003724:	6820      	ldr	r0, [r4, #0]
 8003726:	f005 fdb1 	bl	800928c <__aeabi_memclr>
 800372a:	2000      	movs	r0, #0
 800372c:	2100      	movs	r1, #0
 800372e:	2200      	movs	r2, #0
 8003730:	2300      	movs	r3, #0
 8003732:	e884 000f 	stmia.w	r4, {r0, r1, r2, r3}
 8003736:	bd10      	pop	{r4, pc}
 8003738:	0101b004 	.word	0x0101b004
 800373c:	45011700 	.word	0x45011700

08003740 <.text_19>:
	...

08003748 <cmox_ModExpBN_SW>:
 8003748:	e92d 4ff2 	stmdb	sp!, {r1, r4, r5, r6, r7, r8, r9, sl, fp, lr}
 800374c:	b08a      	sub	sp, #40	; 0x28
 800374e:	4683      	mov	fp, r0
 8003750:	2001      	movs	r0, #1
 8003752:	f88d 0008 	strb.w	r0, [sp, #8]
 8003756:	2400      	movs	r4, #0
 8003758:	980a      	ldr	r0, [sp, #40]	; 0x28
 800375a:	f8dd 9054 	ldr.w	r9, [sp, #84]	; 0x54
 800375e:	2601      	movs	r6, #1
 8003760:	4617      	mov	r7, r2
 8003762:	2500      	movs	r5, #0
 8003764:	9507      	str	r5, [sp, #28]
 8003766:	9501      	str	r5, [sp, #4]
 8003768:	46aa      	mov	sl, r5
 800376a:	6801      	ldr	r1, [r0, #0]
 800376c:	2901      	cmp	r1, #1
 800376e:	bf88      	it	hi
 8003770:	b2de      	uxtbhi	r6, r3
 8003772:	2101      	movs	r1, #1
 8003774:	1e70      	subs	r0, r6, #1
 8003776:	4081      	lsls	r1, r0
 8003778:	0089      	lsls	r1, r1, #2
 800377a:	9109      	str	r1, [sp, #36]	; 0x24
 800377c:	460a      	mov	r2, r1
 800377e:	a901      	add	r1, sp, #4
 8003780:	4648      	mov	r0, r9
 8003782:	f7ff ff98 	bl	80036b6 <cmox_membuf_alloc>
 8003786:	2800      	cmp	r0, #0
 8003788:	9004      	str	r0, [sp, #16]
 800378a:	f040 80ef 	bne.w	800396c <cmox_ModExpBN_SW+0x224>
 800378e:	46a8      	mov	r8, r5
 8003790:	e00c      	b.n	80037ac <cmox_ModExpBN_SW+0x64>
 8003792:	6838      	ldr	r0, [r7, #0]
 8003794:	9901      	ldr	r1, [sp, #4]
 8003796:	6802      	ldr	r2, [r0, #0]
 8003798:	eb01 0188 	add.w	r1, r1, r8, lsl #2
 800379c:	4648      	mov	r0, r9
 800379e:	f001 fd41 	bl	8005224 <cmox_bn_alloc>
 80037a2:	2800      	cmp	r0, #0
 80037a4:	9004      	str	r0, [sp, #16]
 80037a6:	d175      	bne.n	8003894 <cmox_ModExpBN_SW+0x14c>
 80037a8:	f108 0801 	add.w	r8, r8, #1
 80037ac:	2001      	movs	r0, #1
 80037ae:	1e72      	subs	r2, r6, #1
 80037b0:	4090      	lsls	r0, r2
 80037b2:	4580      	cmp	r8, r0
 80037b4:	9006      	str	r0, [sp, #24]
 80037b6:	d3ec      	bcc.n	8003792 <cmox_ModExpBN_SW+0x4a>
 80037b8:	9801      	ldr	r0, [sp, #4]
 80037ba:	f8cd b00c 	str.w	fp, [sp, #12]
 80037be:	2100      	movs	r1, #0
 80037c0:	6800      	ldr	r0, [r0, #0]
 80037c2:	f001 fd66 	bl	8005292 <cmox_bn_init>
 80037c6:	9814      	ldr	r0, [sp, #80]	; 0x50
 80037c8:	2100      	movs	r1, #0
 80037ca:	f001 fd62 	bl	8005292 <cmox_bn_init>
 80037ce:	9801      	ldr	r0, [sp, #4]
 80037d0:	6802      	ldr	r2, [r0, #0]
 80037d2:	9903      	ldr	r1, [sp, #12]
 80037d4:	2001      	movs	r0, #1
 80037d6:	f001 fd6b 	bl	80052b0 <cmox_bn_cCopy>
 80037da:	f8dd b058 	ldr.w	fp, [sp, #88]	; 0x58
 80037de:	9700      	str	r7, [sp, #0]
 80037e0:	2700      	movs	r7, #0
 80037e2:	e007      	b.n	80037f4 <cmox_ModExpBN_SW+0xac>
 80037e4:	9801      	ldr	r0, [sp, #4]
 80037e6:	6800      	ldr	r0, [r0, #0]
 80037e8:	9a00      	ldr	r2, [sp, #0]
 80037ea:	465b      	mov	r3, fp
 80037ec:	4601      	mov	r1, r0
 80037ee:	f7ff feeb 	bl	80035c8 <cmox_ModularBN_Sqr>
 80037f2:	1c7f      	adds	r7, r7, #1
 80037f4:	1e70      	subs	r0, r6, #1
 80037f6:	4287      	cmp	r7, r0
 80037f8:	d3f4      	bcc.n	80037e4 <cmox_ModExpBN_SW+0x9c>
 80037fa:	9900      	ldr	r1, [sp, #0]
 80037fc:	9605      	str	r6, [sp, #20]
 80037fe:	4658      	mov	r0, fp
 8003800:	1e73      	subs	r3, r6, #1
 8003802:	2701      	movs	r7, #1
 8003804:	f88d 3009 	strb.w	r3, [sp, #9]
 8003808:	468b      	mov	fp, r1
 800380a:	4606      	mov	r6, r0
 800380c:	e00c      	b.n	8003828 <cmox_ModExpBN_SW+0xe0>
 800380e:	9600      	str	r6, [sp, #0]
 8003810:	465b      	mov	r3, fp
 8003812:	9801      	ldr	r0, [sp, #4]
 8003814:	9903      	ldr	r1, [sp, #12]
 8003816:	f850 2027 	ldr.w	r2, [r0, r7, lsl #2]
 800381a:	eb00 0c87 	add.w	ip, r0, r7, lsl #2
 800381e:	1c7f      	adds	r7, r7, #1
 8003820:	f85c 0c04 	ldr.w	r0, [ip, #-4]
 8003824:	f7ff fead 	bl	8003582 <cmox_ModularBN_Mul>
 8003828:	9806      	ldr	r0, [sp, #24]
 800382a:	4287      	cmp	r7, r0
 800382c:	d3ef      	bcc.n	800380e <cmox_ModExpBN_SW+0xc6>
 800382e:	9616      	str	r6, [sp, #88]	; 0x58
 8003830:	980a      	ldr	r0, [sp, #40]	; 0x28
 8003832:	6801      	ldr	r1, [r0, #0]
 8003834:	9814      	ldr	r0, [sp, #80]	; 0x50
 8003836:	9106      	str	r1, [sp, #24]
 8003838:	2100      	movs	r1, #0
 800383a:	f001 fd2a 	bl	8005292 <cmox_bn_init>
 800383e:	9a14      	ldr	r2, [sp, #80]	; 0x50
 8003840:	9903      	ldr	r1, [sp, #12]
 8003842:	2001      	movs	r0, #1
 8003844:	f001 fd34 	bl	80052b0 <cmox_bn_cCopy>
 8003848:	2001      	movs	r0, #1
 800384a:	9008      	str	r0, [sp, #32]
 800384c:	e015      	b.n	800387a <cmox_ModExpBN_SW+0x132>
 800384e:	980a      	ldr	r0, [sp, #40]	; 0x28
 8003850:	9906      	ldr	r1, [sp, #24]
 8003852:	f850 0021 	ldr.w	r0, [r0, r1, lsl #2]
 8003856:	9906      	ldr	r1, [sp, #24]
 8003858:	1e49      	subs	r1, r1, #1
 800385a:	2220      	movs	r2, #32
 800385c:	9007      	str	r0, [sp, #28]
 800385e:	9106      	str	r1, [sp, #24]
 8003860:	f88d 2008 	strb.w	r2, [sp, #8]
 8003864:	9807      	ldr	r0, [sp, #28]
 8003866:	9907      	ldr	r1, [sp, #28]
 8003868:	0fc0      	lsrs	r0, r0, #31
 800386a:	0049      	lsls	r1, r1, #1
 800386c:	002a      	movs	r2, r5
 800386e:	9107      	str	r1, [sp, #28]
 8003870:	d13b      	bne.n	80038ea <cmox_ModExpBN_SW+0x1a2>
 8003872:	2800      	cmp	r0, #0
 8003874:	d001      	beq.n	800387a <cmox_ModExpBN_SW+0x132>
 8003876:	d043      	beq.n	8003900 <cmox_ModExpBN_SW+0x1b8>
 8003878:	2501      	movs	r5, #1
 800387a:	f89d 0008 	ldrb.w	r0, [sp, #8]
 800387e:	1e41      	subs	r1, r0, #1
 8003880:	f88d 1008 	strb.w	r1, [sp, #8]
 8003884:	f89d 0008 	ldrb.w	r0, [sp, #8]
 8003888:	2800      	cmp	r0, #0
 800388a:	d1eb      	bne.n	8003864 <cmox_ModExpBN_SW+0x11c>
 800388c:	9806      	ldr	r0, [sp, #24]
 800388e:	2800      	cmp	r0, #0
 8003890:	d1dd      	bne.n	800384e <cmox_ModExpBN_SW+0x106>
 8003892:	2d02      	cmp	r5, #2
 8003894:	d11c      	bne.n	80038d0 <cmox_ModExpBN_SW+0x188>
 8003896:	b2e0      	uxtb	r0, r4
 8003898:	b1d0      	cbz	r0, 80038d0 <cmox_ModExpBN_SW+0x188>
 800389a:	b2e5      	uxtb	r5, r4
 800389c:	9c14      	ldr	r4, [sp, #80]	; 0x50
 800389e:	9e16      	ldr	r6, [sp, #88]	; 0x58
 80038a0:	9f05      	ldr	r7, [sp, #20]
 80038a2:	4633      	mov	r3, r6
 80038a4:	465a      	mov	r2, fp
 80038a6:	4621      	mov	r1, r4
 80038a8:	4620      	mov	r0, r4
 80038aa:	f7ff fe8d 	bl	80035c8 <cmox_ModularBN_Sqr>
 80038ae:	9908      	ldr	r1, [sp, #32]
 80038b0:	ea4f 0a4a 	mov.w	sl, sl, lsl #1
 80038b4:	40b9      	lsls	r1, r7
 80038b6:	fa5f f08a 	uxtb.w	r0, sl
 80038ba:	4208      	tst	r0, r1
 80038bc:	d006      	beq.n	80038cc <cmox_ModExpBN_SW+0x184>
 80038be:	9600      	str	r6, [sp, #0]
 80038c0:	465b      	mov	r3, fp
 80038c2:	9903      	ldr	r1, [sp, #12]
 80038c4:	4622      	mov	r2, r4
 80038c6:	4620      	mov	r0, r4
 80038c8:	f7ff fe5b 	bl	8003582 <cmox_ModularBN_Mul>
 80038cc:	1e6d      	subs	r5, r5, #1
 80038ce:	d1e8      	bne.n	80038a2 <cmox_ModExpBN_SW+0x15a>
 80038d0:	f1b8 0f00 	cmp.w	r8, #0
 80038d4:	d045      	beq.n	8003962 <cmox_ModExpBN_SW+0x21a>
 80038d6:	9801      	ldr	r0, [sp, #4]
 80038d8:	eb00 0188 	add.w	r1, r0, r8, lsl #2
 80038dc:	1f09      	subs	r1, r1, #4
 80038de:	4648      	mov	r0, r9
 80038e0:	f001 fcab 	bl	800523a <cmox_bn_free>
 80038e4:	f1a8 0801 	sub.w	r8, r8, #1
 80038e8:	e7f2      	b.n	80038d0 <cmox_ModExpBN_SW+0x188>
 80038ea:	2d01      	cmp	r5, #1
 80038ec:	bf08      	it	eq
 80038ee:	2800      	cmpeq	r0, #0
 80038f0:	d106      	bne.n	8003900 <cmox_ModExpBN_SW+0x1b8>
 80038f2:	9914      	ldr	r1, [sp, #80]	; 0x50
 80038f4:	9b16      	ldr	r3, [sp, #88]	; 0x58
 80038f6:	465a      	mov	r2, fp
 80038f8:	4608      	mov	r0, r1
 80038fa:	f7ff fe65 	bl	80035c8 <cmox_ModularBN_Sqr>
 80038fe:	e7bc      	b.n	800387a <cmox_ModExpBN_SW+0x132>
 8003900:	9905      	ldr	r1, [sp, #20]
 8003902:	9a05      	ldr	r2, [sp, #20]
 8003904:	1c64      	adds	r4, r4, #1
 8003906:	1b09      	subs	r1, r1, r4
 8003908:	4088      	lsls	r0, r1
 800390a:	ea40 0a0a 	orr.w	sl, r0, sl
 800390e:	2502      	movs	r5, #2
 8003910:	b2e0      	uxtb	r0, r4
 8003912:	4290      	cmp	r0, r2
 8003914:	d1b1      	bne.n	800387a <cmox_ModExpBN_SW+0x132>
 8003916:	9d14      	ldr	r5, [sp, #80]	; 0x50
 8003918:	9c16      	ldr	r4, [sp, #88]	; 0x58
 800391a:	2700      	movs	r7, #0
 800391c:	4616      	mov	r6, r2
 800391e:	e006      	b.n	800392e <cmox_ModExpBN_SW+0x1e6>
 8003920:	4623      	mov	r3, r4
 8003922:	465a      	mov	r2, fp
 8003924:	4629      	mov	r1, r5
 8003926:	4628      	mov	r0, r5
 8003928:	f7ff fe4e 	bl	80035c8 <cmox_ModularBN_Sqr>
 800392c:	1c7f      	adds	r7, r7, #1
 800392e:	42b7      	cmp	r7, r6
 8003930:	d3f6      	bcc.n	8003920 <cmox_ModExpBN_SW+0x1d8>
 8003932:	9514      	str	r5, [sp, #80]	; 0x50
 8003934:	9416      	str	r4, [sp, #88]	; 0x58
 8003936:	9605      	str	r6, [sp, #20]
 8003938:	fa5f f48a 	uxtb.w	r4, sl
 800393c:	9a16      	ldr	r2, [sp, #88]	; 0x58
 800393e:	9d08      	ldr	r5, [sp, #32]
 8003940:	f99d 0009 	ldrsb.w	r0, [sp, #9]
 8003944:	9901      	ldr	r1, [sp, #4]
 8003946:	9200      	str	r2, [sp, #0]
 8003948:	4085      	lsls	r5, r0
 800394a:	9a14      	ldr	r2, [sp, #80]	; 0x50
 800394c:	ea24 0a05 	bic.w	sl, r4, r5
 8003950:	f851 102a 	ldr.w	r1, [r1, sl, lsl #2]
 8003954:	465b      	mov	r3, fp
 8003956:	4610      	mov	r0, r2
 8003958:	f7ff fe13 	bl	8003582 <cmox_ModularBN_Mul>
 800395c:	2400      	movs	r4, #0
 800395e:	46a2      	mov	sl, r4
 8003960:	e78a      	b.n	8003878 <cmox_ModExpBN_SW+0x130>
 8003962:	9a09      	ldr	r2, [sp, #36]	; 0x24
 8003964:	a901      	add	r1, sp, #4
 8003966:	4648      	mov	r0, r9
 8003968:	f7ff fec4 	bl	80036f4 <cmox_membuf_free>
 800396c:	9804      	ldr	r0, [sp, #16]
 800396e:	b00b      	add	sp, #44	; 0x2c
 8003970:	e8bd 8ff0 	ldmia.w	sp!, {r4, r5, r6, r7, r8, r9, sl, fp, pc}

08003974 <cmox_ScalarMul_FW>:
 8003974:	e92d 4ff4 	stmdb	sp!, {r2, r4, r5, r6, r7, r8, r9, sl, fp, lr}
 8003978:	b08c      	sub	sp, #48	; 0x30
 800397a:	4607      	mov	r7, r0
 800397c:	2001      	movs	r0, #1
 800397e:	468b      	mov	fp, r1
 8003980:	9009      	str	r0, [sp, #36]	; 0x24
 8003982:	2200      	movs	r2, #0
 8003984:	69b9      	ldr	r1, [r7, #24]
 8003986:	6988      	ldr	r0, [r1, #24]
 8003988:	6846      	ldr	r6, [r0, #4]
 800398a:	9204      	str	r2, [sp, #16]
 800398c:	461c      	mov	r4, r3
 800398e:	2100      	movs	r1, #0
 8003990:	4658      	mov	r0, fp
 8003992:	f001 fd0b 	bl	80053ac <cmox_bn_cmpUint>
 8003996:	b950      	cbnz	r0, 80039ae <cmox_ScalarMul_FW+0x3a>
 8003998:	69b8      	ldr	r0, [r7, #24]
 800399a:	6800      	ldr	r0, [r0, #0]
 800399c:	69c1      	ldr	r1, [r0, #28]
 800399e:	2901      	cmp	r1, #1
 80039a0:	d008      	beq.n	80039b4 <cmox_ScalarMul_FW+0x40>
 80039a2:	6881      	ldr	r1, [r0, #8]
 80039a4:	4658      	mov	r0, fp
 80039a6:	f001 fcc0 	bl	800532a <cmox_bn_cmp>
 80039aa:	2800      	cmp	r0, #0
 80039ac:	d402      	bmi.n	80039b4 <cmox_ScalarMul_FW+0x40>
 80039ae:	f04f 0801 	mov.w	r8, #1
 80039b2:	e1d7      	b.n	8003d64 <cmox_ScalarMul_FW+0x3f0>
 80039b4:	69b8      	ldr	r0, [r7, #24]
 80039b6:	6841      	ldr	r1, [r0, #4]
 80039b8:	698a      	ldr	r2, [r1, #24]
 80039ba:	69f8      	ldr	r0, [r7, #28]
 80039bc:	0092      	lsls	r2, r2, #2
 80039be:	f107 0114 	add.w	r1, r7, #20
 80039c2:	f7ff fe78 	bl	80036b6 <cmox_membuf_alloc>
 80039c6:	ea5f 0800 	movs.w	r8, r0
 80039ca:	d1f2      	bne.n	80039b2 <cmox_ScalarMul_FW+0x3e>
 80039cc:	2500      	movs	r5, #0
 80039ce:	e00c      	b.n	80039ea <cmox_ScalarMul_FW+0x76>
 80039d0:	6809      	ldr	r1, [r1, #0]
 80039d2:	680a      	ldr	r2, [r1, #0]
 80039d4:	6979      	ldr	r1, [r7, #20]
 80039d6:	6812      	ldr	r2, [r2, #0]
 80039d8:	eb01 0185 	add.w	r1, r1, r5, lsl #2
 80039dc:	f001 fc22 	bl	8005224 <cmox_bn_alloc>
 80039e0:	ea5f 0800 	movs.w	r8, r0
 80039e4:	f040 81b3 	bne.w	8003d4e <cmox_ScalarMul_FW+0x3da>
 80039e8:	1c6d      	adds	r5, r5, #1
 80039ea:	69b9      	ldr	r1, [r7, #24]
 80039ec:	684a      	ldr	r2, [r1, #4]
 80039ee:	6993      	ldr	r3, [r2, #24]
 80039f0:	69f8      	ldr	r0, [r7, #28]
 80039f2:	429d      	cmp	r5, r3
 80039f4:	d3ec      	bcc.n	80039d0 <cmox_ScalarMul_FW+0x5c>
 80039f6:	f04f 0901 	mov.w	r9, #1
 80039fa:	1e72      	subs	r2, r6, #1
 80039fc:	fa09 f202 	lsl.w	r2, r9, r2
 8003a00:	0092      	lsls	r2, r2, #2
 8003a02:	9208      	str	r2, [sp, #32]
 8003a04:	a901      	add	r1, sp, #4
 8003a06:	f7ff fe56 	bl	80036b6 <cmox_membuf_alloc>
 8003a0a:	ea5f 0800 	movs.w	r8, r0
 8003a0e:	46aa      	mov	sl, r5
 8003a10:	f040 8194 	bne.w	8003d3c <cmox_ScalarMul_FW+0x3c8>
 8003a14:	2500      	movs	r5, #0
 8003a16:	e010      	b.n	8003a3a <cmox_ScalarMul_FW+0xc6>
 8003a18:	9801      	ldr	r0, [sp, #4]
 8003a1a:	eb00 0185 	add.w	r1, r0, r5, lsl #2
 8003a1e:	4638      	mov	r0, r7
 8003a20:	f7fc ff15 	bl	800084e <cmox_ECC_AllocPoint>
 8003a24:	ea5f 0800 	movs.w	r8, r0
 8003a28:	f040 8181 	bne.w	8003d2e <cmox_ScalarMul_FW+0x3ba>
 8003a2c:	9801      	ldr	r0, [sp, #4]
 8003a2e:	f850 1025 	ldr.w	r1, [r0, r5, lsl #2]
 8003a32:	4638      	mov	r0, r7
 8003a34:	f7fc fff2 	bl	8000a1c <cmox_ECC_SetPointAtInfinity>
 8003a38:	1c6d      	adds	r5, r5, #1
 8003a3a:	1e71      	subs	r1, r6, #1
 8003a3c:	fa09 f101 	lsl.w	r1, r9, r1
 8003a40:	428d      	cmp	r5, r1
 8003a42:	d3e9      	bcc.n	8003a18 <cmox_ScalarMul_FW+0xa4>
 8003a44:	9702      	str	r7, [sp, #8]
 8003a46:	950b      	str	r5, [sp, #44]	; 0x2c
 8003a48:	9403      	str	r4, [sp, #12]
 8003a4a:	4621      	mov	r1, r4
 8003a4c:	9802      	ldr	r0, [sp, #8]
 8003a4e:	f7fc ffe5 	bl	8000a1c <cmox_ECC_SetPointAtInfinity>
 8003a52:	f89b 0004 	ldrb.w	r0, [fp, #4]
 8003a56:	f000 0001 	and.w	r0, r0, #1
 8003a5a:	9007      	str	r0, [sp, #28]
 8003a5c:	f04f 0800 	mov.w	r8, #0
 8003a60:	9802      	ldr	r0, [sp, #8]
 8003a62:	6981      	ldr	r1, [r0, #24]
 8003a64:	680a      	ldr	r2, [r1, #0]
 8003a66:	9807      	ldr	r0, [sp, #28]
 8003a68:	6892      	ldr	r2, [r2, #8]
 8003a6a:	4659      	mov	r1, fp
 8003a6c:	f1c0 0001 	rsb	r0, r0, #1
 8003a70:	f7ff fd16 	bl	80034a0 <cmox_FieldBN_CondNegate>
 8003a74:	f8db 0000 	ldr.w	r0, [fp]
 8003a78:	ebc6 1540 	rsb	r5, r6, r0, lsl #5
 8003a7c:	f85b 0020 	ldr.w	r0, [fp, r0, lsl #2]
 8003a80:	f7ff fdef 	bl	8003662 <cmox_mathUtils_bitLength>
 8003a84:	f8db 1000 	ldr.w	r1, [fp]
 8003a88:	1e49      	subs	r1, r1, #1
 8003a8a:	eb00 1041 	add.w	r0, r0, r1, lsl #5
 8003a8e:	1e71      	subs	r1, r6, #1
 8003a90:	fa09 f101 	lsl.w	r1, r9, r1
 8003a94:	1e49      	subs	r1, r1, #1
 8003a96:	9105      	str	r1, [sp, #20]
 8003a98:	fa09 f206 	lsl.w	r2, r9, r6
 8003a9c:	9206      	str	r2, [sp, #24]
 8003a9e:	4634      	mov	r4, r6
 8003aa0:	900a      	str	r0, [sp, #40]	; 0x28
 8003aa2:	e02d      	b.n	8003b00 <cmox_ScalarMul_FW+0x18c>
 8003aa4:	4642      	mov	r2, r8
 8003aa6:	1c61      	adds	r1, r4, #1
 8003aa8:	4658      	mov	r0, fp
 8003aaa:	f001 fcae 	bl	800540a <cmox_bn_getBits>
 8003aae:	4606      	mov	r6, r0
 8003ab0:	9806      	ldr	r0, [sp, #24]
 8003ab2:	1a30      	subs	r0, r6, r0
 8003ab4:	f7ff fde7 	bl	8003686 <cmox_mathUtils_abs>
 8003ab8:	4607      	mov	r7, r0
 8003aba:	eb04 0008 	add.w	r0, r4, r8
 8003abe:	9000      	str	r0, [sp, #0]
 8003ac0:	4601      	mov	r1, r0
 8003ac2:	4628      	mov	r0, r5
 8003ac4:	f7ff fdc6 	bl	8003654 <cmox_mathUtils_gt>
 8003ac8:	9906      	ldr	r1, [sp, #24]
 8003aca:	2200      	movs	r2, #0
 8003acc:	f7ff fdb5 	bl	800363a <cmox_mathUtils_mux>
 8003ad0:	ea40 0757 	orr.w	r7, r0, r7, lsr #1
 8003ad4:	980a      	ldr	r0, [sp, #40]	; 0x28
 8003ad6:	4641      	mov	r1, r8
 8003ad8:	f7ff fdbc 	bl	8003654 <cmox_mathUtils_gt>
 8003adc:	40e6      	lsrs	r6, r4
 8003ade:	f006 0601 	and.w	r6, r6, #1
 8003ae2:	1e63      	subs	r3, r4, #1
 8003ae4:	9a05      	ldr	r2, [sp, #20]
 8003ae6:	409e      	lsls	r6, r3
 8003ae8:	ea46 0107 	orr.w	r1, r6, r7
 8003aec:	f7ff fda5 	bl	800363a <cmox_mathUtils_mux>
 8003af0:	4603      	mov	r3, r0
 8003af2:	4642      	mov	r2, r8
 8003af4:	1c61      	adds	r1, r4, #1
 8003af6:	4658      	mov	r0, fp
 8003af8:	f001 fcab 	bl	8005452 <cmox_bn_setBits>
 8003afc:	f8dd 8000 	ldr.w	r8, [sp]
 8003b00:	45a8      	cmp	r8, r5
 8003b02:	d3cf      	bcc.n	8003aa4 <cmox_ScalarMul_FW+0x130>
 8003b04:	1c65      	adds	r5, r4, #1
 8003b06:	4642      	mov	r2, r8
 8003b08:	4629      	mov	r1, r5
 8003b0a:	4658      	mov	r0, fp
 8003b0c:	f001 fc7d 	bl	800540a <cmox_bn_getBits>
 8003b10:	0843      	lsrs	r3, r0, #1
 8003b12:	4642      	mov	r2, r8
 8003b14:	4629      	mov	r1, r5
 8003b16:	4658      	mov	r0, fp
 8003b18:	f001 fc9b 	bl	8005452 <cmox_bn_setBits>
 8003b1c:	980c      	ldr	r0, [sp, #48]	; 0x30
 8003b1e:	7c00      	ldrb	r0, [r0, #16]
 8003b20:	2100      	movs	r1, #0
 8003b22:	f000 0004 	and.w	r0, r0, #4
 8003b26:	f7ff fd90 	bl	800364a <cmox_mathUtils_neq>
 8003b2a:	b920      	cbnz	r0, 8003b36 <cmox_ScalarMul_FW+0x1c2>
 8003b2c:	9009      	str	r0, [sp, #36]	; 0x24
 8003b2e:	990c      	ldr	r1, [sp, #48]	; 0x30
 8003b30:	9802      	ldr	r0, [sp, #8]
 8003b32:	f7fd f833 	bl	8000b9c <cmox_ECC_PointToModularDomain>
 8003b36:	990c      	ldr	r1, [sp, #48]	; 0x30
 8003b38:	9802      	ldr	r0, [sp, #8]
 8003b3a:	f7fd f887 	bl	8000c4c <cmox_ECC_PointValidation>
 8003b3e:	ea5f 0800 	movs.w	r8, r0
 8003b42:	f040 80e9 	bne.w	8003d18 <cmox_ScalarMul_FW+0x3a4>
 8003b46:	9801      	ldr	r0, [sp, #4]
 8003b48:	6802      	ldr	r2, [r0, #0]
 8003b4a:	9802      	ldr	r0, [sp, #8]
 8003b4c:	6986      	ldr	r6, [r0, #24]
 8003b4e:	6875      	ldr	r5, [r6, #4]
 8003b50:	990c      	ldr	r1, [sp, #48]	; 0x30
 8003b52:	682e      	ldr	r6, [r5, #0]
 8003b54:	2301      	movs	r3, #1
 8003b56:	47b0      	blx	r6
 8003b58:	9901      	ldr	r1, [sp, #4]
 8003b5a:	9a0c      	ldr	r2, [sp, #48]	; 0x30
 8003b5c:	2000      	movs	r0, #0
 8003b5e:	9000      	str	r0, [sp, #0]
 8003b60:	9802      	ldr	r0, [sp, #8]
 8003b62:	6986      	ldr	r6, [r0, #24]
 8003b64:	6875      	ldr	r5, [r6, #4]
 8003b66:	684b      	ldr	r3, [r1, #4]
 8003b68:	6809      	ldr	r1, [r1, #0]
 8003b6a:	f8d5 c004 	ldr.w	ip, [r5, #4]
 8003b6e:	47e0      	blx	ip
 8003b70:	1e61      	subs	r1, r4, #1
 8003b72:	f88d 1000 	strb.w	r1, [sp]
 8003b76:	2502      	movs	r5, #2
 8003b78:	f89d 0000 	ldrb.w	r0, [sp]
 8003b7c:	9f02      	ldr	r7, [sp, #8]
 8003b7e:	fa09 f600 	lsl.w	r6, r9, r0
 8003b82:	e00e      	b.n	8003ba2 <cmox_ScalarMul_FW+0x22e>
 8003b84:	f8d7 c018 	ldr.w	ip, [r7, #24]
 8003b88:	f850 3025 	ldr.w	r3, [r0, r5, lsl #2]
 8003b8c:	f8dc e004 	ldr.w	lr, [ip, #4]
 8003b90:	f8de c008 	ldr.w	ip, [lr, #8]
 8003b94:	eb00 0185 	add.w	r1, r0, r5, lsl #2
 8003b98:	4638      	mov	r0, r7
 8003b9a:	f851 1c04 	ldr.w	r1, [r1, #-4]
 8003b9e:	47e0      	blx	ip
 8003ba0:	1c6d      	adds	r5, r5, #1
 8003ba2:	9801      	ldr	r0, [sp, #4]
 8003ba4:	6802      	ldr	r2, [r0, #0]
 8003ba6:	42b5      	cmp	r5, r6
 8003ba8:	d3ec      	bcc.n	8003b84 <cmox_ScalarMul_FW+0x210>
 8003baa:	990c      	ldr	r1, [sp, #48]	; 0x30
 8003bac:	2001      	movs	r0, #1
 8003bae:	f7fc fedb 	bl	8000968 <cmox_ECC_CondCopyPoint>
 8003bb2:	f8db 5000 	ldr.w	r5, [fp]
 8003bb6:	016d      	lsls	r5, r5, #5
 8003bb8:	1b2a      	subs	r2, r5, r4
 8003bba:	1e61      	subs	r1, r4, #1
 8003bbc:	4658      	mov	r0, fp
 8003bbe:	f001 fc24 	bl	800540a <cmox_bn_getBits>
 8003bc2:	9901      	ldr	r1, [sp, #4]
 8003bc4:	f851 1020 	ldr.w	r1, [r1, r0, lsl #2]
 8003bc8:	9a03      	ldr	r2, [sp, #12]
 8003bca:	2001      	movs	r0, #1
 8003bcc:	f7fc fecc 	bl	8000968 <cmox_ECC_CondCopyPoint>
 8003bd0:	eba5 0544 	sub.w	r5, r5, r4, lsl #1
 8003bd4:	9502      	str	r5, [sp, #8]
 8003bd6:	e02e      	b.n	8003c36 <cmox_ScalarMul_FW+0x2c2>
 8003bd8:	f8d7 c018 	ldr.w	ip, [r7, #24]
 8003bdc:	f8dc e004 	ldr.w	lr, [ip, #4]
 8003be0:	f8de c000 	ldr.w	ip, [lr]
 8003be4:	2301      	movs	r3, #1
 8003be6:	464a      	mov	r2, r9
 8003be8:	4649      	mov	r1, r9
 8003bea:	4638      	mov	r0, r7
 8003bec:	47e0      	blx	ip
 8003bee:	1e6d      	subs	r5, r5, #1
 8003bf0:	d1f2      	bne.n	8003bd8 <cmox_ScalarMul_FW+0x264>
 8003bf2:	9d04      	ldr	r5, [sp, #16]
 8003bf4:	9901      	ldr	r1, [sp, #4]
 8003bf6:	9806      	ldr	r0, [sp, #24]
 8003bf8:	f8cd 900c 	str.w	r9, [sp, #12]
 8003bfc:	40f5      	lsrs	r5, r6
 8003bfe:	f005 0501 	and.w	r5, r5, #1
 8003c02:	4045      	eors	r5, r0
 8003c04:	f851 2026 	ldr.w	r2, [r1, r6, lsl #2]
 8003c08:	f085 0501 	eor.w	r5, r5, #1
 8003c0c:	4639      	mov	r1, r7
 8003c0e:	4628      	mov	r0, r5
 8003c10:	f7fc fedd 	bl	80009ce <cmox_ECC_CondSymmetricPoint>
 8003c14:	9804      	ldr	r0, [sp, #16]
 8003c16:	9b03      	ldr	r3, [sp, #12]
 8003c18:	40b5      	lsls	r5, r6
 8003c1a:	4045      	eors	r5, r0
 8003c1c:	9801      	ldr	r0, [sp, #4]
 8003c1e:	9504      	str	r5, [sp, #16]
 8003c20:	4619      	mov	r1, r3
 8003c22:	69bd      	ldr	r5, [r7, #24]
 8003c24:	f850 2026 	ldr.w	r2, [r0, r6, lsl #2]
 8003c28:	686e      	ldr	r6, [r5, #4]
 8003c2a:	68b5      	ldr	r5, [r6, #8]
 8003c2c:	4638      	mov	r0, r7
 8003c2e:	47a8      	blx	r5
 8003c30:	9802      	ldr	r0, [sp, #8]
 8003c32:	1b00      	subs	r0, r0, r4
 8003c34:	9002      	str	r0, [sp, #8]
 8003c36:	9802      	ldr	r0, [sp, #8]
 8003c38:	42a0      	cmp	r0, r4
 8003c3a:	d310      	bcc.n	8003c5e <cmox_ScalarMul_FW+0x2ea>
 8003c3c:	4602      	mov	r2, r0
 8003c3e:	4621      	mov	r1, r4
 8003c40:	4658      	mov	r0, fp
 8003c42:	f001 fbe2 	bl	800540a <cmox_bn_getBits>
 8003c46:	f89d 2000 	ldrb.w	r2, [sp]
 8003c4a:	9905      	ldr	r1, [sp, #20]
 8003c4c:	f8dd 900c 	ldr.w	r9, [sp, #12]
 8003c50:	fa20 f302 	lsr.w	r3, r0, r2
 8003c54:	9306      	str	r3, [sp, #24]
 8003c56:	ea01 0600 	and.w	r6, r1, r0
 8003c5a:	0025      	movs	r5, r4
 8003c5c:	e7c8      	b.n	8003bf0 <cmox_ScalarMul_FW+0x27c>
 8003c5e:	2200      	movs	r2, #0
 8003c60:	4621      	mov	r1, r4
 8003c62:	4658      	mov	r0, fp
 8003c64:	f001 fbd1 	bl	800540a <cmox_bn_getBits>
 8003c68:	f89d 2000 	ldrb.w	r2, [sp]
 8003c6c:	9905      	ldr	r1, [sp, #20]
 8003c6e:	fa20 f302 	lsr.w	r3, r0, r2
 8003c72:	ea01 0b00 	and.w	fp, r1, r0
 8003c76:	9801      	ldr	r0, [sp, #4]
 8003c78:	f850 202b 	ldr.w	r2, [r0, fp, lsl #2]
 8003c7c:	9804      	ldr	r0, [sp, #16]
 8003c7e:	fa20 f00b 	lsr.w	r0, r0, fp
 8003c82:	f000 0001 	and.w	r0, r0, #1
 8003c86:	4043      	eors	r3, r0
 8003c88:	4639      	mov	r1, r7
 8003c8a:	f083 0001 	eor.w	r0, r3, #1
 8003c8e:	f7fc fe9e 	bl	80009ce <cmox_ECC_CondSymmetricPoint>
 8003c92:	4625      	mov	r5, r4
 8003c94:	9c03      	ldr	r4, [sp, #12]
 8003c96:	e007      	b.n	8003ca8 <cmox_ScalarMul_FW+0x334>
 8003c98:	f8d6 c000 	ldr.w	ip, [r6]
 8003c9c:	2301      	movs	r3, #1
 8003c9e:	4622      	mov	r2, r4
 8003ca0:	4621      	mov	r1, r4
 8003ca2:	4638      	mov	r0, r7
 8003ca4:	47e0      	blx	ip
 8003ca6:	1e6d      	subs	r5, r5, #1
 8003ca8:	69b8      	ldr	r0, [r7, #24]
 8003caa:	6846      	ldr	r6, [r0, #4]
 8003cac:	2d00      	cmp	r5, #0
 8003cae:	d1f3      	bne.n	8003c98 <cmox_ScalarMul_FW+0x324>
 8003cb0:	9702      	str	r7, [sp, #8]
 8003cb2:	4621      	mov	r1, r4
 8003cb4:	9801      	ldr	r0, [sp, #4]
 8003cb6:	6803      	ldr	r3, [r0, #0]
 8003cb8:	f850 202b 	ldr.w	r2, [r0, fp, lsl #2]
 8003cbc:	68b5      	ldr	r5, [r6, #8]
 8003cbe:	4638      	mov	r0, r7
 8003cc0:	47a8      	blx	r5
 8003cc2:	9801      	ldr	r0, [sp, #4]
 8003cc4:	6802      	ldr	r2, [r0, #0]
 8003cc6:	6890      	ldr	r0, [r2, #8]
 8003cc8:	2100      	movs	r1, #0
 8003cca:	f001 fb6f 	bl	80053ac <cmox_bn_cmpUint>
 8003cce:	4603      	mov	r3, r0
 8003cd0:	9801      	ldr	r0, [sp, #4]
 8003cd2:	6802      	ldr	r2, [r0, #0]
 8003cd4:	9802      	ldr	r0, [sp, #8]
 8003cd6:	6986      	ldr	r6, [r0, #24]
 8003cd8:	6875      	ldr	r5, [r6, #4]
 8003cda:	f8d5 c000 	ldr.w	ip, [r5]
 8003cde:	4621      	mov	r1, r4
 8003ce0:	47e0      	blx	ip
 8003ce2:	9801      	ldr	r0, [sp, #4]
 8003ce4:	6801      	ldr	r1, [r0, #0]
 8003ce6:	4622      	mov	r2, r4
 8003ce8:	2001      	movs	r0, #1
 8003cea:	f7fc fe3d 	bl	8000968 <cmox_ECC_CondCopyPoint>
 8003cee:	9807      	ldr	r0, [sp, #28]
 8003cf0:	9902      	ldr	r1, [sp, #8]
 8003cf2:	4622      	mov	r2, r4
 8003cf4:	f1c0 0001 	rsb	r0, r0, #1
 8003cf8:	f7fc fe69 	bl	80009ce <cmox_ECC_CondSymmetricPoint>
 8003cfc:	9809      	ldr	r0, [sp, #36]	; 0x24
 8003cfe:	b958      	cbnz	r0, 8003d18 <cmox_ScalarMul_FW+0x3a4>
 8003d00:	990c      	ldr	r1, [sp, #48]	; 0x30
 8003d02:	9802      	ldr	r0, [sp, #8]
 8003d04:	f7fc ff74 	bl	8000bf0 <cmox_ECC_PointFromModularDomain>
 8003d08:	4680      	mov	r8, r0
 8003d0a:	980c      	ldr	r0, [sp, #48]	; 0x30
 8003d0c:	42a0      	cmp	r0, r4
 8003d0e:	d003      	beq.n	8003d18 <cmox_ScalarMul_FW+0x3a4>
 8003d10:	9802      	ldr	r0, [sp, #8]
 8003d12:	4621      	mov	r1, r4
 8003d14:	f7fc ff6c 	bl	8000bf0 <cmox_ECC_PointFromModularDomain>
 8003d18:	9f02      	ldr	r7, [sp, #8]
 8003d1a:	9d0b      	ldr	r5, [sp, #44]	; 0x2c
 8003d1c:	e007      	b.n	8003d2e <cmox_ScalarMul_FW+0x3ba>
 8003d1e:	9801      	ldr	r0, [sp, #4]
 8003d20:	eb00 0185 	add.w	r1, r0, r5, lsl #2
 8003d24:	1f09      	subs	r1, r1, #4
 8003d26:	4638      	mov	r0, r7
 8003d28:	f7fc fded 	bl	8000906 <cmox_ECC_FreePoint>
 8003d2c:	1e6d      	subs	r5, r5, #1
 8003d2e:	2d00      	cmp	r5, #0
 8003d30:	d1f5      	bne.n	8003d1e <cmox_ScalarMul_FW+0x3aa>
 8003d32:	9a08      	ldr	r2, [sp, #32]
 8003d34:	69f8      	ldr	r0, [r7, #28]
 8003d36:	a901      	add	r1, sp, #4
 8003d38:	f7ff fcdc 	bl	80036f4 <cmox_membuf_free>
 8003d3c:	4655      	mov	r5, sl
 8003d3e:	e006      	b.n	8003d4e <cmox_ScalarMul_FW+0x3da>
 8003d40:	6979      	ldr	r1, [r7, #20]
 8003d42:	eb01 0285 	add.w	r2, r1, r5, lsl #2
 8003d46:	1f11      	subs	r1, r2, #4
 8003d48:	f001 fa77 	bl	800523a <cmox_bn_free>
 8003d4c:	1e6d      	subs	r5, r5, #1
 8003d4e:	69f8      	ldr	r0, [r7, #28]
 8003d50:	2d00      	cmp	r5, #0
 8003d52:	d1f5      	bne.n	8003d40 <cmox_ScalarMul_FW+0x3cc>
 8003d54:	69b9      	ldr	r1, [r7, #24]
 8003d56:	684a      	ldr	r2, [r1, #4]
 8003d58:	6992      	ldr	r2, [r2, #24]
 8003d5a:	0092      	lsls	r2, r2, #2
 8003d5c:	f107 0114 	add.w	r1, r7, #20
 8003d60:	f7ff fcc8 	bl	80036f4 <cmox_membuf_free>
 8003d64:	4640      	mov	r0, r8
 8003d66:	b00d      	add	sp, #52	; 0x34
 8003d68:	e8bd 8ff0 	ldmia.w	sp!, {r4, r5, r6, r7, r8, r9, sl, fp, pc}

08003d6c <cmox_ScalarMul_SC>:
 8003d6c:	e92d 4ff6 	stmdb	sp!, {r1, r2, r4, r5, r6, r7, r8, r9, sl, fp, lr}
 8003d70:	4606      	mov	r6, r0
 8003d72:	b08b      	sub	sp, #44	; 0x2c
 8003d74:	4689      	mov	r9, r1
 8003d76:	69b1      	ldr	r1, [r6, #24]
 8003d78:	680a      	ldr	r2, [r1, #0]
 8003d7a:	6890      	ldr	r0, [r2, #8]
 8003d7c:	f001 fb2c 	bl	80053d8 <cmox_bn_countBits>
 8003d80:	69b1      	ldr	r1, [r6, #24]
 8003d82:	688a      	ldr	r2, [r1, #8]
 8003d84:	6813      	ldr	r3, [r2, #0]
 8003d86:	fbb0 f8f3 	udiv	r8, r0, r3
 8003d8a:	461d      	mov	r5, r3
 8003d8c:	1e5a      	subs	r2, r3, #1
 8003d8e:	9300      	str	r3, [sp, #0]
 8003d90:	fb05 0518 	mls	r5, r5, r8, r0
 8003d94:	f88d 2010 	strb.w	r2, [sp, #16]
 8003d98:	2301      	movs	r3, #1
 8003d9a:	f89d 0010 	ldrb.w	r0, [sp, #16]
 8003d9e:	4083      	lsls	r3, r0
 8003da0:	1e5b      	subs	r3, r3, #1
 8003da2:	9309      	str	r3, [sp, #36]	; 0x24
 8003da4:	2700      	movs	r7, #0
 8003da6:	680a      	ldr	r2, [r1, #0]
 8003da8:	6813      	ldr	r3, [r2, #0]
 8003daa:	681c      	ldr	r4, [r3, #0]
 8003dac:	9405      	str	r4, [sp, #20]
 8003dae:	2302      	movs	r3, #2
 8003db0:	9702      	str	r7, [sp, #8]
 8003db2:	9307      	str	r3, [sp, #28]
 8003db4:	688a      	ldr	r2, [r1, #8]
 8003db6:	9206      	str	r2, [sp, #24]
 8003db8:	6848      	ldr	r0, [r1, #4]
 8003dba:	69c1      	ldr	r1, [r0, #28]
 8003dbc:	2902      	cmp	r1, #2
 8003dbe:	bf04      	itt	eq
 8003dc0:	2003      	moveq	r0, #3
 8003dc2:	9007      	streq	r0, [sp, #28]
 8003dc4:	2100      	movs	r1, #0
 8003dc6:	4648      	mov	r0, r9
 8003dc8:	f001 faf0 	bl	80053ac <cmox_bn_cmpUint>
 8003dcc:	b950      	cbnz	r0, 8003de4 <cmox_ScalarMul_SC+0x78>
 8003dce:	69b0      	ldr	r0, [r6, #24]
 8003dd0:	6800      	ldr	r0, [r0, #0]
 8003dd2:	69c1      	ldr	r1, [r0, #28]
 8003dd4:	2901      	cmp	r1, #1
 8003dd6:	d007      	beq.n	8003de8 <cmox_ScalarMul_SC+0x7c>
 8003dd8:	6881      	ldr	r1, [r0, #8]
 8003dda:	4648      	mov	r0, r9
 8003ddc:	f001 faa5 	bl	800532a <cmox_bn_cmp>
 8003de0:	2800      	cmp	r0, #0
 8003de2:	d401      	bmi.n	8003de8 <cmox_ScalarMul_SC+0x7c>
 8003de4:	2401      	movs	r4, #1
 8003de6:	e193      	b.n	8004110 <cmox_ScalarMul_SC+0x3a4>
 8003de8:	69b0      	ldr	r0, [r6, #24]
 8003dea:	6841      	ldr	r1, [r0, #4]
 8003dec:	698a      	ldr	r2, [r1, #24]
 8003dee:	69f0      	ldr	r0, [r6, #28]
 8003df0:	0092      	lsls	r2, r2, #2
 8003df2:	f106 0114 	add.w	r1, r6, #20
 8003df6:	f7ff fc5e 	bl	80036b6 <cmox_membuf_alloc>
 8003dfa:	0004      	movs	r4, r0
 8003dfc:	d1f3      	bne.n	8003de6 <cmox_ScalarMul_SC+0x7a>
 8003dfe:	46ba      	mov	sl, r7
 8003e00:	e00d      	b.n	8003e1e <cmox_ScalarMul_SC+0xb2>
 8003e02:	6800      	ldr	r0, [r0, #0]
 8003e04:	6801      	ldr	r1, [r0, #0]
 8003e06:	6970      	ldr	r0, [r6, #20]
 8003e08:	680a      	ldr	r2, [r1, #0]
 8003e0a:	eb00 018a 	add.w	r1, r0, sl, lsl #2
 8003e0e:	69f0      	ldr	r0, [r6, #28]
 8003e10:	f001 fa08 	bl	8005224 <cmox_bn_alloc>
 8003e14:	0004      	movs	r4, r0
 8003e16:	f040 816f 	bne.w	80040f8 <cmox_ScalarMul_SC+0x38c>
 8003e1a:	f10a 0a01 	add.w	sl, sl, #1
 8003e1e:	69b0      	ldr	r0, [r6, #24]
 8003e20:	6841      	ldr	r1, [r0, #4]
 8003e22:	698a      	ldr	r2, [r1, #24]
 8003e24:	4592      	cmp	sl, r2
 8003e26:	dbec      	blt.n	8003e02 <cmox_ScalarMul_SC+0x96>
 8003e28:	f8cd a028 	str.w	sl, [sp, #40]	; 0x28
 8003e2c:	a902      	add	r1, sp, #8
 8003e2e:	4630      	mov	r0, r6
 8003e30:	f7fc fd0d 	bl	800084e <cmox_ECC_AllocPoint>
 8003e34:	0004      	movs	r4, r0
 8003e36:	f040 8154 	bne.w	80040e2 <cmox_ScalarMul_SC+0x376>
 8003e3a:	9902      	ldr	r1, [sp, #8]
 8003e3c:	4630      	mov	r0, r6
 8003e3e:	f7fc fded 	bl	8000a1c <cmox_ECC_SetPointAtInfinity>
 8003e42:	f899 0004 	ldrb.w	r0, [r9, #4]
 8003e46:	f000 0001 	and.w	r0, r0, #1
 8003e4a:	9008      	str	r0, [sp, #32]
 8003e4c:	4644      	mov	r4, r8
 8003e4e:	69b1      	ldr	r1, [r6, #24]
 8003e50:	6808      	ldr	r0, [r1, #0]
 8003e52:	6882      	ldr	r2, [r0, #8]
 8003e54:	9808      	ldr	r0, [sp, #32]
 8003e56:	4649      	mov	r1, r9
 8003e58:	f1c0 0001 	rsb	r0, r0, #1
 8003e5c:	f7ff fb20 	bl	80034a0 <cmox_FieldBN_CondNegate>
 8003e60:	f8dd a000 	ldr.w	sl, [sp]
 8003e64:	46b8      	mov	r8, r7
 8003e66:	e00b      	b.n	8003e80 <cmox_ScalarMul_SC+0x114>
 8003e68:	f108 0b01 	add.w	fp, r8, #1
 8003e6c:	fb04 520b 	mla	r2, r4, fp, r5
 8003e70:	2101      	movs	r1, #1
 8003e72:	4648      	mov	r0, r9
 8003e74:	f001 fac9 	bl	800540a <cmox_bn_getBits>
 8003e78:	fa00 f008 	lsl.w	r0, r0, r8
 8003e7c:	4307      	orrs	r7, r0
 8003e7e:	46d8      	mov	r8, fp
 8003e80:	f1aa 0001 	sub.w	r0, sl, #1
 8003e84:	4580      	cmp	r8, r0
 8003e86:	d3ef      	bcc.n	8003e68 <cmox_ScalarMul_SC+0xfc>
 8003e88:	990c      	ldr	r1, [sp, #48]	; 0x30
 8003e8a:	4630      	mov	r0, r6
 8003e8c:	f7fc fdc6 	bl	8000a1c <cmox_ECC_SetPointAtInfinity>
 8003e90:	980c      	ldr	r0, [sp, #48]	; 0x30
 8003e92:	9001      	str	r0, [sp, #4]
 8003e94:	2106      	movs	r1, #6
 8003e96:	9100      	str	r1, [sp, #0]
 8003e98:	1c7f      	adds	r7, r7, #1
 8003e9a:	9a06      	ldr	r2, [sp, #24]
 8003e9c:	9807      	ldr	r0, [sp, #28]
 8003e9e:	1d13      	adds	r3, r2, #4
 8003ea0:	1d11      	adds	r1, r2, #4
 8003ea2:	9a05      	ldr	r2, [sp, #20]
 8003ea4:	4347      	muls	r7, r0
 8003ea6:	1c7f      	adds	r7, r7, #1
 8003ea8:	4357      	muls	r7, r2
 8003eaa:	eb01 0287 	add.w	r2, r1, r7, lsl #2
 8003eae:	9905      	ldr	r1, [sp, #20]
 8003eb0:	2001      	movs	r0, #1
 8003eb2:	f7fc fdf6 	bl	8000aa2 <cmox_ECC_CondImportPoint>
 8003eb6:	1ea7      	subs	r7, r4, #2
 8003eb8:	e052      	b.n	8003f60 <cmox_ScalarMul_SC+0x1f4>
 8003eba:	197a      	adds	r2, r7, r5
 8003ebc:	fb04 220b 	mla	r2, r4, fp, r2
 8003ec0:	1c52      	adds	r2, r2, #1
 8003ec2:	2101      	movs	r1, #1
 8003ec4:	4648      	mov	r0, r9
 8003ec6:	f001 faa0 	bl	800540a <cmox_bn_getBits>
 8003eca:	fa00 f00b 	lsl.w	r0, r0, fp
 8003ece:	ea40 0808 	orr.w	r8, r0, r8
 8003ed2:	f10b 0b01 	add.w	fp, fp, #1
 8003ed6:	45d3      	cmp	fp, sl
 8003ed8:	d3ef      	bcc.n	8003eba <cmox_ScalarMul_SC+0x14e>
 8003eda:	f8d6 e018 	ldr.w	lr, [r6, #24]
 8003ede:	f89d 0010 	ldrb.w	r0, [sp, #16]
 8003ee2:	f8de c004 	ldr.w	ip, [lr, #4]
 8003ee6:	9a0c      	ldr	r2, [sp, #48]	; 0x30
 8003ee8:	f8dc c000 	ldr.w	ip, [ip]
 8003eec:	fa28 f000 	lsr.w	r0, r8, r0
 8003ef0:	f000 0b01 	and.w	fp, r0, #1
 8003ef4:	2301      	movs	r3, #1
 8003ef6:	4611      	mov	r1, r2
 8003ef8:	4630      	mov	r0, r6
 8003efa:	47e0      	blx	ip
 8003efc:	9802      	ldr	r0, [sp, #8]
 8003efe:	f8dd e01c 	ldr.w	lr, [sp, #28]
 8003f02:	f8dd c014 	ldr.w	ip, [sp, #20]
 8003f06:	9001      	str	r0, [sp, #4]
 8003f08:	2106      	movs	r1, #6
 8003f0a:	9806      	ldr	r0, [sp, #24]
 8003f0c:	9100      	str	r1, [sp, #0]
 8003f0e:	1d02      	adds	r2, r0, #4
 8003f10:	f1ab 0101 	sub.w	r1, fp, #1
 8003f14:	9809      	ldr	r0, [sp, #36]	; 0x24
 8003f16:	ea81 0108 	eor.w	r1, r1, r8
 8003f1a:	4008      	ands	r0, r1
 8003f1c:	1c40      	adds	r0, r0, #1
 8003f1e:	fb00 f00e 	mul.w	r0, r0, lr
 8003f22:	1c40      	adds	r0, r0, #1
 8003f24:	fb00 f00c 	mul.w	r0, r0, ip
 8003f28:	eb02 0280 	add.w	r2, r2, r0, lsl #2
 8003f2c:	2300      	movs	r3, #0
 8003f2e:	4661      	mov	r1, ip
 8003f30:	2001      	movs	r0, #1
 8003f32:	f7fc fdb6 	bl	8000aa2 <cmox_ECC_CondImportPoint>
 8003f36:	9a02      	ldr	r2, [sp, #8]
 8003f38:	f1cb 0b01 	rsb	fp, fp, #1
 8003f3c:	4631      	mov	r1, r6
 8003f3e:	4658      	mov	r0, fp
 8003f40:	f7fc fd45 	bl	80009ce <cmox_ECC_CondSymmetricPoint>
 8003f44:	2000      	movs	r0, #0
 8003f46:	9000      	str	r0, [sp, #0]
 8003f48:	4630      	mov	r0, r6
 8003f4a:	f8d6 c018 	ldr.w	ip, [r6, #24]
 8003f4e:	f8dc e004 	ldr.w	lr, [ip, #4]
 8003f52:	9b0c      	ldr	r3, [sp, #48]	; 0x30
 8003f54:	9a02      	ldr	r2, [sp, #8]
 8003f56:	f8de c004 	ldr.w	ip, [lr, #4]
 8003f5a:	4619      	mov	r1, r3
 8003f5c:	47e0      	blx	ip
 8003f5e:	1e7f      	subs	r7, r7, #1
 8003f60:	1e68      	subs	r0, r5, #1
 8003f62:	4180      	sbcs	r0, r0
 8003f64:	ebb7 7fd0 	cmp.w	r7, r0, lsr #31
 8003f68:	db03      	blt.n	8003f72 <cmox_ScalarMul_SC+0x206>
 8003f6a:	f04f 0800 	mov.w	r8, #0
 8003f6e:	46c3      	mov	fp, r8
 8003f70:	e7b1      	b.n	8003ed6 <cmox_ScalarMul_SC+0x16a>
 8003f72:	bb9d      	cbnz	r5, 8003fdc <cmox_ScalarMul_SC+0x270>
 8003f74:	2700      	movs	r7, #0
 8003f76:	e009      	b.n	8003f8c <cmox_ScalarMul_SC+0x220>
 8003f78:	fb04 f207 	mul.w	r2, r4, r7
 8003f7c:	1c52      	adds	r2, r2, #1
 8003f7e:	2101      	movs	r1, #1
 8003f80:	4648      	mov	r0, r9
 8003f82:	f001 fa42 	bl	800540a <cmox_bn_getBits>
 8003f86:	40b8      	lsls	r0, r7
 8003f88:	4305      	orrs	r5, r0
 8003f8a:	1c7f      	adds	r7, r7, #1
 8003f8c:	4557      	cmp	r7, sl
 8003f8e:	d3f3      	bcc.n	8003f78 <cmox_ScalarMul_SC+0x20c>
 8003f90:	69b4      	ldr	r4, [r6, #24]
 8003f92:	6864      	ldr	r4, [r4, #4]
 8003f94:	9a0c      	ldr	r2, [sp, #48]	; 0x30
 8003f96:	f8d4 c000 	ldr.w	ip, [r4]
 8003f9a:	2301      	movs	r3, #1
 8003f9c:	4611      	mov	r1, r2
 8003f9e:	f89d 0010 	ldrb.w	r0, [sp, #16]
 8003fa2:	fa25 f700 	lsr.w	r7, r5, r0
 8003fa6:	4630      	mov	r0, r6
 8003fa8:	47e0      	blx	ip
 8003faa:	9802      	ldr	r0, [sp, #8]
 8003fac:	f8dd a01c 	ldr.w	sl, [sp, #28]
 8003fb0:	9c05      	ldr	r4, [sp, #20]
 8003fb2:	9001      	str	r0, [sp, #4]
 8003fb4:	2106      	movs	r1, #6
 8003fb6:	9806      	ldr	r0, [sp, #24]
 8003fb8:	9100      	str	r1, [sp, #0]
 8003fba:	f007 0701 	and.w	r7, r7, #1
 8003fbe:	1d02      	adds	r2, r0, #4
 8003fc0:	1e79      	subs	r1, r7, #1
 8003fc2:	9809      	ldr	r0, [sp, #36]	; 0x24
 8003fc4:	404d      	eors	r5, r1
 8003fc6:	4005      	ands	r5, r0
 8003fc8:	1c6d      	adds	r5, r5, #1
 8003fca:	fb05 f50a 	mul.w	r5, r5, sl
 8003fce:	1c6d      	adds	r5, r5, #1
 8003fd0:	4365      	muls	r5, r4
 8003fd2:	2300      	movs	r3, #0
 8003fd4:	eb02 0285 	add.w	r2, r2, r5, lsl #2
 8003fd8:	4621      	mov	r1, r4
 8003fda:	e04b      	b.n	8004074 <cmox_ScalarMul_SC+0x308>
 8003fdc:	9806      	ldr	r0, [sp, #24]
 8003fde:	9a05      	ldr	r2, [sp, #20]
 8003fe0:	1e6f      	subs	r7, r5, #1
 8003fe2:	1d01      	adds	r1, r0, #4
 8003fe4:	9d0c      	ldr	r5, [sp, #48]	; 0x30
 8003fe6:	eb01 0482 	add.w	r4, r1, r2, lsl #2
 8003fea:	4692      	mov	sl, r2
 8003fec:	e029      	b.n	8004042 <cmox_ScalarMul_SC+0x2d6>
 8003fee:	2301      	movs	r3, #1
 8003ff0:	462a      	mov	r2, r5
 8003ff2:	4629      	mov	r1, r5
 8003ff4:	4630      	mov	r0, r6
 8003ff6:	47e0      	blx	ip
 8003ff8:	1c7a      	adds	r2, r7, #1
 8003ffa:	2101      	movs	r1, #1
 8003ffc:	4648      	mov	r0, r9
 8003ffe:	f001 fa04 	bl	800540a <cmox_bn_getBits>
 8004002:	4680      	mov	r8, r0
 8004004:	9802      	ldr	r0, [sp, #8]
 8004006:	9001      	str	r0, [sp, #4]
 8004008:	2106      	movs	r1, #6
 800400a:	9100      	str	r1, [sp, #0]
 800400c:	2300      	movs	r3, #0
 800400e:	4622      	mov	r2, r4
 8004010:	4651      	mov	r1, sl
 8004012:	2001      	movs	r0, #1
 8004014:	f7fc fd45 	bl	8000aa2 <cmox_ECC_CondImportPoint>
 8004018:	9a02      	ldr	r2, [sp, #8]
 800401a:	f1c8 0801 	rsb	r8, r8, #1
 800401e:	4631      	mov	r1, r6
 8004020:	4640      	mov	r0, r8
 8004022:	f7fc fcd4 	bl	80009ce <cmox_ECC_CondSymmetricPoint>
 8004026:	2000      	movs	r0, #0
 8004028:	9000      	str	r0, [sp, #0]
 800402a:	462b      	mov	r3, r5
 800402c:	f8d6 c018 	ldr.w	ip, [r6, #24]
 8004030:	f8dc e004 	ldr.w	lr, [ip, #4]
 8004034:	9a02      	ldr	r2, [sp, #8]
 8004036:	f8de c004 	ldr.w	ip, [lr, #4]
 800403a:	4629      	mov	r1, r5
 800403c:	4630      	mov	r0, r6
 800403e:	47e0      	blx	ip
 8004040:	1e7f      	subs	r7, r7, #1
 8004042:	69b0      	ldr	r0, [r6, #24]
 8004044:	6841      	ldr	r1, [r0, #4]
 8004046:	f8d1 c000 	ldr.w	ip, [r1]
 800404a:	2f00      	cmp	r7, #0
 800404c:	dccf      	bgt.n	8003fee <cmox_ScalarMul_SC+0x282>
 800404e:	462a      	mov	r2, r5
 8004050:	950c      	str	r5, [sp, #48]	; 0x30
 8004052:	2301      	movs	r3, #1
 8004054:	4611      	mov	r1, r2
 8004056:	4630      	mov	r0, r6
 8004058:	47e0      	blx	ip
 800405a:	2201      	movs	r2, #1
 800405c:	2101      	movs	r1, #1
 800405e:	4648      	mov	r0, r9
 8004060:	f001 f9d3 	bl	800540a <cmox_bn_getBits>
 8004064:	4607      	mov	r7, r0
 8004066:	2106      	movs	r1, #6
 8004068:	9802      	ldr	r0, [sp, #8]
 800406a:	9100      	str	r1, [sp, #0]
 800406c:	9001      	str	r0, [sp, #4]
 800406e:	2300      	movs	r3, #0
 8004070:	4622      	mov	r2, r4
 8004072:	4651      	mov	r1, sl
 8004074:	2001      	movs	r0, #1
 8004076:	f7fc fd14 	bl	8000aa2 <cmox_ECC_CondImportPoint>
 800407a:	9a02      	ldr	r2, [sp, #8]
 800407c:	f1c7 0701 	rsb	r7, r7, #1
 8004080:	4631      	mov	r1, r6
 8004082:	4638      	mov	r0, r7
 8004084:	f7fc fca3 	bl	80009ce <cmox_ECC_CondSymmetricPoint>
 8004088:	a803      	add	r0, sp, #12
 800408a:	9000      	str	r0, [sp, #0]
 800408c:	4630      	mov	r0, r6
 800408e:	69b4      	ldr	r4, [r6, #24]
 8004090:	6865      	ldr	r5, [r4, #4]
 8004092:	9b0c      	ldr	r3, [sp, #48]	; 0x30
 8004094:	9a02      	ldr	r2, [sp, #8]
 8004096:	686c      	ldr	r4, [r5, #4]
 8004098:	4619      	mov	r1, r3
 800409a:	47a0      	blx	r4
 800409c:	69b4      	ldr	r4, [r6, #24]
 800409e:	6865      	ldr	r5, [r4, #4]
 80040a0:	9b03      	ldr	r3, [sp, #12]
 80040a2:	9a0c      	ldr	r2, [sp, #48]	; 0x30
 80040a4:	f8d5 a000 	ldr.w	sl, [r5]
 80040a8:	f003 0301 	and.w	r3, r3, #1
 80040ac:	4611      	mov	r1, r2
 80040ae:	4630      	mov	r0, r6
 80040b0:	47d0      	blx	sl
 80040b2:	69b0      	ldr	r0, [r6, #24]
 80040b4:	6801      	ldr	r1, [r0, #0]
 80040b6:	9c08      	ldr	r4, [sp, #32]
 80040b8:	688a      	ldr	r2, [r1, #8]
 80040ba:	f1c4 0401 	rsb	r4, r4, #1
 80040be:	4649      	mov	r1, r9
 80040c0:	4620      	mov	r0, r4
 80040c2:	f7ff f9ed 	bl	80034a0 <cmox_FieldBN_CondNegate>
 80040c6:	9a0c      	ldr	r2, [sp, #48]	; 0x30
 80040c8:	4631      	mov	r1, r6
 80040ca:	4620      	mov	r0, r4
 80040cc:	f7fc fc7f 	bl	80009ce <cmox_ECC_CondSymmetricPoint>
 80040d0:	990c      	ldr	r1, [sp, #48]	; 0x30
 80040d2:	4630      	mov	r0, r6
 80040d4:	f7fc fd8c 	bl	8000bf0 <cmox_ECC_PointFromModularDomain>
 80040d8:	4604      	mov	r4, r0
 80040da:	a902      	add	r1, sp, #8
 80040dc:	4630      	mov	r0, r6
 80040de:	f7fc fc12 	bl	8000906 <cmox_ECC_FreePoint>
 80040e2:	f8dd a028 	ldr.w	sl, [sp, #40]	; 0x28
 80040e6:	e007      	b.n	80040f8 <cmox_ScalarMul_SC+0x38c>
 80040e8:	6971      	ldr	r1, [r6, #20]
 80040ea:	eb01 028a 	add.w	r2, r1, sl, lsl #2
 80040ee:	1f11      	subs	r1, r2, #4
 80040f0:	f001 f8a3 	bl	800523a <cmox_bn_free>
 80040f4:	f1aa 0a01 	sub.w	sl, sl, #1
 80040f8:	69f0      	ldr	r0, [r6, #28]
 80040fa:	f1ba 0f00 	cmp.w	sl, #0
 80040fe:	dcf3      	bgt.n	80040e8 <cmox_ScalarMul_SC+0x37c>
 8004100:	69b1      	ldr	r1, [r6, #24]
 8004102:	684a      	ldr	r2, [r1, #4]
 8004104:	6992      	ldr	r2, [r2, #24]
 8004106:	0092      	lsls	r2, r2, #2
 8004108:	f106 0114 	add.w	r1, r6, #20
 800410c:	f7ff faf2 	bl	80036f4 <cmox_membuf_free>
 8004110:	4620      	mov	r0, r4
 8004112:	b00d      	add	sp, #52	; 0x34
 8004114:	e8bd 8ff0 	ldmia.w	sp!, {r4, r5, r6, r7, r8, r9, sl, fp, pc}

08004118 <cmox_ScalarMul_wMOF>:
 8004118:	e92d 4ff0 	stmdb	sp!, {r4, r5, r6, r7, r8, r9, sl, fp, lr}
 800411c:	b099      	sub	sp, #100	; 0x64
 800411e:	460e      	mov	r6, r1
 8004120:	f04f 31ff 	mov.w	r1, #4294967295
 8004124:	9112      	str	r1, [sp, #72]	; 0x48
 8004126:	9111      	str	r1, [sp, #68]	; 0x44
 8004128:	9110      	str	r1, [sp, #64]	; 0x40
 800412a:	9101      	str	r1, [sp, #4]
 800412c:	4617      	mov	r7, r2
 800412e:	2101      	movs	r1, #1
 8004130:	4605      	mov	r5, r0
 8004132:	9117      	str	r1, [sp, #92]	; 0x5c
 8004134:	2200      	movs	r2, #0
 8004136:	9207      	str	r2, [sp, #28]
 8004138:	9206      	str	r2, [sp, #24]
 800413a:	461c      	mov	r4, r3
 800413c:	69a9      	ldr	r1, [r5, #24]
 800413e:	6808      	ldr	r0, [r1, #0]
 8004140:	6802      	ldr	r2, [r0, #0]
 8004142:	6813      	ldr	r3, [r2, #0]
 8004144:	930a      	str	r3, [sp, #40]	; 0x28
 8004146:	f04f 0902 	mov.w	r9, #2
 800414a:	68ca      	ldr	r2, [r1, #12]
 800414c:	6813      	ldr	r3, [r2, #0]
 800414e:	9304      	str	r3, [sp, #16]
 8004150:	9209      	str	r2, [sp, #36]	; 0x24
 8004152:	9804      	ldr	r0, [sp, #16]
 8004154:	f8df 2634 	ldr.w	r2, [pc, #1588]	; 800478c <cmox_ScalarMul_wMOF+0x674>
 8004158:	1e40      	subs	r0, r0, #1
 800415a:	0840      	lsrs	r0, r0, #1
 800415c:	eb02 0380 	add.w	r3, r2, r0, lsl #2
 8004160:	1f1a      	subs	r2, r3, #4
 8004162:	920c      	str	r2, [sp, #48]	; 0x30
 8004164:	f8df 2628 	ldr.w	r2, [pc, #1576]	; 8004790 <cmox_ScalarMul_wMOF+0x678>
 8004168:	f8dd 8088 	ldr.w	r8, [sp, #136]	; 0x88
 800416c:	eb02 0080 	add.w	r0, r2, r0, lsl #2
 8004170:	1f03      	subs	r3, r0, #4
 8004172:	930b      	str	r3, [sp, #44]	; 0x2c
 8004174:	6848      	ldr	r0, [r1, #4]
 8004176:	69c1      	ldr	r1, [r0, #28]
 8004178:	2902      	cmp	r1, #2
 800417a:	bf08      	it	eq
 800417c:	f04f 0903 	moveq.w	r9, #3
 8004180:	4641      	mov	r1, r8
 8004182:	4628      	mov	r0, r5
 8004184:	f7fc fc4a 	bl	8000a1c <cmox_ECC_SetPointAtInfinity>
 8004188:	4641      	mov	r1, r8
 800418a:	4628      	mov	r0, r5
 800418c:	f7fc fd06 	bl	8000b9c <cmox_ECC_PointToModularDomain>
 8004190:	69a8      	ldr	r0, [r5, #24]
 8004192:	6800      	ldr	r0, [r0, #0]
 8004194:	9408      	str	r4, [sp, #32]
 8004196:	69c1      	ldr	r1, [r0, #28]
 8004198:	2901      	cmp	r1, #1
 800419a:	d010      	beq.n	80041be <cmox_ScalarMul_wMOF+0xa6>
 800419c:	6881      	ldr	r1, [r0, #8]
 800419e:	4630      	mov	r0, r6
 80041a0:	f001 f8c3 	bl	800532a <cmox_bn_cmp>
 80041a4:	2800      	cmp	r0, #0
 80041a6:	d507      	bpl.n	80041b8 <cmox_ScalarMul_wMOF+0xa0>
 80041a8:	69a8      	ldr	r0, [r5, #24]
 80041aa:	6801      	ldr	r1, [r0, #0]
 80041ac:	9808      	ldr	r0, [sp, #32]
 80041ae:	6889      	ldr	r1, [r1, #8]
 80041b0:	f001 f8bb 	bl	800532a <cmox_bn_cmp>
 80041b4:	2800      	cmp	r0, #0
 80041b6:	d402      	bmi.n	80041be <cmox_ScalarMul_wMOF+0xa6>
 80041b8:	2001      	movs	r0, #1
 80041ba:	9005      	str	r0, [sp, #20]
 80041bc:	e2e1      	b.n	8004782 <cmox_ScalarMul_wMOF+0x66a>
 80041be:	69a8      	ldr	r0, [r5, #24]
 80041c0:	6841      	ldr	r1, [r0, #4]
 80041c2:	698a      	ldr	r2, [r1, #24]
 80041c4:	69e8      	ldr	r0, [r5, #28]
 80041c6:	0092      	lsls	r2, r2, #2
 80041c8:	f105 0114 	add.w	r1, r5, #20
 80041cc:	f7ff fa73 	bl	80036b6 <cmox_membuf_alloc>
 80041d0:	2800      	cmp	r0, #0
 80041d2:	9005      	str	r0, [sp, #20]
 80041d4:	d1f2      	bne.n	80041bc <cmox_ScalarMul_wMOF+0xa4>
 80041d6:	2400      	movs	r4, #0
 80041d8:	e00c      	b.n	80041f4 <cmox_ScalarMul_wMOF+0xdc>
 80041da:	6809      	ldr	r1, [r1, #0]
 80041dc:	680a      	ldr	r2, [r1, #0]
 80041de:	6969      	ldr	r1, [r5, #20]
 80041e0:	6812      	ldr	r2, [r2, #0]
 80041e2:	eb01 0184 	add.w	r1, r1, r4, lsl #2
 80041e6:	f001 f81d 	bl	8005224 <cmox_bn_alloc>
 80041ea:	2800      	cmp	r0, #0
 80041ec:	9005      	str	r0, [sp, #20]
 80041ee:	f040 82bd 	bne.w	800476c <cmox_ScalarMul_wMOF+0x654>
 80041f2:	1c64      	adds	r4, r4, #1
 80041f4:	69a9      	ldr	r1, [r5, #24]
 80041f6:	684a      	ldr	r2, [r1, #4]
 80041f8:	6993      	ldr	r3, [r2, #24]
 80041fa:	69e8      	ldr	r0, [r5, #28]
 80041fc:	429c      	cmp	r4, r3
 80041fe:	d3ec      	bcc.n	80041da <cmox_ScalarMul_wMOF+0xc2>
 8004200:	9b04      	ldr	r3, [sp, #16]
 8004202:	2201      	movs	r2, #1
 8004204:	1e99      	subs	r1, r3, #2
 8004206:	408a      	lsls	r2, r1
 8004208:	0092      	lsls	r2, r2, #2
 800420a:	9215      	str	r2, [sp, #84]	; 0x54
 800420c:	a902      	add	r1, sp, #8
 800420e:	f7ff fa52 	bl	80036b6 <cmox_membuf_alloc>
 8004212:	2800      	cmp	r0, #0
 8004214:	46a3      	mov	fp, r4
 8004216:	9005      	str	r0, [sp, #20]
 8004218:	f040 829f 	bne.w	800475a <cmox_ScalarMul_wMOF+0x642>
 800421c:	9904      	ldr	r1, [sp, #16]
 800421e:	2001      	movs	r0, #1
 8004220:	1e89      	subs	r1, r1, #2
 8004222:	2400      	movs	r4, #0
 8004224:	fa00 fa01 	lsl.w	sl, r0, r1
 8004228:	e010      	b.n	800424c <cmox_ScalarMul_wMOF+0x134>
 800422a:	9802      	ldr	r0, [sp, #8]
 800422c:	eb00 0184 	add.w	r1, r0, r4, lsl #2
 8004230:	4628      	mov	r0, r5
 8004232:	f7fc fb0c 	bl	800084e <cmox_ECC_AllocPoint>
 8004236:	2800      	cmp	r0, #0
 8004238:	9005      	str	r0, [sp, #20]
 800423a:	f040 8287 	bne.w	800474c <cmox_ScalarMul_wMOF+0x634>
 800423e:	9802      	ldr	r0, [sp, #8]
 8004240:	f850 1024 	ldr.w	r1, [r0, r4, lsl #2]
 8004244:	4628      	mov	r0, r5
 8004246:	f7fc fbe9 	bl	8000a1c <cmox_ECC_SetPointAtInfinity>
 800424a:	1c64      	adds	r4, r4, #1
 800424c:	4554      	cmp	r4, sl
 800424e:	d3ec      	bcc.n	800422a <cmox_ScalarMul_wMOF+0x112>
 8004250:	9503      	str	r5, [sp, #12]
 8004252:	9418      	str	r4, [sp, #96]	; 0x60
 8004254:	2100      	movs	r1, #0
 8004256:	463c      	mov	r4, r7
 8004258:	7c20      	ldrb	r0, [r4, #16]
 800425a:	f000 0004 	and.w	r0, r0, #4
 800425e:	f7ff f9f4 	bl	800364a <cmox_mathUtils_neq>
 8004262:	b920      	cbnz	r0, 800426e <cmox_ScalarMul_wMOF+0x156>
 8004264:	9017      	str	r0, [sp, #92]	; 0x5c
 8004266:	4621      	mov	r1, r4
 8004268:	9803      	ldr	r0, [sp, #12]
 800426a:	f7fc fc97 	bl	8000b9c <cmox_ECC_PointToModularDomain>
 800426e:	9803      	ldr	r0, [sp, #12]
 8004270:	4621      	mov	r1, r4
 8004272:	f7fc fceb 	bl	8000c4c <cmox_ECC_PointValidation>
 8004276:	2800      	cmp	r0, #0
 8004278:	9005      	str	r0, [sp, #20]
 800427a:	f040 825c 	bne.w	8004736 <cmox_ScalarMul_wMOF+0x61e>
 800427e:	9803      	ldr	r0, [sp, #12]
 8004280:	6985      	ldr	r5, [r0, #24]
 8004282:	9f02      	ldr	r7, [sp, #8]
 8004284:	686d      	ldr	r5, [r5, #4]
 8004286:	683a      	ldr	r2, [r7, #0]
 8004288:	68ef      	ldr	r7, [r5, #12]
 800428a:	2301      	movs	r3, #1
 800428c:	4621      	mov	r1, r4
 800428e:	47b8      	blx	r7
 8004290:	9902      	ldr	r1, [sp, #8]
 8004292:	2000      	movs	r0, #0
 8004294:	9000      	str	r0, [sp, #0]
 8004296:	4622      	mov	r2, r4
 8004298:	9803      	ldr	r0, [sp, #12]
 800429a:	6985      	ldr	r5, [r0, #24]
 800429c:	686d      	ldr	r5, [r5, #4]
 800429e:	684b      	ldr	r3, [r1, #4]
 80042a0:	6809      	ldr	r1, [r1, #0]
 80042a2:	692f      	ldr	r7, [r5, #16]
 80042a4:	47b8      	blx	r7
 80042a6:	9f03      	ldr	r7, [sp, #12]
 80042a8:	2502      	movs	r5, #2
 80042aa:	e010      	b.n	80042ce <cmox_ScalarMul_wMOF+0x1b6>
 80042ac:	9802      	ldr	r0, [sp, #8]
 80042ae:	f8d7 c018 	ldr.w	ip, [r7, #24]
 80042b2:	f850 3025 	ldr.w	r3, [r0, r5, lsl #2]
 80042b6:	6802      	ldr	r2, [r0, #0]
 80042b8:	f8dc e004 	ldr.w	lr, [ip, #4]
 80042bc:	f8de c014 	ldr.w	ip, [lr, #20]
 80042c0:	eb00 0085 	add.w	r0, r0, r5, lsl #2
 80042c4:	1c6d      	adds	r5, r5, #1
 80042c6:	f850 1c04 	ldr.w	r1, [r0, #-4]
 80042ca:	4638      	mov	r0, r7
 80042cc:	47e0      	blx	ip
 80042ce:	2001      	movs	r0, #1
 80042d0:	4555      	cmp	r5, sl
 80042d2:	900e      	str	r0, [sp, #56]	; 0x38
 80042d4:	d3ea      	bcc.n	80042ac <cmox_ScalarMul_wMOF+0x194>
 80042d6:	9808      	ldr	r0, [sp, #32]
 80042d8:	f001 f87e 	bl	80053d8 <cmox_bn_countBits>
 80042dc:	4605      	mov	r5, r0
 80042de:	4630      	mov	r0, r6
 80042e0:	f001 f87a 	bl	80053d8 <cmox_bn_countBits>
 80042e4:	4285      	cmp	r5, r0
 80042e6:	bf2c      	ite	cs
 80042e8:	9808      	ldrcs	r0, [sp, #32]
 80042ea:	4630      	movcc	r0, r6
 80042ec:	f001 f874 	bl	80053d8 <cmox_bn_countBits>
 80042f0:	960d      	str	r6, [sp, #52]	; 0x34
 80042f2:	940f      	str	r4, [sp, #60]	; 0x3c
 80042f4:	9d01      	ldr	r5, [sp, #4]
 80042f6:	9c12      	ldr	r4, [sp, #72]	; 0x48
 80042f8:	9e11      	ldr	r6, [sp, #68]	; 0x44
 80042fa:	f8dd a040 	ldr.w	sl, [sp, #64]	; 0x40
 80042fe:	f8cd 9058 	str.w	r9, [sp, #88]	; 0x58
 8004302:	4681      	mov	r9, r0
 8004304:	e075      	b.n	80043f2 <cmox_ScalarMul_wMOF+0x2da>
 8004306:	f8dd c030 	ldr.w	ip, [sp, #48]	; 0x30
 800430a:	9a03      	ldr	r2, [sp, #12]
 800430c:	9806      	ldr	r0, [sp, #24]
 800430e:	9e16      	ldr	r6, [sp, #88]	; 0x58
 8004310:	9101      	str	r1, [sp, #4]
 8004312:	1a10      	subs	r0, r2, r0
 8004314:	f1a0 0e01 	sub.w	lr, r0, #1
 8004318:	ea4f 0ede 	mov.w	lr, lr, lsr #3
 800431c:	1e40      	subs	r0, r0, #1
 800431e:	2106      	movs	r1, #6
 8004320:	0080      	lsls	r0, r0, #2
 8004322:	9100      	str	r1, [sp, #0]
 8004324:	f000 001c 	and.w	r0, r0, #28
 8004328:	f85c c02e 	ldr.w	ip, [ip, lr, lsl #2]
 800432c:	9a09      	ldr	r2, [sp, #36]	; 0x24
 800432e:	fa2c f000 	lsr.w	r0, ip, r0
 8004332:	1d13      	adds	r3, r2, #4
 8004334:	1d11      	adds	r1, r2, #4
 8004336:	f000 000f 	and.w	r0, r0, #15
 800433a:	9a0a      	ldr	r2, [sp, #40]	; 0x28
 800433c:	4346      	muls	r6, r0
 800433e:	1c76      	adds	r6, r6, #1
 8004340:	4372      	muls	r2, r6
 8004342:	eb01 0282 	add.w	r2, r1, r2, lsl #2
 8004346:	990a      	ldr	r1, [sp, #40]	; 0x28
 8004348:	2001      	movs	r0, #1
 800434a:	f7fc fbaa 	bl	8000aa2 <cmox_ECC_CondImportPoint>
 800434e:	9802      	ldr	r0, [sp, #8]
 8004350:	6802      	ldr	r2, [r0, #0]
 8004352:	4639      	mov	r1, r7
 8004354:	2001      	movs	r0, #1
 8004356:	f7fc fb3a 	bl	80009ce <cmox_ECC_CondSymmetricPoint>
 800435a:	e03a      	b.n	80043d2 <cmox_ScalarMul_wMOF+0x2ba>
 800435c:	9903      	ldr	r1, [sp, #12]
 800435e:	1a08      	subs	r0, r1, r0
 8004360:	990b      	ldr	r1, [sp, #44]	; 0x2c
 8004362:	1e42      	subs	r2, r0, #1
 8004364:	08d2      	lsrs	r2, r2, #3
 8004366:	1e40      	subs	r0, r0, #1
 8004368:	f851 5022 	ldr.w	r5, [r1, r2, lsl #2]
 800436c:	0080      	lsls	r0, r0, #2
 800436e:	f000 001c 	and.w	r0, r0, #28
 8004372:	40c5      	lsrs	r5, r0
 8004374:	f89d 6002 	ldrb.w	r6, [sp, #2]
 8004378:	f005 050f 	and.w	r5, r5, #15
 800437c:	1b76      	subs	r6, r6, r5
 800437e:	b276      	sxtb	r6, r6
 8004380:	bbae      	cbnz	r6, 80043ee <cmox_ScalarMul_wMOF+0x2d6>
 8004382:	9802      	ldr	r0, [sp, #8]
 8004384:	6801      	ldr	r1, [r0, #0]
 8004386:	9a06      	ldr	r2, [sp, #24]
 8004388:	9801      	ldr	r0, [sp, #4]
 800438a:	4282      	cmp	r2, r0
 800438c:	dabb      	bge.n	8004306 <cmox_ScalarMul_wMOF+0x1ee>
 800438e:	9e0c      	ldr	r6, [sp, #48]	; 0x30
 8004390:	f8dd c018 	ldr.w	ip, [sp, #24]
 8004394:	9a16      	ldr	r2, [sp, #88]	; 0x58
 8004396:	9809      	ldr	r0, [sp, #36]	; 0x24
 8004398:	9101      	str	r1, [sp, #4]
 800439a:	ea4f 0cdc 	mov.w	ip, ip, lsr #3
 800439e:	2106      	movs	r1, #6
 80043a0:	9100      	str	r1, [sp, #0]
 80043a2:	1d03      	adds	r3, r0, #4
 80043a4:	f856 602c 	ldr.w	r6, [r6, ip, lsl #2]
 80043a8:	f8dd c018 	ldr.w	ip, [sp, #24]
 80043ac:	990a      	ldr	r1, [sp, #40]	; 0x28
 80043ae:	ea4f 0e8c 	mov.w	lr, ip, lsl #2
 80043b2:	f00e 0e1c 	and.w	lr, lr, #28
 80043b6:	fa26 f60e 	lsr.w	r6, r6, lr
 80043ba:	f006 060f 	and.w	r6, r6, #15
 80043be:	4372      	muls	r2, r6
 80043c0:	1c52      	adds	r2, r2, #1
 80043c2:	1d00      	adds	r0, r0, #4
 80043c4:	4351      	muls	r1, r2
 80043c6:	eb00 0281 	add.w	r2, r0, r1, lsl #2
 80043ca:	990a      	ldr	r1, [sp, #40]	; 0x28
 80043cc:	2001      	movs	r0, #1
 80043ce:	f7fc fb68 	bl	8000aa2 <cmox_ECC_CondImportPoint>
 80043d2:	9902      	ldr	r1, [sp, #8]
 80043d4:	2000      	movs	r0, #0
 80043d6:	9000      	str	r0, [sp, #0]
 80043d8:	4643      	mov	r3, r8
 80043da:	69be      	ldr	r6, [r7, #24]
 80043dc:	f8d6 c004 	ldr.w	ip, [r6, #4]
 80043e0:	680a      	ldr	r2, [r1, #0]
 80043e2:	f8dc 6010 	ldr.w	r6, [ip, #16]
 80043e6:	4641      	mov	r1, r8
 80043e8:	4638      	mov	r0, r7
 80043ea:	47b0      	blx	r6
 80043ec:	9e10      	ldr	r6, [sp, #64]	; 0x40
 80043ee:	f1a9 0901 	sub.w	r9, r9, #1
 80043f2:	f1b9 0f00 	cmp.w	r9, #0
 80043f6:	bfd8      	it	le
 80043f8:	2c00      	cmple	r4, #0
 80043fa:	dc06      	bgt.n	800440a <cmox_ScalarMul_wMOF+0x2f2>
 80043fc:	f1ba 0f00 	cmp.w	sl, #0
 8004400:	bfdc      	itt	le
 8004402:	2e00      	cmple	r6, #0
 8004404:	2d00      	cmple	r5, #0
 8004406:	f340 813a 	ble.w	800467e <cmox_ScalarMul_wMOF+0x566>
 800440a:	f1b9 0f00 	cmp.w	r9, #0
 800440e:	d40a      	bmi.n	8004426 <cmox_ScalarMul_wMOF+0x30e>
 8004410:	f8d7 c018 	ldr.w	ip, [r7, #24]
 8004414:	f8dc e004 	ldr.w	lr, [ip, #4]
 8004418:	f8de c00c 	ldr.w	ip, [lr, #12]
 800441c:	2301      	movs	r3, #1
 800441e:	4642      	mov	r2, r8
 8004420:	4641      	mov	r1, r8
 8004422:	4638      	mov	r0, r7
 8004424:	47e0      	blx	ip
 8004426:	2c00      	cmp	r4, #0
 8004428:	dd02      	ble.n	8004430 <cmox_ScalarMul_wMOF+0x318>
 800442a:	1e64      	subs	r4, r4, #1
 800442c:	b264      	sxtb	r4, r4
 800442e:	e006      	b.n	800443e <cmox_ScalarMul_wMOF+0x326>
 8004430:	f1ba 0f00 	cmp.w	sl, #0
 8004434:	bfc4      	itt	gt
 8004436:	f1aa 0001 	subgt.w	r0, sl, #1
 800443a:	fa4f fa80 	sxtbgt.w	sl, r0
 800443e:	2e00      	cmp	r6, #0
 8004440:	dd02      	ble.n	8004448 <cmox_ScalarMul_wMOF+0x330>
 8004442:	1e76      	subs	r6, r6, #1
 8004444:	b276      	sxtb	r6, r6
 8004446:	e003      	b.n	8004450 <cmox_ScalarMul_wMOF+0x338>
 8004448:	2d00      	cmp	r5, #0
 800444a:	bfc4      	itt	gt
 800444c:	1e6d      	subgt	r5, r5, #1
 800444e:	b26d      	sxtbgt	r5, r5
 8004450:	9904      	ldr	r1, [sp, #16]
 8004452:	980e      	ldr	r0, [sp, #56]	; 0x38
 8004454:	1c49      	adds	r1, r1, #1
 8004456:	4088      	lsls	r0, r1
 8004458:	1e40      	subs	r0, r0, #1
 800445a:	f88d 0003 	strb.w	r0, [sp, #3]
 800445e:	9804      	ldr	r0, [sp, #16]
 8004460:	990e      	ldr	r1, [sp, #56]	; 0x38
 8004462:	1e42      	subs	r2, r0, #1
 8004464:	4091      	lsls	r1, r2
 8004466:	9101      	str	r1, [sp, #4]
 8004468:	9804      	ldr	r0, [sp, #16]
 800446a:	9a04      	ldr	r2, [sp, #16]
 800446c:	1e41      	subs	r1, r0, #1
 800446e:	f88d 1002 	strb.w	r1, [sp, #2]
 8004472:	eba2 0209 	sub.w	r2, r2, r9
 8004476:	980e      	ldr	r0, [sp, #56]	; 0x38
 8004478:	9904      	ldr	r1, [sp, #16]
 800447a:	f88d 2001 	strb.w	r2, [sp, #1]
 800447e:	4088      	lsls	r0, r1
 8004480:	9904      	ldr	r1, [sp, #16]
 8004482:	9003      	str	r0, [sp, #12]
 8004484:	eba9 0101 	sub.w	r1, r9, r1
 8004488:	9114      	str	r1, [sp, #80]	; 0x50
 800448a:	f1c9 0201 	rsb	r2, r9, #1
 800448e:	9904      	ldr	r1, [sp, #16]
 8004490:	9804      	ldr	r0, [sp, #16]
 8004492:	f88d 2000 	strb.w	r2, [sp]
 8004496:	eba9 0101 	sub.w	r1, r9, r1
 800449a:	9112      	str	r1, [sp, #72]	; 0x48
 800449c:	1c40      	adds	r0, r0, #1
 800449e:	2c00      	cmp	r4, #0
 80044a0:	f1a9 0101 	sub.w	r1, r9, #1
 80044a4:	f04f 32ff 	mov.w	r2, #4294967295
 80044a8:	bfc8      	it	gt
 80044aa:	f1ba 0f00 	cmpgt.w	sl, #0
 80044ae:	9013      	str	r0, [sp, #76]	; 0x4c
 80044b0:	9111      	str	r1, [sp, #68]	; 0x44
 80044b2:	9210      	str	r2, [sp, #64]	; 0x40
 80044b4:	dc56      	bgt.n	8004564 <cmox_ScalarMul_wMOF+0x44c>
 80044b6:	f1b9 0f00 	cmp.w	r9, #0
 80044ba:	dd06      	ble.n	80044ca <cmox_ScalarMul_wMOF+0x3b2>
 80044bc:	9a11      	ldr	r2, [sp, #68]	; 0x44
 80044be:	980d      	ldr	r0, [sp, #52]	; 0x34
 80044c0:	2102      	movs	r1, #2
 80044c2:	f000 ffa2 	bl	800540a <cmox_bn_getBits>
 80044c6:	b2c0      	uxtb	r0, r0
 80044c8:	e007      	b.n	80044da <cmox_ScalarMul_wMOF+0x3c2>
 80044ca:	980d      	ldr	r0, [sp, #52]	; 0x34
 80044cc:	6841      	ldr	r1, [r0, #4]
 80044ce:	f89d 0000 	ldrb.w	r0, [sp]
 80044d2:	fa01 f000 	lsl.w	r0, r1, r0
 80044d6:	f000 0003 	and.w	r0, r0, #3
 80044da:	2c00      	cmp	r4, #0
 80044dc:	d541      	bpl.n	8004562 <cmox_ScalarMul_wMOF+0x44a>
 80044de:	f1ba 0f00 	cmp.w	sl, #0
 80044e2:	dc3f      	bgt.n	8004564 <cmox_ScalarMul_wMOF+0x44c>
 80044e4:	f000 0101 	and.w	r1, r0, #1
 80044e8:	ea91 0f60 	teq	r1, r0, asr #1
 80044ec:	f000 8080 	beq.w	80045f0 <cmox_ScalarMul_wMOF+0x4d8>
 80044f0:	9814      	ldr	r0, [sp, #80]	; 0x50
 80044f2:	2800      	cmp	r0, #0
 80044f4:	d405      	bmi.n	8004502 <cmox_ScalarMul_wMOF+0x3ea>
 80044f6:	9a12      	ldr	r2, [sp, #72]	; 0x48
 80044f8:	9913      	ldr	r1, [sp, #76]	; 0x4c
 80044fa:	980d      	ldr	r0, [sp, #52]	; 0x34
 80044fc:	f000 ff85 	bl	800540a <cmox_bn_getBits>
 8004500:	e008      	b.n	8004514 <cmox_ScalarMul_wMOF+0x3fc>
 8004502:	980d      	ldr	r0, [sp, #52]	; 0x34
 8004504:	6841      	ldr	r1, [r0, #4]
 8004506:	f89d 0001 	ldrb.w	r0, [sp, #1]
 800450a:	fa01 f000 	lsl.w	r0, r1, r0
 800450e:	f89d 1003 	ldrb.w	r1, [sp, #3]
 8004512:	4008      	ands	r0, r1
 8004514:	9a01      	ldr	r2, [sp, #4]
 8004516:	9901      	ldr	r1, [sp, #4]
 8004518:	1a80      	subs	r0, r0, r2
 800451a:	b2c0      	uxtb	r0, r0
 800451c:	4288      	cmp	r0, r1
 800451e:	9007      	str	r0, [sp, #28]
 8004520:	da0b      	bge.n	800453a <cmox_ScalarMul_wMOF+0x422>
 8004522:	980b      	ldr	r0, [sp, #44]	; 0x2c
 8004524:	9907      	ldr	r1, [sp, #28]
 8004526:	08c9      	lsrs	r1, r1, #3
 8004528:	f850 2021 	ldr.w	r2, [r0, r1, lsl #2]
 800452c:	9807      	ldr	r0, [sp, #28]
 800452e:	0081      	lsls	r1, r0, #2
 8004530:	f001 011c 	and.w	r1, r1, #28
 8004534:	fa22 f001 	lsr.w	r0, r2, r1
 8004538:	e00c      	b.n	8004554 <cmox_ScalarMul_wMOF+0x43c>
 800453a:	9903      	ldr	r1, [sp, #12]
 800453c:	1a08      	subs	r0, r1, r0
 800453e:	990b      	ldr	r1, [sp, #44]	; 0x2c
 8004540:	1e42      	subs	r2, r0, #1
 8004542:	08d2      	lsrs	r2, r2, #3
 8004544:	1e40      	subs	r0, r0, #1
 8004546:	f851 1022 	ldr.w	r1, [r1, r2, lsl #2]
 800454a:	0080      	lsls	r0, r0, #2
 800454c:	f000 001c 	and.w	r0, r0, #28
 8004550:	fa21 f000 	lsr.w	r0, r1, r0
 8004554:	f89d 4002 	ldrb.w	r4, [sp, #2]
 8004558:	f000 0a0f 	and.w	sl, r0, #15
 800455c:	eba4 040a 	sub.w	r4, r4, sl
 8004560:	b264      	sxtb	r4, r4
 8004562:	2c00      	cmp	r4, #0
 8004564:	d144      	bne.n	80045f0 <cmox_ScalarMul_wMOF+0x4d8>
 8004566:	9807      	ldr	r0, [sp, #28]
 8004568:	9901      	ldr	r1, [sp, #4]
 800456a:	4288      	cmp	r0, r1
 800456c:	da16      	bge.n	800459c <cmox_ScalarMul_wMOF+0x484>
 800456e:	980c      	ldr	r0, [sp, #48]	; 0x30
 8004570:	9907      	ldr	r1, [sp, #28]
 8004572:	08c9      	lsrs	r1, r1, #3
 8004574:	f850 0021 	ldr.w	r0, [r0, r1, lsl #2]
 8004578:	9907      	ldr	r1, [sp, #28]
 800457a:	008a      	lsls	r2, r1, #2
 800457c:	69b9      	ldr	r1, [r7, #24]
 800457e:	f002 021c 	and.w	r2, r2, #28
 8004582:	40d0      	lsrs	r0, r2
 8004584:	684a      	ldr	r2, [r1, #4]
 8004586:	6954      	ldr	r4, [r2, #20]
 8004588:	f010 000f 	ands.w	r0, r0, #15
 800458c:	4643      	mov	r3, r8
 800458e:	d101      	bne.n	8004594 <cmox_ScalarMul_wMOF+0x47c>
 8004590:	9a0f      	ldr	r2, [sp, #60]	; 0x3c
 8004592:	e029      	b.n	80045e8 <cmox_ScalarMul_wMOF+0x4d0>
 8004594:	9902      	ldr	r1, [sp, #8]
 8004596:	f851 2020 	ldr.w	r2, [r1, r0, lsl #2]
 800459a:	e025      	b.n	80045e8 <cmox_ScalarMul_wMOF+0x4d0>
 800459c:	9803      	ldr	r0, [sp, #12]
 800459e:	9907      	ldr	r1, [sp, #28]
 80045a0:	1a41      	subs	r1, r0, r1
 80045a2:	980c      	ldr	r0, [sp, #48]	; 0x30
 80045a4:	1e4a      	subs	r2, r1, #1
 80045a6:	08d2      	lsrs	r2, r2, #3
 80045a8:	1e49      	subs	r1, r1, #1
 80045aa:	f850 0022 	ldr.w	r0, [r0, r2, lsl #2]
 80045ae:	0089      	lsls	r1, r1, #2
 80045b0:	f001 011c 	and.w	r1, r1, #28
 80045b4:	40c8      	lsrs	r0, r1
 80045b6:	9902      	ldr	r1, [sp, #8]
 80045b8:	680a      	ldr	r2, [r1, #0]
 80045ba:	f010 000f 	ands.w	r0, r0, #15
 80045be:	bf0c      	ite	eq
 80045c0:	990f      	ldreq	r1, [sp, #60]	; 0x3c
 80045c2:	f851 1020 	ldrne.w	r1, [r1, r0, lsl #2]
 80045c6:	2001      	movs	r0, #1
 80045c8:	f7fc f9ce 	bl	8000968 <cmox_ECC_CondCopyPoint>
 80045cc:	9802      	ldr	r0, [sp, #8]
 80045ce:	6802      	ldr	r2, [r0, #0]
 80045d0:	4639      	mov	r1, r7
 80045d2:	2001      	movs	r0, #1
 80045d4:	f7fc f9fb 	bl	80009ce <cmox_ECC_CondSymmetricPoint>
 80045d8:	69bc      	ldr	r4, [r7, #24]
 80045da:	9802      	ldr	r0, [sp, #8]
 80045dc:	f8d4 c004 	ldr.w	ip, [r4, #4]
 80045e0:	6802      	ldr	r2, [r0, #0]
 80045e2:	f8dc 4014 	ldr.w	r4, [ip, #20]
 80045e6:	4643      	mov	r3, r8
 80045e8:	4641      	mov	r1, r8
 80045ea:	4638      	mov	r0, r7
 80045ec:	47a0      	blx	r4
 80045ee:	9c10      	ldr	r4, [sp, #64]	; 0x40
 80045f0:	2e00      	cmp	r6, #0
 80045f2:	bfc8      	it	gt
 80045f4:	2d00      	cmpgt	r5, #0
 80045f6:	dc15      	bgt.n	8004624 <cmox_ScalarMul_wMOF+0x50c>
 80045f8:	f1b9 0f00 	cmp.w	r9, #0
 80045fc:	dd06      	ble.n	800460c <cmox_ScalarMul_wMOF+0x4f4>
 80045fe:	9a11      	ldr	r2, [sp, #68]	; 0x44
 8004600:	9808      	ldr	r0, [sp, #32]
 8004602:	2102      	movs	r1, #2
 8004604:	f000 ff01 	bl	800540a <cmox_bn_getBits>
 8004608:	b2c0      	uxtb	r0, r0
 800460a:	e007      	b.n	800461c <cmox_ScalarMul_wMOF+0x504>
 800460c:	9808      	ldr	r0, [sp, #32]
 800460e:	6841      	ldr	r1, [r0, #4]
 8004610:	f89d 0000 	ldrb.w	r0, [sp]
 8004614:	fa01 f000 	lsl.w	r0, r1, r0
 8004618:	f000 0003 	and.w	r0, r0, #3
 800461c:	2e00      	cmp	r6, #0
 800461e:	f57f aeaf 	bpl.w	8004380 <cmox_ScalarMul_wMOF+0x268>
 8004622:	2d00      	cmp	r5, #0
 8004624:	f73f aee3 	bgt.w	80043ee <cmox_ScalarMul_wMOF+0x2d6>
 8004628:	f000 0101 	and.w	r1, r0, #1
 800462c:	ea91 0f60 	teq	r1, r0, asr #1
 8004630:	f43f aedd 	beq.w	80043ee <cmox_ScalarMul_wMOF+0x2d6>
 8004634:	9814      	ldr	r0, [sp, #80]	; 0x50
 8004636:	2800      	cmp	r0, #0
 8004638:	d405      	bmi.n	8004646 <cmox_ScalarMul_wMOF+0x52e>
 800463a:	9a12      	ldr	r2, [sp, #72]	; 0x48
 800463c:	9913      	ldr	r1, [sp, #76]	; 0x4c
 800463e:	9808      	ldr	r0, [sp, #32]
 8004640:	f000 fee3 	bl	800540a <cmox_bn_getBits>
 8004644:	e008      	b.n	8004658 <cmox_ScalarMul_wMOF+0x540>
 8004646:	9808      	ldr	r0, [sp, #32]
 8004648:	6841      	ldr	r1, [r0, #4]
 800464a:	f89d 0001 	ldrb.w	r0, [sp, #1]
 800464e:	fa01 f000 	lsl.w	r0, r1, r0
 8004652:	f89d 1003 	ldrb.w	r1, [sp, #3]
 8004656:	4008      	ands	r0, r1
 8004658:	9a01      	ldr	r2, [sp, #4]
 800465a:	9901      	ldr	r1, [sp, #4]
 800465c:	1a80      	subs	r0, r0, r2
 800465e:	b2c0      	uxtb	r0, r0
 8004660:	4288      	cmp	r0, r1
 8004662:	9006      	str	r0, [sp, #24]
 8004664:	f6bf ae7a 	bge.w	800435c <cmox_ScalarMul_wMOF+0x244>
 8004668:	980b      	ldr	r0, [sp, #44]	; 0x2c
 800466a:	9906      	ldr	r1, [sp, #24]
 800466c:	08c9      	lsrs	r1, r1, #3
 800466e:	f850 5021 	ldr.w	r5, [r0, r1, lsl #2]
 8004672:	9806      	ldr	r0, [sp, #24]
 8004674:	0081      	lsls	r1, r0, #2
 8004676:	f001 011c 	and.w	r1, r1, #28
 800467a:	40cd      	lsrs	r5, r1
 800467c:	e67a      	b.n	8004374 <cmox_ScalarMul_wMOF+0x25c>
 800467e:	9703      	str	r7, [sp, #12]
 8004680:	f1b9 0f00 	cmp.w	r9, #0
 8004684:	9c0d      	ldr	r4, [sp, #52]	; 0x34
 8004686:	9e0f      	ldr	r6, [sp, #60]	; 0x3c
 8004688:	9f08      	ldr	r7, [sp, #32]
 800468a:	f8dd a028 	ldr.w	sl, [sp, #40]	; 0x28
 800468e:	9d09      	ldr	r5, [sp, #36]	; 0x24
 8004690:	d146      	bne.n	8004720 <cmox_ScalarMul_wMOF+0x608>
 8004692:	9803      	ldr	r0, [sp, #12]
 8004694:	f8d0 e018 	ldr.w	lr, [r0, #24]
 8004698:	f8de 9004 	ldr.w	r9, [lr, #4]
 800469c:	f8d9 c00c 	ldr.w	ip, [r9, #12]
 80046a0:	2301      	movs	r3, #1
 80046a2:	4642      	mov	r2, r8
 80046a4:	4641      	mov	r1, r8
 80046a6:	47e0      	blx	ip
 80046a8:	7920      	ldrb	r0, [r4, #4]
 80046aa:	07c1      	lsls	r1, r0, #31
 80046ac:	d517      	bpl.n	80046de <cmox_ScalarMul_wMOF+0x5c6>
 80046ae:	9802      	ldr	r0, [sp, #8]
 80046b0:	6802      	ldr	r2, [r0, #0]
 80046b2:	4631      	mov	r1, r6
 80046b4:	2001      	movs	r0, #1
 80046b6:	f7fc f957 	bl	8000968 <cmox_ECC_CondCopyPoint>
 80046ba:	9802      	ldr	r0, [sp, #8]
 80046bc:	6802      	ldr	r2, [r0, #0]
 80046be:	9903      	ldr	r1, [sp, #12]
 80046c0:	2001      	movs	r0, #1
 80046c2:	f7fc f984 	bl	80009ce <cmox_ECC_CondSymmetricPoint>
 80046c6:	9803      	ldr	r0, [sp, #12]
 80046c8:	f8d0 c018 	ldr.w	ip, [r0, #24]
 80046cc:	9a02      	ldr	r2, [sp, #8]
 80046ce:	f8dc 4004 	ldr.w	r4, [ip, #4]
 80046d2:	6812      	ldr	r2, [r2, #0]
 80046d4:	f8d4 c014 	ldr.w	ip, [r4, #20]
 80046d8:	4643      	mov	r3, r8
 80046da:	4641      	mov	r1, r8
 80046dc:	47e0      	blx	ip
 80046de:	7938      	ldrb	r0, [r7, #4]
 80046e0:	07c1      	lsls	r1, r0, #31
 80046e2:	d51d      	bpl.n	8004720 <cmox_ScalarMul_wMOF+0x608>
 80046e4:	9802      	ldr	r0, [sp, #8]
 80046e6:	6801      	ldr	r1, [r0, #0]
 80046e8:	9101      	str	r1, [sp, #4]
 80046ea:	2206      	movs	r2, #6
 80046ec:	9200      	str	r2, [sp, #0]
 80046ee:	1d28      	adds	r0, r5, #4
 80046f0:	eb00 028a 	add.w	r2, r0, sl, lsl #2
 80046f4:	1d2b      	adds	r3, r5, #4
 80046f6:	4651      	mov	r1, sl
 80046f8:	2001      	movs	r0, #1
 80046fa:	f7fc f9d2 	bl	8000aa2 <cmox_ECC_CondImportPoint>
 80046fe:	9802      	ldr	r0, [sp, #8]
 8004700:	6802      	ldr	r2, [r0, #0]
 8004702:	9903      	ldr	r1, [sp, #12]
 8004704:	2001      	movs	r0, #1
 8004706:	f7fc f962 	bl	80009ce <cmox_ECC_CondSymmetricPoint>
 800470a:	9902      	ldr	r1, [sp, #8]
 800470c:	2000      	movs	r0, #0
 800470e:	9000      	str	r0, [sp, #0]
 8004710:	4643      	mov	r3, r8
 8004712:	9803      	ldr	r0, [sp, #12]
 8004714:	6987      	ldr	r7, [r0, #24]
 8004716:	687c      	ldr	r4, [r7, #4]
 8004718:	680a      	ldr	r2, [r1, #0]
 800471a:	6927      	ldr	r7, [r4, #16]
 800471c:	4641      	mov	r1, r8
 800471e:	47b8      	blx	r7
 8004720:	9817      	ldr	r0, [sp, #92]	; 0x5c
 8004722:	b940      	cbnz	r0, 8004736 <cmox_ScalarMul_wMOF+0x61e>
 8004724:	9803      	ldr	r0, [sp, #12]
 8004726:	4631      	mov	r1, r6
 8004728:	f7fc fa62 	bl	8000bf0 <cmox_ECC_PointFromModularDomain>
 800472c:	9005      	str	r0, [sp, #20]
 800472e:	4641      	mov	r1, r8
 8004730:	9803      	ldr	r0, [sp, #12]
 8004732:	f7fc fa5d 	bl	8000bf0 <cmox_ECC_PointFromModularDomain>
 8004736:	9d03      	ldr	r5, [sp, #12]
 8004738:	9c18      	ldr	r4, [sp, #96]	; 0x60
 800473a:	e007      	b.n	800474c <cmox_ScalarMul_wMOF+0x634>
 800473c:	9802      	ldr	r0, [sp, #8]
 800473e:	eb00 0184 	add.w	r1, r0, r4, lsl #2
 8004742:	1f09      	subs	r1, r1, #4
 8004744:	4628      	mov	r0, r5
 8004746:	f7fc f8de 	bl	8000906 <cmox_ECC_FreePoint>
 800474a:	1e64      	subs	r4, r4, #1
 800474c:	2c00      	cmp	r4, #0
 800474e:	d1f5      	bne.n	800473c <cmox_ScalarMul_wMOF+0x624>
 8004750:	9a15      	ldr	r2, [sp, #84]	; 0x54
 8004752:	69e8      	ldr	r0, [r5, #28]
 8004754:	a902      	add	r1, sp, #8
 8004756:	f7fe ffcd 	bl	80036f4 <cmox_membuf_free>
 800475a:	465c      	mov	r4, fp
 800475c:	e006      	b.n	800476c <cmox_ScalarMul_wMOF+0x654>
 800475e:	6969      	ldr	r1, [r5, #20]
 8004760:	eb01 0284 	add.w	r2, r1, r4, lsl #2
 8004764:	1f11      	subs	r1, r2, #4
 8004766:	f000 fd68 	bl	800523a <cmox_bn_free>
 800476a:	1e64      	subs	r4, r4, #1
 800476c:	69e8      	ldr	r0, [r5, #28]
 800476e:	2c00      	cmp	r4, #0
 8004770:	d1f5      	bne.n	800475e <cmox_ScalarMul_wMOF+0x646>
 8004772:	69a9      	ldr	r1, [r5, #24]
 8004774:	684a      	ldr	r2, [r1, #4]
 8004776:	6992      	ldr	r2, [r2, #24]
 8004778:	0092      	lsls	r2, r2, #2
 800477a:	f105 0114 	add.w	r1, r5, #20
 800477e:	f7fe ffb9 	bl	80036f4 <cmox_membuf_free>
 8004782:	9805      	ldr	r0, [sp, #20]
 8004784:	b019      	add	sp, #100	; 0x64
 8004786:	e8bd 8ff0 	ldmia.w	sp!, {r4, r5, r6, r7, r8, r9, sl, fp, pc}
 800478a:	bf00      	nop
 800478c:	08004794 	.word	0x08004794
 8004790:	080047a0 	.word	0x080047a0

08004794 <cmox_ScalarMul_wMOF::T_Pi>:
 8004794:	00000110 15522440 07733661              ....@$R.a6s.

080047a0 <cmox_ScalarMul_wMOF::T_DblAfter>:
 80047a0:	00002001 20011003 40011002              . ..... ...@

080047ac <cmox_ScalarMul_wNAFRecoding>:
 80047ac:	e92d 47fc 	stmdb	sp!, {r2, r3, r4, r5, r6, r7, r8, r9, sl, lr}
 80047b0:	4681      	mov	r9, r0
 80047b2:	460f      	mov	r7, r1
 80047b4:	2000      	movs	r0, #0
 80047b6:	4692      	mov	sl, r2
 80047b8:	9000      	str	r0, [sp, #0]
 80047ba:	461e      	mov	r6, r3
 80047bc:	683a      	ldr	r2, [r7, #0]
 80047be:	4669      	mov	r1, sp
 80047c0:	4648      	mov	r0, r9
 80047c2:	f000 fd2f 	bl	8005224 <cmox_bn_alloc>
 80047c6:	2500      	movs	r5, #0
 80047c8:	ea5f 0800 	movs.w	r8, r0
 80047cc:	d138      	bne.n	8004840 <cmox_ScalarMul_wNAFRecoding+0x94>
 80047ce:	9800      	ldr	r0, [sp, #0]
 80047d0:	2100      	movs	r1, #0
 80047d2:	f000 fd5e 	bl	8005292 <cmox_bn_init>
 80047d6:	9a00      	ldr	r2, [sp, #0]
 80047d8:	4639      	mov	r1, r7
 80047da:	2001      	movs	r0, #1
 80047dc:	f000 fd68 	bl	80052b0 <cmox_bn_cCopy>
 80047e0:	2401      	movs	r4, #1
 80047e2:	f1aa 0701 	sub.w	r7, sl, #1
 80047e6:	fa04 f707 	lsl.w	r7, r4, r7
 80047ea:	e01c      	b.n	8004826 <cmox_ScalarMul_wNAFRecoding+0x7a>
 80047ec:	2100      	movs	r1, #0
 80047ee:	5571      	strb	r1, [r6, r5]
 80047f0:	e013      	b.n	800481a <cmox_ScalarMul_wNAFRecoding+0x6e>
 80047f2:	9800      	ldr	r0, [sp, #0]
 80047f4:	6841      	ldr	r1, [r0, #4]
 80047f6:	07c8      	lsls	r0, r1, #31
 80047f8:	d5f8      	bpl.n	80047ec <cmox_ScalarMul_wNAFRecoding+0x40>
 80047fa:	fa04 f00a 	lsl.w	r0, r4, sl
 80047fe:	1e42      	subs	r2, r0, #1
 8004800:	4011      	ands	r1, r2
 8004802:	b24a      	sxtb	r2, r1
 8004804:	b27b      	sxtb	r3, r7
 8004806:	429a      	cmp	r2, r3
 8004808:	bfa8      	it	ge
 800480a:	1bc9      	subge	r1, r1, r7
 800480c:	5571      	strb	r1, [r6, r5]
 800480e:	b249      	sxtb	r1, r1
 8004810:	9a00      	ldr	r2, [sp, #0]
 8004812:	4249      	negs	r1, r1
 8004814:	4610      	mov	r0, r2
 8004816:	f7fe fd73 	bl	8003300 <cmox_AddBN_Int>
 800481a:	9a00      	ldr	r2, [sp, #0]
 800481c:	2101      	movs	r1, #1
 800481e:	4610      	mov	r0, r2
 8004820:	f7fe fbff 	bl	8003022 <cmox_RightShiftBN>
 8004824:	1c6d      	adds	r5, r5, #1
 8004826:	9800      	ldr	r0, [sp, #0]
 8004828:	2100      	movs	r1, #0
 800482a:	f000 fdbf 	bl	80053ac <cmox_bn_cmpUint>
 800482e:	2800      	cmp	r0, #0
 8004830:	d0df      	beq.n	80047f2 <cmox_ScalarMul_wNAFRecoding+0x46>
 8004832:	980a      	ldr	r0, [sp, #40]	; 0x28
 8004834:	b100      	cbz	r0, 8004838 <cmox_ScalarMul_wNAFRecoding+0x8c>
 8004836:	6005      	str	r5, [r0, #0]
 8004838:	4669      	mov	r1, sp
 800483a:	4648      	mov	r0, r9
 800483c:	f000 fcfd 	bl	800523a <cmox_bn_free>
 8004840:	4640      	mov	r0, r8
 8004842:	e8bd 87f6 	ldmia.w	sp!, {r1, r2, r4, r5, r6, r7, r8, r9, sl, pc}
	...

08004848 <cmox_sha256_cleanup>:
 8004848:	b500      	push	{lr}
 800484a:	b081      	sub	sp, #4
 800484c:	6801      	ldr	r1, [r0, #0]
 800484e:	4a07      	ldr	r2, [pc, #28]	; (800486c <cmox_sha256_cleanup+0x24>)
 8004850:	4291      	cmp	r1, r2
 8004852:	d100      	bne.n	8004856 <cmox_sha256_cleanup+0xe>
 8004854:	b910      	cbnz	r0, 800485c <cmox_sha256_cleanup+0x14>
 8004856:	4806      	ldr	r0, [pc, #24]	; (8004870 <cmox_sha256_cleanup+0x28>)
 8004858:	b001      	add	sp, #4
 800485a:	bd00      	pop	{pc}
 800485c:	217c      	movs	r1, #124	; 0x7c
 800485e:	f004 fd15 	bl	800928c <__aeabi_memclr>
 8004862:	f44f 3000 	mov.w	r0, #131072	; 0x20000
 8004866:	b001      	add	sp, #4
 8004868:	bd00      	pop	{pc}
 800486a:	bf00      	nop
 800486c:	08004954 	.word	0x08004954
 8004870:	00020003 	.word	0x00020003

08004874 <cmox_sha256_init>:
 8004874:	e92d 41f0 	stmdb	sp!, {r4, r5, r6, r7, r8, lr}
 8004878:	4a0b      	ldr	r2, [pc, #44]	; (80048a8 <cmox_sha256_init+0x34>)
 800487a:	e892 51f8 	ldmia.w	r2, {r3, r4, r5, r6, r7, r8, ip, lr}
 800487e:	b088      	sub	sp, #32
 8004880:	4669      	mov	r1, sp
 8004882:	e881 51f8 	stmia.w	r1, {r3, r4, r5, r6, r7, r8, ip, lr}
 8004886:	6802      	ldr	r2, [r0, #0]
 8004888:	4b08      	ldr	r3, [pc, #32]	; (80048ac <cmox_sha256_init+0x38>)
 800488a:	429a      	cmp	r2, r3
 800488c:	d100      	bne.n	8004890 <cmox_sha256_init+0x1c>
 800488e:	b918      	cbnz	r0, 8004898 <cmox_sha256_init+0x24>
 8004890:	4807      	ldr	r0, [pc, #28]	; (80048b0 <cmox_sha256_init+0x3c>)
 8004892:	b008      	add	sp, #32
 8004894:	e8bd 81f0 	ldmia.w	sp!, {r4, r5, r6, r7, r8, pc}
 8004898:	2220      	movs	r2, #32
 800489a:	3008      	adds	r0, #8
 800489c:	f001 fa15 	bl	8005cca <cmox_md_init>
 80048a0:	b008      	add	sp, #32
 80048a2:	e8bd 81f0 	ldmia.w	sp!, {r4, r5, r6, r7, r8, pc}
 80048a6:	bf00      	nop
 80048a8:	08004934 	.word	0x08004934
 80048ac:	08004954 	.word	0x08004954
 80048b0:	00020003 	.word	0x00020003

080048b4 <cmox_sha256_setTagLen>:
 80048b4:	2921      	cmp	r1, #33	; 0x21
 80048b6:	d204      	bcs.n	80048c2 <cmox_sha256_setTagLen+0xe>
 80048b8:	6802      	ldr	r2, [r0, #0]
 80048ba:	4b04      	ldr	r3, [pc, #16]	; (80048cc <cmox_sha256_setTagLen+0x18>)
 80048bc:	429a      	cmp	r2, r3
 80048be:	d100      	bne.n	80048c2 <cmox_sha256_setTagLen+0xe>
 80048c0:	b908      	cbnz	r0, 80048c6 <cmox_sha256_setTagLen+0x12>
 80048c2:	4803      	ldr	r0, [pc, #12]	; (80048d0 <cmox_sha256_setTagLen+0x1c>)
 80048c4:	4770      	bx	lr
 80048c6:	3008      	adds	r0, #8
 80048c8:	f001 ba0e 	b.w	8005ce8 <cmox_md_setTagSize>
 80048cc:	08004954 	.word	0x08004954
 80048d0:	00020003 	.word	0x00020003

080048d4 <cmox_sha256_append>:
 80048d4:	b410      	push	{r4}
 80048d6:	b081      	sub	sp, #4
 80048d8:	4613      	mov	r3, r2
 80048da:	6802      	ldr	r2, [r0, #0]
 80048dc:	4c07      	ldr	r4, [pc, #28]	; (80048fc <cmox_sha256_append+0x28>)
 80048de:	42a2      	cmp	r2, r4
 80048e0:	d100      	bne.n	80048e4 <cmox_sha256_append+0x10>
 80048e2:	b918      	cbnz	r0, 80048ec <cmox_sha256_append+0x18>
 80048e4:	b001      	add	sp, #4
 80048e6:	bc10      	pop	{r4}
 80048e8:	4805      	ldr	r0, [pc, #20]	; (8004900 <cmox_sha256_append+0x2c>)
 80048ea:	4770      	bx	lr
 80048ec:	b001      	add	sp, #4
 80048ee:	f100 0224 	add.w	r2, r0, #36	; 0x24
 80048f2:	bc10      	pop	{r4}
 80048f4:	3008      	adds	r0, #8
 80048f6:	f001 b9fb 	b.w	8005cf0 <cmox_md_append>
 80048fa:	bf00      	nop
 80048fc:	08004954 	.word	0x08004954
 8004900:	00020003 	.word	0x00020003

08004904 <cmox_sha256_generateTag>:
 8004904:	b410      	push	{r4}
 8004906:	b081      	sub	sp, #4
 8004908:	4613      	mov	r3, r2
 800490a:	6802      	ldr	r2, [r0, #0]
 800490c:	4c07      	ldr	r4, [pc, #28]	; (800492c <cmox_sha256_generateTag+0x28>)
 800490e:	42a2      	cmp	r2, r4
 8004910:	d100      	bne.n	8004914 <cmox_sha256_generateTag+0x10>
 8004912:	b918      	cbnz	r0, 800491c <cmox_sha256_generateTag+0x18>
 8004914:	b001      	add	sp, #4
 8004916:	bc10      	pop	{r4}
 8004918:	4805      	ldr	r0, [pc, #20]	; (8004930 <cmox_sha256_generateTag+0x2c>)
 800491a:	4770      	bx	lr
 800491c:	460a      	mov	r2, r1
 800491e:	b001      	add	sp, #4
 8004920:	f100 0124 	add.w	r1, r0, #36	; 0x24
 8004924:	bc10      	pop	{r4}
 8004926:	3008      	adds	r0, #8
 8004928:	f001 ba36 	b.w	8005d98 <cmox_md_generateTag>
 800492c:	08004954 	.word	0x08004954
 8004930:	00020003 	.word	0x00020003
 8004934:	6a09e667 	.word	0x6a09e667
 8004938:	bb67ae85 	.word	0xbb67ae85
 800493c:	3c6ef372 	.word	0x3c6ef372
 8004940:	a54ff53a 	.word	0xa54ff53a
 8004944:	510e527f 	.word	0x510e527f
 8004948:	9b05688c 	.word	0x9b05688c
 800494c:	1f83d9ab 	.word	0x1f83d9ab
 8004950:	5be0cd19 	.word	0x5be0cd19

08004954 <CMOX_SHA256_VTABLE>:
 8004954:	08004849 08004875 080048b5 080048d5     IH..uH...H...H..
 8004964:	08004905                                .I..

08004968 <cmox_sha256_compute>:
 8004968:	b5f0      	push	{r4, r5, r6, r7, lr}
 800496a:	b0a3      	sub	sp, #140	; 0x8c
 800496c:	4604      	mov	r4, r0
 800496e:	480b      	ldr	r0, [pc, #44]	; (800499c <cmox_sha256_compute+0x34>)
 8004970:	9002      	str	r0, [sp, #8]
 8004972:	460d      	mov	r5, r1
 8004974:	4616      	mov	r6, r2
 8004976:	461f      	mov	r7, r3
 8004978:	4b09      	ldr	r3, [pc, #36]	; (80049a0 <cmox_sha256_compute+0x38>)
 800497a:	2208      	movs	r2, #8
 800497c:	2140      	movs	r1, #64	; 0x40
 800497e:	a804      	add	r0, sp, #16
 8004980:	f001 f99f 	bl	8005cc2 <cmox_md_construct>
 8004984:	9828      	ldr	r0, [sp, #160]	; 0xa0
 8004986:	9001      	str	r0, [sp, #4]
 8004988:	9700      	str	r7, [sp, #0]
 800498a:	4633      	mov	r3, r6
 800498c:	462a      	mov	r2, r5
 800498e:	4621      	mov	r1, r4
 8004990:	a802      	add	r0, sp, #8
 8004992:	f7fe faf1 	bl	8002f78 <cmox_hash_common_compute>
 8004996:	b023      	add	sp, #140	; 0x8c
 8004998:	bdf0      	pop	{r4, r5, r6, r7, pc}
 800499a:	bf00      	nop
 800499c:	08004954 	.word	0x08004954
 80049a0:	08009890 	.word	0x08009890

080049a4 <cmox_sha256_construct>:
 80049a4:	b510      	push	{r4, lr}
 80049a6:	0004      	movs	r4, r0
 80049a8:	bf08      	it	eq
 80049aa:	2400      	moveq	r4, #0
 80049ac:	d008      	beq.n	80049c0 <cmox_sha256_construct+0x1c>
 80049ae:	4805      	ldr	r0, [pc, #20]	; (80049c4 <cmox_sha256_construct+0x20>)
 80049b0:	4b05      	ldr	r3, [pc, #20]	; (80049c8 <cmox_sha256_construct+0x24>)
 80049b2:	6020      	str	r0, [r4, #0]
 80049b4:	2208      	movs	r2, #8
 80049b6:	2140      	movs	r1, #64	; 0x40
 80049b8:	f104 0008 	add.w	r0, r4, #8
 80049bc:	f001 f981 	bl	8005cc2 <cmox_md_construct>
 80049c0:	4620      	mov	r0, r4
 80049c2:	bd10      	pop	{r4, pc}
 80049c4:	08004954 	.word	0x08004954
 80049c8:	08009890 	.word	0x08009890

080049cc <cmox_sha256_transform>:
 80049cc:	e92d 4ff0 	stmdb	sp!, {r4, r5, r6, r7, r8, r9, sl, fp, lr}
 80049d0:	b0c1      	sub	sp, #260	; 0x104
 80049d2:	680b      	ldr	r3, [r1, #0]
 80049d4:	ba1b      	rev	r3, r3
 80049d6:	9301      	str	r3, [sp, #4]
 80049d8:	4602      	mov	r2, r0
 80049da:	684b      	ldr	r3, [r1, #4]
 80049dc:	a801      	add	r0, sp, #4
 80049de:	ba1b      	rev	r3, r3
 80049e0:	6043      	str	r3, [r0, #4]
 80049e2:	f10d 0c44 	add.w	ip, sp, #68	; 0x44
 80049e6:	688b      	ldr	r3, [r1, #8]
 80049e8:	ba1b      	rev	r3, r3
 80049ea:	6083      	str	r3, [r0, #8]
 80049ec:	68cb      	ldr	r3, [r1, #12]
 80049ee:	ba1b      	rev	r3, r3
 80049f0:	60c3      	str	r3, [r0, #12]
 80049f2:	690b      	ldr	r3, [r1, #16]
 80049f4:	ba1b      	rev	r3, r3
 80049f6:	6103      	str	r3, [r0, #16]
 80049f8:	694b      	ldr	r3, [r1, #20]
 80049fa:	ba1b      	rev	r3, r3
 80049fc:	6143      	str	r3, [r0, #20]
 80049fe:	698b      	ldr	r3, [r1, #24]
 8004a00:	ba1b      	rev	r3, r3
 8004a02:	6183      	str	r3, [r0, #24]
 8004a04:	69cb      	ldr	r3, [r1, #28]
 8004a06:	ba1b      	rev	r3, r3
 8004a08:	61c3      	str	r3, [r0, #28]
 8004a0a:	6a0b      	ldr	r3, [r1, #32]
 8004a0c:	ba1b      	rev	r3, r3
 8004a0e:	6203      	str	r3, [r0, #32]
 8004a10:	6a4b      	ldr	r3, [r1, #36]	; 0x24
 8004a12:	ba1b      	rev	r3, r3
 8004a14:	6243      	str	r3, [r0, #36]	; 0x24
 8004a16:	6a8b      	ldr	r3, [r1, #40]	; 0x28
 8004a18:	ba1b      	rev	r3, r3
 8004a1a:	6283      	str	r3, [r0, #40]	; 0x28
 8004a1c:	6acb      	ldr	r3, [r1, #44]	; 0x2c
 8004a1e:	ba1b      	rev	r3, r3
 8004a20:	62c3      	str	r3, [r0, #44]	; 0x2c
 8004a22:	6b0b      	ldr	r3, [r1, #48]	; 0x30
 8004a24:	ba1b      	rev	r3, r3
 8004a26:	6303      	str	r3, [r0, #48]	; 0x30
 8004a28:	6b4b      	ldr	r3, [r1, #52]	; 0x34
 8004a2a:	ba1b      	rev	r3, r3
 8004a2c:	6343      	str	r3, [r0, #52]	; 0x34
 8004a2e:	6b8b      	ldr	r3, [r1, #56]	; 0x38
 8004a30:	ba1b      	rev	r3, r3
 8004a32:	6383      	str	r3, [r0, #56]	; 0x38
 8004a34:	6bc9      	ldr	r1, [r1, #60]	; 0x3c
 8004a36:	ba09      	rev	r1, r1
 8004a38:	63c1      	str	r1, [r0, #60]	; 0x3c
 8004a3a:	2018      	movs	r0, #24
 8004a3c:	f85c 4c08 	ldr.w	r4, [ip, #-8]
 8004a40:	ea4f 41f4 	mov.w	r1, r4, ror #19
 8004a44:	ea91 4374 	eors.w	r3, r1, r4, ror #17
 8004a48:	f85c 1c3c 	ldr.w	r1, [ip, #-60]
 8004a4c:	ea83 2394 	eor.w	r3, r3, r4, lsr #10
 8004a50:	ea4f 47b1 	mov.w	r7, r1, ror #18
 8004a54:	f85c 4c1c 	ldr.w	r4, [ip, #-28]
 8004a58:	ea97 16f1 	eors.w	r6, r7, r1, ror #7
 8004a5c:	4423      	add	r3, r4
 8004a5e:	ea86 06d1 	eor.w	r6, r6, r1, lsr #3
 8004a62:	18f3      	adds	r3, r6, r3
 8004a64:	f85c 6c40 	ldr.w	r6, [ip, #-64]
 8004a68:	18f3      	adds	r3, r6, r3
 8004a6a:	f8cc 3000 	str.w	r3, [ip]
 8004a6e:	f85c 4c04 	ldr.w	r4, [ip, #-4]
 8004a72:	ea4f 46f4 	mov.w	r6, r4, ror #19
 8004a76:	ea96 4374 	eors.w	r3, r6, r4, ror #17
 8004a7a:	f85c 6c38 	ldr.w	r6, [ip, #-56]
 8004a7e:	ea83 2394 	eor.w	r3, r3, r4, lsr #10
 8004a82:	ea4f 4ab6 	mov.w	sl, r6, ror #18
 8004a86:	f85c 4c18 	ldr.w	r4, [ip, #-24]
 8004a8a:	ea8a 17f6 	eor.w	r7, sl, r6, ror #7
 8004a8e:	4423      	add	r3, r4
 8004a90:	ea87 07d6 	eor.w	r7, r7, r6, lsr #3
 8004a94:	18fb      	adds	r3, r7, r3
 8004a96:	18c9      	adds	r1, r1, r3
 8004a98:	f8cc 1004 	str.w	r1, [ip, #4]
 8004a9c:	1e40      	subs	r0, r0, #1
 8004a9e:	f10c 0c08 	add.w	ip, ip, #8
 8004aa2:	d1cb      	bne.n	8004a3c <cmox_sha256_transform+0x70>
 8004aa4:	4610      	mov	r0, r2
 8004aa6:	9200      	str	r2, [sp, #0]
 8004aa8:	6dc1      	ldr	r1, [r0, #92]	; 0x5c
 8004aaa:	6ec3      	ldr	r3, [r0, #108]	; 0x6c
 8004aac:	f8d0 e060 	ldr.w	lr, [r0, #96]	; 0x60
 8004ab0:	f8d0 8070 	ldr.w	r8, [r0, #112]	; 0x70
 8004ab4:	6e42      	ldr	r2, [r0, #100]	; 0x64
 8004ab6:	6f44      	ldr	r4, [r0, #116]	; 0x74
 8004ab8:	f8d0 a068 	ldr.w	sl, [r0, #104]	; 0x68
 8004abc:	6f85      	ldr	r5, [r0, #120]	; 0x78
 8004abe:	f8df 90f4 	ldr.w	r9, [pc, #244]	; 8004bb4 <cmox_sha256_transform+0x1e8>
 8004ac2:	f10d 0c04 	add.w	ip, sp, #4
 8004ac6:	2020      	movs	r0, #32
 8004ac8:	ea4f 16b3 	mov.w	r6, r3, ror #6
 8004acc:	ea86 26f3 	eor.w	r6, r6, r3, ror #11
 8004ad0:	ea86 6673 	eor.w	r6, r6, r3, ror #25
 8004ad4:	1975      	adds	r5, r6, r5
 8004ad6:	ea84 0608 	eor.w	r6, r4, r8
 8004ada:	401e      	ands	r6, r3
 8004adc:	4066      	eors	r6, r4
 8004ade:	1975      	adds	r5, r6, r5
 8004ae0:	f859 6b04 	ldr.w	r6, [r9], #4
 8004ae4:	f85c 7b04 	ldr.w	r7, [ip], #4
 8004ae8:	1975      	adds	r5, r6, r5
 8004aea:	197e      	adds	r6, r7, r5
 8004aec:	ea4f 07b1 	mov.w	r7, r1, ror #2
 8004af0:	ea4e 0b01 	orr.w	fp, lr, r1
 8004af4:	ea87 3771 	eor.w	r7, r7, r1, ror #13
 8004af8:	ea0e 0501 	and.w	r5, lr, r1
 8004afc:	ea0b 0b02 	and.w	fp, fp, r2
 8004b00:	ea87 57b1 	eor.w	r7, r7, r1, ror #22
 8004b04:	ea4b 0505 	orr.w	r5, fp, r5
 8004b08:	19ef      	adds	r7, r5, r7
 8004b0a:	4645      	mov	r5, r8
 8004b0c:	eb06 080a 	add.w	r8, r6, sl
 8004b10:	4692      	mov	sl, r2
 8004b12:	4672      	mov	r2, lr
 8004b14:	eb07 0e06 	add.w	lr, r7, r6
 8004b18:	ea4f 16b8 	mov.w	r6, r8, ror #6
 8004b1c:	ea86 26f8 	eor.w	r6, r6, r8, ror #11
 8004b20:	ea86 6678 	eor.w	r6, r6, r8, ror #25
 8004b24:	1934      	adds	r4, r6, r4
 8004b26:	ea85 0603 	eor.w	r6, r5, r3
 8004b2a:	ea06 0608 	and.w	r6, r6, r8
 8004b2e:	406e      	eors	r6, r5
 8004b30:	1934      	adds	r4, r6, r4
 8004b32:	f859 6b04 	ldr.w	r6, [r9], #4
 8004b36:	f85c 7b04 	ldr.w	r7, [ip], #4
 8004b3a:	1934      	adds	r4, r6, r4
 8004b3c:	193e      	adds	r6, r7, r4
 8004b3e:	ea4f 07be 	mov.w	r7, lr, ror #2
 8004b42:	ea41 0b0e 	orr.w	fp, r1, lr
 8004b46:	ea87 377e 	eor.w	r7, r7, lr, ror #13
 8004b4a:	ea01 040e 	and.w	r4, r1, lr
 8004b4e:	ea0b 0b02 	and.w	fp, fp, r2
 8004b52:	ea87 57be 	eor.w	r7, r7, lr, ror #22
 8004b56:	ea4b 0404 	orr.w	r4, fp, r4
 8004b5a:	19e7      	adds	r7, r4, r7
 8004b5c:	461c      	mov	r4, r3
 8004b5e:	eb06 030a 	add.w	r3, r6, sl
 8004b62:	4692      	mov	sl, r2
 8004b64:	460a      	mov	r2, r1
 8004b66:	19b9      	adds	r1, r7, r6
 8004b68:	1e40      	subs	r0, r0, #1
 8004b6a:	d1ad      	bne.n	8004ac8 <cmox_sha256_transform+0xfc>
 8004b6c:	9800      	ldr	r0, [sp, #0]
 8004b6e:	6dc6      	ldr	r6, [r0, #92]	; 0x5c
 8004b70:	4431      	add	r1, r6
 8004b72:	65c1      	str	r1, [r0, #92]	; 0x5c
 8004b74:	9900      	ldr	r1, [sp, #0]
 8004b76:	6e08      	ldr	r0, [r1, #96]	; 0x60
 8004b78:	4470      	add	r0, lr
 8004b7a:	6608      	str	r0, [r1, #96]	; 0x60
 8004b7c:	9800      	ldr	r0, [sp, #0]
 8004b7e:	6e41      	ldr	r1, [r0, #100]	; 0x64
 8004b80:	1852      	adds	r2, r2, r1
 8004b82:	6642      	str	r2, [r0, #100]	; 0x64
 8004b84:	9900      	ldr	r1, [sp, #0]
 8004b86:	6e88      	ldr	r0, [r1, #104]	; 0x68
 8004b88:	4450      	add	r0, sl
 8004b8a:	6688      	str	r0, [r1, #104]	; 0x68
 8004b8c:	9800      	ldr	r0, [sp, #0]
 8004b8e:	6ec1      	ldr	r1, [r0, #108]	; 0x6c
 8004b90:	185b      	adds	r3, r3, r1
 8004b92:	66c3      	str	r3, [r0, #108]	; 0x6c
 8004b94:	9900      	ldr	r1, [sp, #0]
 8004b96:	6f08      	ldr	r0, [r1, #112]	; 0x70
 8004b98:	4440      	add	r0, r8
 8004b9a:	6708      	str	r0, [r1, #112]	; 0x70
 8004b9c:	9800      	ldr	r0, [sp, #0]
 8004b9e:	6f41      	ldr	r1, [r0, #116]	; 0x74
 8004ba0:	1864      	adds	r4, r4, r1
 8004ba2:	6744      	str	r4, [r0, #116]	; 0x74
 8004ba4:	9900      	ldr	r1, [sp, #0]
 8004ba6:	6f88      	ldr	r0, [r1, #120]	; 0x78
 8004ba8:	182d      	adds	r5, r5, r0
 8004baa:	678d      	str	r5, [r1, #120]	; 0x78
 8004bac:	b041      	add	sp, #260	; 0x104
 8004bae:	e8bd 8ff0 	ldmia.w	sp!, {r4, r5, r6, r7, r8, r9, sl, fp, pc}
 8004bb2:	bf00      	nop
 8004bb4:	08009790 	.word	0x08009790

08004bb8 <firstloop_bb_cmp>:
 8004bb8:	b5f8      	push	{r3, r4, r5, r6, r7, lr}
 8004bba:	2401      	movs	r4, #1
 8004bbc:	9400      	str	r4, [sp, #0]
 8004bbe:	2300      	movs	r3, #0
 8004bc0:	2400      	movs	r4, #0
 8004bc2:	e00d      	b.n	8004be0 <firstloop_bb_cmp+0x28>
 8004bc4:	9d00      	ldr	r5, [sp, #0]
 8004bc6:	5d06      	ldrb	r6, [r0, r4]
 8004bc8:	5d0f      	ldrb	r7, [r1, r4]
 8004bca:	407e      	eors	r6, r7
 8004bcc:	43f6      	mvns	r6, r6
 8004bce:	1c76      	adds	r6, r6, #1
 8004bd0:	0ff6      	lsrs	r6, r6, #31
 8004bd2:	f086 0601 	eor.w	r6, r6, #1
 8004bd6:	4035      	ands	r5, r6
 8004bd8:	9500      	str	r5, [sp, #0]
 8004bda:	1c64      	adds	r4, r4, #1
 8004bdc:	9d00      	ldr	r5, [sp, #0]
 8004bde:	18eb      	adds	r3, r5, r3
 8004be0:	4294      	cmp	r4, r2
 8004be2:	d3ef      	bcc.n	8004bc4 <firstloop_bb_cmp+0xc>
 8004be4:	4618      	mov	r0, r3
 8004be6:	bdf2      	pop	{r1, r4, r5, r6, r7, pc}

08004be8 <secondloop_bb_cmp>:
 8004be8:	b5f8      	push	{r3, r4, r5, r6, r7, lr}
 8004bea:	2300      	movs	r3, #0
 8004bec:	2401      	movs	r4, #1
 8004bee:	9400      	str	r4, [sp, #0]
 8004bf0:	2a00      	cmp	r2, #0
 8004bf2:	e011      	b.n	8004c18 <secondloop_bb_cmp+0x30>
 8004bf4:	9c00      	ldr	r4, [sp, #0]
 8004bf6:	1885      	adds	r5, r0, r2
 8004bf8:	188f      	adds	r7, r1, r2
 8004bfa:	f815 6c01 	ldrb.w	r6, [r5, #-1]
 8004bfe:	f817 5c01 	ldrb.w	r5, [r7, #-1]
 8004c02:	406e      	eors	r6, r5
 8004c04:	43f6      	mvns	r6, r6
 8004c06:	1c76      	adds	r6, r6, #1
 8004c08:	0ff6      	lsrs	r6, r6, #31
 8004c0a:	f086 0601 	eor.w	r6, r6, #1
 8004c0e:	4034      	ands	r4, r6
 8004c10:	9400      	str	r4, [sp, #0]
 8004c12:	9c00      	ldr	r4, [sp, #0]
 8004c14:	18e3      	adds	r3, r4, r3
 8004c16:	1e52      	subs	r2, r2, #1
 8004c18:	d1ec      	bne.n	8004bf4 <secondloop_bb_cmp+0xc>
 8004c1a:	4618      	mov	r0, r3
 8004c1c:	bdf2      	pop	{r1, r4, r5, r6, r7, pc}

08004c1e <firstloop_bw_be_cmp>:
 8004c1e:	e92d 41f8 	stmdb	sp!, {r3, r4, r5, r6, r7, r8, lr}
 8004c22:	2401      	movs	r4, #1
 8004c24:	9400      	str	r4, [sp, #0]
 8004c26:	2300      	movs	r3, #0
 8004c28:	2500      	movs	r5, #0
 8004c2a:	0894      	lsrs	r4, r2, #2
 8004c2c:	e015      	b.n	8004c5a <firstloop_bw_be_cmp+0x3c>
 8004c2e:	f850 6025 	ldr.w	r6, [r0, r5, lsl #2]
 8004c32:	f851 7025 	ldr.w	r7, [r1, r5, lsl #2]
 8004c36:	ba36      	rev	r6, r6
 8004c38:	407e      	eors	r6, r7
 8004c3a:	ea6f 0e06 	mvn.w	lr, r6
 8004c3e:	f10e 0e01 	add.w	lr, lr, #1
 8004c42:	ea4e 0606 	orr.w	r6, lr, r6
 8004c46:	9f00      	ldr	r7, [sp, #0]
 8004c48:	0ff6      	lsrs	r6, r6, #31
 8004c4a:	f086 0601 	eor.w	r6, r6, #1
 8004c4e:	403e      	ands	r6, r7
 8004c50:	9600      	str	r6, [sp, #0]
 8004c52:	1c6d      	adds	r5, r5, #1
 8004c54:	9e00      	ldr	r6, [sp, #0]
 8004c56:	eb03 0386 	add.w	r3, r3, r6, lsl #2
 8004c5a:	42a5      	cmp	r5, r4
 8004c5c:	d3e7      	bcc.n	8004c2e <firstloop_bw_be_cmp+0x10>
 8004c5e:	0895      	lsrs	r5, r2, #2
 8004c60:	eba2 0585 	sub.w	r5, r2, r5, lsl #2
 8004c64:	2600      	movs	r6, #0
 8004c66:	e01f      	b.n	8004ca8 <firstloop_bw_be_cmp+0x8a>
 8004c68:	eba2 0c05 	sub.w	ip, r2, r5
 8004c6c:	9f00      	ldr	r7, [sp, #0]
 8004c6e:	f851 8024 	ldr.w	r8, [r1, r4, lsl #2]
 8004c72:	44b4      	add	ip, r6
 8004c74:	f810 e00c 	ldrb.w	lr, [r0, ip]
 8004c78:	ea4f 0cc6 	mov.w	ip, r6, lsl #3
 8004c7c:	f1cc 0c18 	rsb	ip, ip, #24
 8004c80:	fa28 f80c 	lsr.w	r8, r8, ip
 8004c84:	ea88 0e0e 	eor.w	lr, r8, lr
 8004c88:	fa5f fe8e 	uxtb.w	lr, lr
 8004c8c:	ea6f 0e0e 	mvn.w	lr, lr
 8004c90:	f10e 0e01 	add.w	lr, lr, #1
 8004c94:	ea4f 7ede 	mov.w	lr, lr, lsr #31
 8004c98:	f08e 0e01 	eor.w	lr, lr, #1
 8004c9c:	ea0e 0707 	and.w	r7, lr, r7
 8004ca0:	9700      	str	r7, [sp, #0]
 8004ca2:	1c76      	adds	r6, r6, #1
 8004ca4:	9f00      	ldr	r7, [sp, #0]
 8004ca6:	18fb      	adds	r3, r7, r3
 8004ca8:	42ae      	cmp	r6, r5
 8004caa:	d3dd      	bcc.n	8004c68 <firstloop_bw_be_cmp+0x4a>
 8004cac:	4618      	mov	r0, r3
 8004cae:	e8bd 81f2 	ldmia.w	sp!, {r1, r4, r5, r6, r7, r8, pc}

08004cb2 <secondloop_bw_be_cmp>:
 8004cb2:	b5f8      	push	{r3, r4, r5, r6, r7, lr}
 8004cb4:	2401      	movs	r4, #1
 8004cb6:	9400      	str	r4, [sp, #0]
 8004cb8:	2300      	movs	r3, #0
 8004cba:	0894      	lsrs	r4, r2, #2
 8004cbc:	00a4      	lsls	r4, r4, #2
 8004cbe:	4615      	mov	r5, r2
 8004cc0:	e01d      	b.n	8004cfe <secondloop_bw_be_cmp+0x4c>
 8004cc2:	9e00      	ldr	r6, [sp, #0]
 8004cc4:	eba5 0e04 	sub.w	lr, r5, r4
 8004cc8:	08a7      	lsrs	r7, r4, #2
 8004cca:	f1ae 0e01 	sub.w	lr, lr, #1
 8004cce:	f851 7027 	ldr.w	r7, [r1, r7, lsl #2]
 8004cd2:	ea4f 0ece 	mov.w	lr, lr, lsl #3
 8004cd6:	f1ce 0e18 	rsb	lr, lr, #24
 8004cda:	fa27 fc0e 	lsr.w	ip, r7, lr
 8004cde:	1947      	adds	r7, r0, r5
 8004ce0:	1e6d      	subs	r5, r5, #1
 8004ce2:	f817 7c01 	ldrb.w	r7, [r7, #-1]
 8004ce6:	ea87 070c 	eor.w	r7, r7, ip
 8004cea:	b2ff      	uxtb	r7, r7
 8004cec:	43ff      	mvns	r7, r7
 8004cee:	1c7f      	adds	r7, r7, #1
 8004cf0:	0fff      	lsrs	r7, r7, #31
 8004cf2:	f087 0701 	eor.w	r7, r7, #1
 8004cf6:	403e      	ands	r6, r7
 8004cf8:	9600      	str	r6, [sp, #0]
 8004cfa:	9e00      	ldr	r6, [sp, #0]
 8004cfc:	18f3      	adds	r3, r6, r3
 8004cfe:	42ac      	cmp	r4, r5
 8004d00:	d3df      	bcc.n	8004cc2 <secondloop_bw_be_cmp+0x10>
 8004d02:	0892      	lsrs	r2, r2, #2
 8004d04:	e016      	b.n	8004d34 <secondloop_bw_be_cmp+0x82>
 8004d06:	eb00 0482 	add.w	r4, r0, r2, lsl #2
 8004d0a:	eb01 0682 	add.w	r6, r1, r2, lsl #2
 8004d0e:	f854 5c04 	ldr.w	r5, [r4, #-4]
 8004d12:	ba2c      	rev	r4, r5
 8004d14:	f856 5c04 	ldr.w	r5, [r6, #-4]
 8004d18:	9e00      	ldr	r6, [sp, #0]
 8004d1a:	406c      	eors	r4, r5
 8004d1c:	43e7      	mvns	r7, r4
 8004d1e:	1c7f      	adds	r7, r7, #1
 8004d20:	433c      	orrs	r4, r7
 8004d22:	0fe4      	lsrs	r4, r4, #31
 8004d24:	f084 0401 	eor.w	r4, r4, #1
 8004d28:	4034      	ands	r4, r6
 8004d2a:	9400      	str	r4, [sp, #0]
 8004d2c:	1e52      	subs	r2, r2, #1
 8004d2e:	9c00      	ldr	r4, [sp, #0]
 8004d30:	eb03 0384 	add.w	r3, r3, r4, lsl #2
 8004d34:	d1e7      	bne.n	8004d06 <secondloop_bw_be_cmp+0x54>
 8004d36:	4618      	mov	r0, r3
 8004d38:	bdf2      	pop	{r1, r4, r5, r6, r7, pc}

08004d3a <firstloop_bw_be_r_cmp>:
 8004d3a:	e92d 41f8 	stmdb	sp!, {r3, r4, r5, r6, r7, r8, lr}
 8004d3e:	2401      	movs	r4, #1
 8004d40:	9400      	str	r4, [sp, #0]
 8004d42:	460b      	mov	r3, r1
 8004d44:	0895      	lsrs	r5, r2, #2
 8004d46:	2100      	movs	r1, #0
 8004d48:	eba2 0585 	sub.w	r5, r2, r5, lsl #2
 8004d4c:	2400      	movs	r4, #0
 8004d4e:	1f1b      	subs	r3, r3, #4
 8004d50:	e01c      	b.n	8004d8c <firstloop_bw_be_r_cmp+0x52>
 8004d52:	f102 0c03 	add.w	ip, r2, #3
 8004d56:	ea4f 0c9c 	mov.w	ip, ip, lsr #2
 8004d5a:	9e00      	ldr	r6, [sp, #0]
 8004d5c:	f853 e02c 	ldr.w	lr, [r3, ip, lsl #2]
 8004d60:	5d07      	ldrb	r7, [r0, r4]
 8004d62:	eba5 0804 	sub.w	r8, r5, r4
 8004d66:	f1a8 0c01 	sub.w	ip, r8, #1
 8004d6a:	ea4f 0ccc 	mov.w	ip, ip, lsl #3
 8004d6e:	fa2e fe0c 	lsr.w	lr, lr, ip
 8004d72:	ea8e 0707 	eor.w	r7, lr, r7
 8004d76:	b2ff      	uxtb	r7, r7
 8004d78:	43ff      	mvns	r7, r7
 8004d7a:	1c7f      	adds	r7, r7, #1
 8004d7c:	0fff      	lsrs	r7, r7, #31
 8004d7e:	f087 0701 	eor.w	r7, r7, #1
 8004d82:	403e      	ands	r6, r7
 8004d84:	9600      	str	r6, [sp, #0]
 8004d86:	1c64      	adds	r4, r4, #1
 8004d88:	9e00      	ldr	r6, [sp, #0]
 8004d8a:	1871      	adds	r1, r6, r1
 8004d8c:	42ac      	cmp	r4, r5
 8004d8e:	d3e0      	bcc.n	8004d52 <firstloop_bw_be_r_cmp+0x18>
 8004d90:	2500      	movs	r5, #0
 8004d92:	0892      	lsrs	r2, r2, #2
 8004d94:	e017      	b.n	8004dc6 <firstloop_bw_be_r_cmp+0x8c>
 8004d96:	1906      	adds	r6, r0, r4
 8004d98:	1b57      	subs	r7, r2, r5
 8004d9a:	f856 6025 	ldr.w	r6, [r6, r5, lsl #2]
 8004d9e:	f853 7027 	ldr.w	r7, [r3, r7, lsl #2]
 8004da2:	ba36      	rev	r6, r6
 8004da4:	407e      	eors	r6, r7
 8004da6:	ea6f 0e06 	mvn.w	lr, r6
 8004daa:	f10e 0e01 	add.w	lr, lr, #1
 8004dae:	ea4e 0606 	orr.w	r6, lr, r6
 8004db2:	9f00      	ldr	r7, [sp, #0]
 8004db4:	0ff6      	lsrs	r6, r6, #31
 8004db6:	f086 0601 	eor.w	r6, r6, #1
 8004dba:	403e      	ands	r6, r7
 8004dbc:	9600      	str	r6, [sp, #0]
 8004dbe:	1c6d      	adds	r5, r5, #1
 8004dc0:	9e00      	ldr	r6, [sp, #0]
 8004dc2:	eb01 0186 	add.w	r1, r1, r6, lsl #2
 8004dc6:	4295      	cmp	r5, r2
 8004dc8:	d3e5      	bcc.n	8004d96 <firstloop_bw_be_r_cmp+0x5c>
 8004dca:	4608      	mov	r0, r1
 8004dcc:	e8bd 81f2 	ldmia.w	sp!, {r1, r4, r5, r6, r7, r8, pc}

08004dd0 <secondloop_bw_be_r_cmp>:
 8004dd0:	b5fc      	push	{r2, r3, r4, r5, r6, r7, lr}
 8004dd2:	2501      	movs	r5, #1
 8004dd4:	0896      	lsrs	r6, r2, #2
 8004dd6:	4603      	mov	r3, r0
 8004dd8:	9500      	str	r5, [sp, #0]
 8004dda:	eba2 0686 	sub.w	r6, r2, r6, lsl #2
 8004dde:	2400      	movs	r4, #0
 8004de0:	9601      	str	r6, [sp, #4]
 8004de2:	4610      	mov	r0, r2
 8004de4:	e015      	b.n	8004e12 <secondloop_bw_be_r_cmp+0x42>
 8004de6:	181d      	adds	r5, r3, r0
 8004de8:	1a16      	subs	r6, r2, r0
 8004dea:	f855 5c04 	ldr.w	r5, [r5, #-4]
 8004dee:	08b6      	lsrs	r6, r6, #2
 8004df0:	f851 6026 	ldr.w	r6, [r1, r6, lsl #2]
 8004df4:	9f00      	ldr	r7, [sp, #0]
 8004df6:	ba2d      	rev	r5, r5
 8004df8:	4075      	eors	r5, r6
 8004dfa:	43ee      	mvns	r6, r5
 8004dfc:	1c76      	adds	r6, r6, #1
 8004dfe:	4335      	orrs	r5, r6
 8004e00:	0fed      	lsrs	r5, r5, #31
 8004e02:	f085 0501 	eor.w	r5, r5, #1
 8004e06:	403d      	ands	r5, r7
 8004e08:	9500      	str	r5, [sp, #0]
 8004e0a:	1f00      	subs	r0, r0, #4
 8004e0c:	9d00      	ldr	r5, [sp, #0]
 8004e0e:	eb04 0485 	add.w	r4, r4, r5, lsl #2
 8004e12:	2803      	cmp	r0, #3
 8004e14:	d8e7      	bhi.n	8004de6 <secondloop_bw_be_r_cmp+0x16>
 8004e16:	9801      	ldr	r0, [sp, #4]
 8004e18:	2800      	cmp	r0, #0
 8004e1a:	e01c      	b.n	8004e56 <secondloop_bw_be_r_cmp+0x86>
 8004e1c:	9d01      	ldr	r5, [sp, #4]
 8004e1e:	9e00      	ldr	r6, [sp, #0]
 8004e20:	181f      	adds	r7, r3, r0
 8004e22:	1a2d      	subs	r5, r5, r0
 8004e24:	f817 cc01 	ldrb.w	ip, [r7, #-1]
 8004e28:	1cd7      	adds	r7, r2, #3
 8004e2a:	ea4f 0e97 	mov.w	lr, r7, lsr #2
 8004e2e:	eb01 078e 	add.w	r7, r1, lr, lsl #2
 8004e32:	00ed      	lsls	r5, r5, #3
 8004e34:	f857 7c04 	ldr.w	r7, [r7, #-4]
 8004e38:	fa27 f505 	lsr.w	r5, r7, r5
 8004e3c:	ea85 050c 	eor.w	r5, r5, ip
 8004e40:	b2ed      	uxtb	r5, r5
 8004e42:	43ed      	mvns	r5, r5
 8004e44:	1c6d      	adds	r5, r5, #1
 8004e46:	0fed      	lsrs	r5, r5, #31
 8004e48:	f085 0501 	eor.w	r5, r5, #1
 8004e4c:	402e      	ands	r6, r5
 8004e4e:	9600      	str	r6, [sp, #0]
 8004e50:	9d00      	ldr	r5, [sp, #0]
 8004e52:	192c      	adds	r4, r5, r4
 8004e54:	1e40      	subs	r0, r0, #1
 8004e56:	d1e1      	bne.n	8004e1c <secondloop_bw_be_r_cmp+0x4c>
 8004e58:	4620      	mov	r0, r4
 8004e5a:	bdf6      	pop	{r1, r2, r4, r5, r6, r7, pc}

08004e5c <bufType_bb>:
 8004e5c:	4bb9 0800 4be9 0800 0001 0000               .K...K......

08004e68 <cmox_utils_robustCmp>:
 8004e68:	e92d 4ff8 	stmdb	sp!, {r3, r4, r5, r6, r7, r8, r9, sl, fp, lr}
 8004e6c:	461d      	mov	r5, r3
 8004e6e:	f8dd 9028 	ldr.w	r9, [sp, #40]	; 0x28
 8004e72:	9f0b      	ldr	r7, [sp, #44]	; 0x2c
 8004e74:	9c0d      	ldr	r4, [sp, #52]	; 0x34
 8004e76:	f04f 33ff 	mov.w	r3, #4294967295
 8004e7a:	9300      	str	r3, [sp, #0]
 8004e7c:	460e      	mov	r6, r1
 8004e7e:	4692      	mov	sl, r2
 8004e80:	f8d9 b000 	ldr.w	fp, [r9]
 8004e84:	4680      	mov	r8, r0
 8004e86:	4632      	mov	r2, r6
 8004e88:	4651      	mov	r1, sl
 8004e8a:	47d8      	blx	fp
 8004e8c:	4683      	mov	fp, r0
 8004e8e:	b364      	cbz	r4, 8004eea <cmox_utils_robustCmp+0x82>
 8004e90:	f8d9 3004 	ldr.w	r3, [r9, #4]
 8004e94:	4632      	mov	r2, r6
 8004e96:	4651      	mov	r1, sl
 8004e98:	4640      	mov	r0, r8
 8004e9a:	4798      	blx	r3
 8004e9c:	ea6f 020b 	mvn.w	r2, fp
 8004ea0:	1c52      	adds	r2, r2, #1
 8004ea2:	ea42 020b 	orr.w	r2, r2, fp
 8004ea6:	9900      	ldr	r1, [sp, #0]
 8004ea8:	ea6f 73d2 	mvn.w	r3, r2, lsr #31
 8004eac:	1c5b      	adds	r3, r3, #1
 8004eae:	4019      	ands	r1, r3
 8004eb0:	43c2      	mvns	r2, r0
 8004eb2:	9100      	str	r1, [sp, #0]
 8004eb4:	1c52      	adds	r2, r2, #1
 8004eb6:	4302      	orrs	r2, r0
 8004eb8:	9900      	ldr	r1, [sp, #0]
 8004eba:	ea6f 73d2 	mvn.w	r3, r2, lsr #31
 8004ebe:	1c5b      	adds	r3, r3, #1
 8004ec0:	4019      	ands	r1, r3
 8004ec2:	9100      	str	r1, [sp, #0]
 8004ec4:	f086 3155 	eor.w	r1, r6, #1431655765	; 0x55555555
 8004ec8:	4048      	eors	r0, r1
 8004eca:	ea87 0100 	eor.w	r1, r7, r0
 8004ece:	f081 3155 	eor.w	r1, r1, #1431655765	; 0x55555555
 8004ed2:	6021      	str	r1, [r4, #0]
 8004ed4:	f080 3155 	eor.w	r1, r0, #1431655765	; 0x55555555
 8004ed8:	43c9      	mvns	r1, r1
 8004eda:	1c49      	adds	r1, r1, #1
 8004edc:	4308      	orrs	r0, r1
 8004ede:	9a00      	ldr	r2, [sp, #0]
 8004ee0:	ea6f 70d0 	mvn.w	r0, r0, lsr #31
 8004ee4:	1c40      	adds	r0, r0, #1
 8004ee6:	4382      	bics	r2, r0
 8004ee8:	9200      	str	r2, [sp, #0]
 8004eea:	f8d9 0008 	ldr.w	r0, [r9, #8]
 8004eee:	2801      	cmp	r0, #1
 8004ef0:	d109      	bne.n	8004f06 <cmox_utils_robustCmp+0x9e>
 8004ef2:	4075      	eors	r5, r6
 8004ef4:	43e9      	mvns	r1, r5
 8004ef6:	1c49      	adds	r1, r1, #1
 8004ef8:	430d      	orrs	r5, r1
 8004efa:	9800      	ldr	r0, [sp, #0]
 8004efc:	ea6f 72d5 	mvn.w	r2, r5, lsr #31
 8004f00:	1c52      	adds	r2, r2, #1
 8004f02:	4390      	bics	r0, r2
 8004f04:	e00a      	b.n	8004f1c <cmox_utils_robustCmp+0xb4>
 8004f06:	1cf1      	adds	r1, r6, #3
 8004f08:	ea85 0291 	eor.w	r2, r5, r1, lsr #2
 8004f0c:	43d2      	mvns	r2, r2
 8004f0e:	1c52      	adds	r2, r2, #1
 8004f10:	4315      	orrs	r5, r2
 8004f12:	9800      	ldr	r0, [sp, #0]
 8004f14:	ea6f 73d5 	mvn.w	r3, r5, lsr #31
 8004f18:	1c5b      	adds	r3, r3, #1
 8004f1a:	4398      	bics	r0, r3
 8004f1c:	f086 36aa 	eor.w	r6, r6, #2863311530	; 0xaaaaaaaa
 8004f20:	9000      	str	r0, [sp, #0]
 8004f22:	ea86 060b 	eor.w	r6, r6, fp
 8004f26:	f086 33aa 	eor.w	r3, r6, #2863311530	; 0xaaaaaaaa
 8004f2a:	43f2      	mvns	r2, r6
 8004f2c:	43db      	mvns	r3, r3
 8004f2e:	980c      	ldr	r0, [sp, #48]	; 0x30
 8004f30:	f3c2 72c0 	ubfx	r2, r2, #31, #1
 8004f34:	1c5b      	adds	r3, r3, #1
 8004f36:	ea42 72d3 	orr.w	r2, r2, r3, lsr #31
 8004f3a:	9900      	ldr	r1, [sp, #0]
 8004f3c:	43d2      	mvns	r2, r2
 8004f3e:	1c52      	adds	r2, r2, #1
 8004f40:	4391      	bics	r1, r2
 8004f42:	9100      	str	r1, [sp, #0]
 8004f44:	4077      	eors	r7, r6
 8004f46:	9900      	ldr	r1, [sp, #0]
 8004f48:	4388      	bics	r0, r1
 8004f4a:	9900      	ldr	r1, [sp, #0]
 8004f4c:	f087 37aa 	eor.w	r7, r7, #2863311530	; 0xaaaaaaaa
 8004f50:	400f      	ands	r7, r1
 8004f52:	4338      	orrs	r0, r7
 8004f54:	e8bd 8ff2 	ldmia.w	sp!, {r1, r4, r5, r6, r7, r8, r9, sl, fp, pc}

08004f58 <cmox_aesFast_encrypt>:
 8004f58:	e92d 4ff4 	stmdb	sp!, {r2, r4, r5, r6, r7, r8, r9, sl, fp, lr}
 8004f5c:	f100 030c 	add.w	r3, r0, #12
 8004f60:	b08c      	sub	sp, #48	; 0x30
 8004f62:	681a      	ldr	r2, [r3, #0]
 8004f64:	684c      	ldr	r4, [r1, #4]
 8004f66:	688f      	ldr	r7, [r1, #8]
 8004f68:	6845      	ldr	r5, [r0, #4]
 8004f6a:	6808      	ldr	r0, [r1, #0]
 8004f6c:	4050      	eors	r0, r2
 8004f6e:	685a      	ldr	r2, [r3, #4]
 8004f70:	4054      	eors	r4, r2
 8004f72:	689a      	ldr	r2, [r3, #8]
 8004f74:	4057      	eors	r7, r2
 8004f76:	68ca      	ldr	r2, [r1, #12]
 8004f78:	68d9      	ldr	r1, [r3, #12]
 8004f7a:	08ed      	lsrs	r5, r5, #3
 8004f7c:	1ced      	adds	r5, r5, #3
 8004f7e:	ea81 0e02 	eor.w	lr, r1, r2
 8004f82:	4aa6      	ldr	r2, [pc, #664]	; (800521c <cmox_aesFast_encrypt+0x2c4>)
 8004f84:	9500      	str	r5, [sp, #0]
 8004f86:	4621      	mov	r1, r4
 8004f88:	e059      	b.n	800503e <cmox_aesFast_encrypt+0xe6>
 8004f8a:	980b      	ldr	r0, [sp, #44]	; 0x2c
 8004f8c:	f852 4020 	ldr.w	r4, [r2, r0, lsl #2]
 8004f90:	f8dd a028 	ldr.w	sl, [sp, #40]	; 0x28
 8004f94:	f852 c02a 	ldr.w	ip, [r2, sl, lsl #2]
 8004f98:	f852 1021 	ldr.w	r1, [r2, r1, lsl #2]
 8004f9c:	f852 7027 	ldr.w	r7, [r2, r7, lsl #2]
 8004fa0:	ea4f 2034 	mov.w	r0, r4, ror #8
 8004fa4:	f852 4028 	ldr.w	r4, [r2, r8, lsl #2]
 8004fa8:	4060      	eors	r0, r4
 8004faa:	ea80 403c 	eor.w	r0, r0, ip, ror #16
 8004fae:	ea90 6031 	eors.w	r0, r0, r1, ror #24
 8004fb2:	6819      	ldr	r1, [r3, #0]
 8004fb4:	f8dd c024 	ldr.w	ip, [sp, #36]	; 0x24
 8004fb8:	685c      	ldr	r4, [r3, #4]
 8004fba:	4048      	eors	r0, r1
 8004fbc:	f852 102c 	ldr.w	r1, [r2, ip, lsl #2]
 8004fc0:	f852 c02e 	ldr.w	ip, [r2, lr, lsl #2]
 8004fc4:	f852 e029 	ldr.w	lr, [r2, r9, lsl #2]
 8004fc8:	f8dd 9014 	ldr.w	r9, [sp, #20]
 8004fcc:	ea97 2131 	eors.w	r1, r7, r1, ror #8
 8004fd0:	ea81 413c 	eor.w	r1, r1, ip, ror #16
 8004fd4:	ea81 613e 	eor.w	r1, r1, lr, ror #24
 8004fd8:	f8dd e01c 	ldr.w	lr, [sp, #28]
 8004fdc:	9f08      	ldr	r7, [sp, #32]
 8004fde:	f852 c02e 	ldr.w	ip, [r2, lr, lsl #2]
 8004fe2:	f8dd e018 	ldr.w	lr, [sp, #24]
 8004fe6:	4061      	eors	r1, r4
 8004fe8:	f852 4027 	ldr.w	r4, [r2, r7, lsl #2]
 8004fec:	ea4f 2734 	mov.w	r7, r4, ror #8
 8004ff0:	f852 402e 	ldr.w	r4, [r2, lr, lsl #2]
 8004ff4:	ea4f 6e34 	mov.w	lr, r4, ror #24
 8004ff8:	f852 4029 	ldr.w	r4, [r2, r9, lsl #2]
 8004ffc:	4067      	eors	r7, r4
 8004ffe:	ea87 473c 	eor.w	r7, r7, ip, ror #16
 8005002:	689c      	ldr	r4, [r3, #8]
 8005004:	ea8e 0707 	eor.w	r7, lr, r7
 8005008:	f8dd e010 	ldr.w	lr, [sp, #16]
 800500c:	4067      	eors	r7, r4
 800500e:	f852 402e 	ldr.w	r4, [r2, lr, lsl #2]
 8005012:	ea4f 2e34 	mov.w	lr, r4, ror #8
 8005016:	9c03      	ldr	r4, [sp, #12]
 8005018:	f852 5024 	ldr.w	r5, [r2, r4, lsl #2]
 800501c:	ea4f 4435 	mov.w	r4, r5, ror #16
 8005020:	9d02      	ldr	r5, [sp, #8]
 8005022:	f852 6025 	ldr.w	r6, [r2, r5, lsl #2]
 8005026:	ea4f 6536 	mov.w	r5, r6, ror #24
 800502a:	9e01      	ldr	r6, [sp, #4]
 800502c:	f852 6026 	ldr.w	r6, [r2, r6, lsl #2]
 8005030:	ea8e 0606 	eor.w	r6, lr, r6
 8005034:	4074      	eors	r4, r6
 8005036:	4065      	eors	r5, r4
 8005038:	68dc      	ldr	r4, [r3, #12]
 800503a:	ea84 0e05 	eor.w	lr, r4, r5
 800503e:	020d      	lsls	r5, r1, #8
 8005040:	fa5f f88e 	uxtb.w	r8, lr
 8005044:	0e2d      	lsrs	r5, r5, #24
 8005046:	f852 6025 	ldr.w	r6, [r2, r5, lsl #2]
 800504a:	043c      	lsls	r4, r7, #16
 800504c:	ea4f 6b10 	mov.w	fp, r0, lsr #24
 8005050:	ea4f 2936 	mov.w	r9, r6, ror #8
 8005054:	ea4f 6c14 	mov.w	ip, r4, lsr #24
 8005058:	f852 4028 	ldr.w	r4, [r2, r8, lsl #2]
 800505c:	f852 602c 	ldr.w	r6, [r2, ip, lsl #2]
 8005060:	691d      	ldr	r5, [r3, #16]
 8005062:	ea4f 6834 	mov.w	r8, r4, ror #24
 8005066:	f852 402b 	ldr.w	r4, [r2, fp, lsl #2]
 800506a:	ea89 0404 	eor.w	r4, r9, r4
 800506e:	ea84 4436 	eor.w	r4, r4, r6, ror #16
 8005072:	ea88 0404 	eor.w	r4, r8, r4
 8005076:	406c      	eors	r4, r5
 8005078:	023d      	lsls	r5, r7, #8
 800507a:	ea4f 6815 	mov.w	r8, r5, lsr #24
 800507e:	ea4f 450e 	mov.w	r5, lr, lsl #16
 8005082:	ea4f 6c15 	mov.w	ip, r5, lsr #24
 8005086:	f852 a028 	ldr.w	sl, [r2, r8, lsl #2]
 800508a:	f852 502c 	ldr.w	r5, [r2, ip, lsl #2]
 800508e:	ea4f 4c35 	mov.w	ip, r5, ror #16
 8005092:	fa5f f880 	uxtb.w	r8, r0
 8005096:	f852 5028 	ldr.w	r5, [r2, r8, lsl #2]
 800509a:	ea4f 6835 	mov.w	r8, r5, ror #24
 800509e:	ea4f 6b11 	mov.w	fp, r1, lsr #24
 80050a2:	f852 502b 	ldr.w	r5, [r2, fp, lsl #2]
 80050a6:	695e      	ldr	r6, [r3, #20]
 80050a8:	ea85 253a 	eor.w	r5, r5, sl, ror #8
 80050ac:	ea8c 0505 	eor.w	r5, ip, r5
 80050b0:	ea88 0505 	eor.w	r5, r8, r5
 80050b4:	4075      	eors	r5, r6
 80050b6:	ea4f 260e 	mov.w	r6, lr, lsl #8
 80050ba:	ea4f 6816 	mov.w	r8, r6, lsr #24
 80050be:	f852 b028 	ldr.w	fp, [r2, r8, lsl #2]
 80050c2:	0406      	lsls	r6, r0, #16
 80050c4:	ea4f 6c16 	mov.w	ip, r6, lsr #24
 80050c8:	f852 802c 	ldr.w	r8, [r2, ip, lsl #2]
 80050cc:	ea4f 4838 	mov.w	r8, r8, ror #16
 80050d0:	f8cd 8004 	str.w	r8, [sp, #4]
 80050d4:	fa5f fc81 	uxtb.w	ip, r1
 80050d8:	f852 602c 	ldr.w	r6, [r2, ip, lsl #2]
 80050dc:	ea4f 6c36 	mov.w	ip, r6, ror #24
 80050e0:	ea4f 6817 	mov.w	r8, r7, lsr #24
 80050e4:	f852 6028 	ldr.w	r6, [r2, r8, lsl #2]
 80050e8:	f8dd 8004 	ldr.w	r8, [sp, #4]
 80050ec:	ea86 263b 	eor.w	r6, r6, fp, ror #8
 80050f0:	ea88 0606 	eor.w	r6, r8, r6
 80050f4:	ea8c 0606 	eor.w	r6, ip, r6
 80050f8:	0409      	lsls	r1, r1, #16
 80050fa:	f8d3 c018 	ldr.w	ip, [r3, #24]
 80050fe:	0e09      	lsrs	r1, r1, #24
 8005100:	f852 1021 	ldr.w	r1, [r2, r1, lsl #2]
 8005104:	ea8c 0606 	eor.w	r6, ip, r6
 8005108:	0200      	lsls	r0, r0, #8
 800510a:	0e00      	lsrs	r0, r0, #24
 800510c:	ea4f 4c31 	mov.w	ip, r1, ror #16
 8005110:	ea4f 6e1e 	mov.w	lr, lr, lsr #24
 8005114:	f852 0020 	ldr.w	r0, [r2, r0, lsl #2]
 8005118:	f852 102e 	ldr.w	r1, [r2, lr, lsl #2]
 800511c:	b2ff      	uxtb	r7, r7
 800511e:	f852 7027 	ldr.w	r7, [r2, r7, lsl #2]
 8005122:	ea91 2030 	eors.w	r0, r1, r0, ror #8
 8005126:	ea8c 0100 	eor.w	r1, ip, r0
 800512a:	69d8      	ldr	r0, [r3, #28]
 800512c:	ea91 6137 	eors.w	r1, r1, r7, ror #24
 8005130:	9f00      	ldr	r7, [sp, #0]
 8005132:	4041      	eors	r1, r0
 8005134:	1e7f      	subs	r7, r7, #1
 8005136:	9700      	str	r7, [sp, #0]
 8005138:	0e08      	lsrs	r0, r1, #24
 800513a:	042f      	lsls	r7, r5, #16
 800513c:	9001      	str	r0, [sp, #4]
 800513e:	0e3f      	lsrs	r7, r7, #24
 8005140:	0220      	lsls	r0, r4, #8
 8005142:	9703      	str	r7, [sp, #12]
 8005144:	0e00      	lsrs	r0, r0, #24
 8005146:	9004      	str	r0, [sp, #16]
 8005148:	0e37      	lsrs	r7, r6, #24
 800514a:	0420      	lsls	r0, r4, #16
 800514c:	9705      	str	r7, [sp, #20]
 800514e:	0e00      	lsrs	r0, r0, #24
 8005150:	020f      	lsls	r7, r1, #8
 8005152:	9007      	str	r0, [sp, #28]
 8005154:	0e3f      	lsrs	r7, r7, #24
 8005156:	0408      	lsls	r0, r1, #16
 8005158:	ea4f 6e10 	mov.w	lr, r0, lsr #24
 800515c:	0230      	lsls	r0, r6, #8
 800515e:	0e00      	lsrs	r0, r0, #24
 8005160:	9708      	str	r7, [sp, #32]
 8005162:	9009      	str	r0, [sp, #36]	; 0x24
 8005164:	3320      	adds	r3, #32
 8005166:	0430      	lsls	r0, r6, #16
 8005168:	0e00      	lsrs	r0, r0, #24
 800516a:	900a      	str	r0, [sp, #40]	; 0x28
 800516c:	0e2f      	lsrs	r7, r5, #24
 800516e:	0228      	lsls	r0, r5, #8
 8005170:	0e00      	lsrs	r0, r0, #24
 8005172:	900b      	str	r0, [sp, #44]	; 0x2c
 8005174:	ea4f 6814 	mov.w	r8, r4, lsr #24
 8005178:	b2f0      	uxtb	r0, r6
 800517a:	9002      	str	r0, [sp, #8]
 800517c:	fa5f f984 	uxtb.w	r9, r4
 8005180:	b2e8      	uxtb	r0, r5
 8005182:	9006      	str	r0, [sp, #24]
 8005184:	b2c9      	uxtb	r1, r1
 8005186:	9800      	ldr	r0, [sp, #0]
 8005188:	2800      	cmp	r0, #0
 800518a:	f47f aefe 	bne.w	8004f8a <cmox_aesFast_encrypt+0x32>
 800518e:	9d0b      	ldr	r5, [sp, #44]	; 0x2c
 8005190:	4c23      	ldr	r4, [pc, #140]	; (8005220 <cmox_aesFast_encrypt+0x2c8>)
 8005192:	5d66      	ldrb	r6, [r4, r5]
 8005194:	f814 0008 	ldrb.w	r0, [r4, r8]
 8005198:	5c61      	ldrb	r1, [r4, r1]
 800519a:	9a0c      	ldr	r2, [sp, #48]	; 0x30
 800519c:	0436      	lsls	r6, r6, #16
 800519e:	ea46 6600 	orr.w	r6, r6, r0, lsl #24
 80051a2:	980a      	ldr	r0, [sp, #40]	; 0x28
 80051a4:	5c25      	ldrb	r5, [r4, r0]
 80051a6:	6818      	ldr	r0, [r3, #0]
 80051a8:	ea46 2605 	orr.w	r6, r6, r5, lsl #8
 80051ac:	430e      	orrs	r6, r1
 80051ae:	4046      	eors	r6, r0
 80051b0:	6016      	str	r6, [r2, #0]
 80051b2:	9809      	ldr	r0, [sp, #36]	; 0x24
 80051b4:	5c26      	ldrb	r6, [r4, r0]
 80051b6:	5de5      	ldrb	r5, [r4, r7]
 80051b8:	f814 1009 	ldrb.w	r1, [r4, r9]
 80051bc:	6858      	ldr	r0, [r3, #4]
 80051be:	0436      	lsls	r6, r6, #16
 80051c0:	ea46 6605 	orr.w	r6, r6, r5, lsl #24
 80051c4:	f814 500e 	ldrb.w	r5, [r4, lr]
 80051c8:	ea46 2605 	orr.w	r6, r6, r5, lsl #8
 80051cc:	430e      	orrs	r6, r1
 80051ce:	4046      	eors	r6, r0
 80051d0:	6056      	str	r6, [r2, #4]
 80051d2:	9905      	ldr	r1, [sp, #20]
 80051d4:	5c60      	ldrb	r0, [r4, r1]
 80051d6:	9908      	ldr	r1, [sp, #32]
 80051d8:	5c65      	ldrb	r5, [r4, r1]
 80051da:	9e06      	ldr	r6, [sp, #24]
 80051dc:	042d      	lsls	r5, r5, #16
 80051de:	ea45 6500 	orr.w	r5, r5, r0, lsl #24
 80051e2:	9807      	ldr	r0, [sp, #28]
 80051e4:	5c21      	ldrb	r1, [r4, r0]
 80051e6:	6898      	ldr	r0, [r3, #8]
 80051e8:	ea45 2501 	orr.w	r5, r5, r1, lsl #8
 80051ec:	5da1      	ldrb	r1, [r4, r6]
 80051ee:	430d      	orrs	r5, r1
 80051f0:	4045      	eors	r5, r0
 80051f2:	6095      	str	r5, [r2, #8]
 80051f4:	9901      	ldr	r1, [sp, #4]
 80051f6:	5c60      	ldrb	r0, [r4, r1]
 80051f8:	9904      	ldr	r1, [sp, #16]
 80051fa:	5c65      	ldrb	r5, [r4, r1]
 80051fc:	9e02      	ldr	r6, [sp, #8]
 80051fe:	042d      	lsls	r5, r5, #16
 8005200:	ea45 6500 	orr.w	r5, r5, r0, lsl #24
 8005204:	9803      	ldr	r0, [sp, #12]
 8005206:	5c21      	ldrb	r1, [r4, r0]
 8005208:	5da0      	ldrb	r0, [r4, r6]
 800520a:	ea45 2501 	orr.w	r5, r5, r1, lsl #8
 800520e:	68d9      	ldr	r1, [r3, #12]
 8005210:	4305      	orrs	r5, r0
 8005212:	404d      	eors	r5, r1
 8005214:	60d5      	str	r5, [r2, #12]
 8005216:	b00d      	add	sp, #52	; 0x34
 8005218:	e8bd 8ff0 	ldmia.w	sp!, {r4, r5, r6, r7, r8, r9, sl, fp, pc}
 800521c:	08009bd4 	.word	0x08009bd4
 8005220:	08009fd4 	.word	0x08009fd4

08005224 <cmox_bn_alloc>:
 8005224:	b538      	push	{r3, r4, r5, lr}
 8005226:	4615      	mov	r5, r2
 8005228:	00aa      	lsls	r2, r5, #2
 800522a:	460c      	mov	r4, r1
 800522c:	1d12      	adds	r2, r2, #4
 800522e:	f7fe fa42 	bl	80036b6 <cmox_membuf_alloc>
 8005232:	b908      	cbnz	r0, 8005238 <cmox_bn_alloc+0x14>
 8005234:	6821      	ldr	r1, [r4, #0]
 8005236:	600d      	str	r5, [r1, #0]
 8005238:	bd32      	pop	{r1, r4, r5, pc}

0800523a <cmox_bn_free>:
 800523a:	b510      	push	{r4, lr}
 800523c:	460c      	mov	r4, r1
 800523e:	6823      	ldr	r3, [r4, #0]
 8005240:	681a      	ldr	r2, [r3, #0]
 8005242:	0092      	lsls	r2, r2, #2
 8005244:	1d12      	adds	r2, r2, #4
 8005246:	f7fe fa55 	bl	80036f4 <cmox_membuf_free>
 800524a:	2300      	movs	r3, #0
 800524c:	6023      	str	r3, [r4, #0]
 800524e:	bd10      	pop	{r4, pc}

08005250 <cmox_bn_import>:
 8005250:	b570      	push	{r4, r5, r6, lr}
 8005252:	4603      	mov	r3, r0
 8005254:	2000      	movs	r0, #0
 8005256:	2b00      	cmp	r3, #0
 8005258:	bf18      	it	ne
 800525a:	2900      	cmpne	r1, #0
 800525c:	d000      	beq.n	8005260 <cmox_bn_import+0x10>
 800525e:	b90a      	cbnz	r2, 8005264 <cmox_bn_import+0x14>
 8005260:	2001      	movs	r0, #1
 8005262:	bd70      	pop	{r4, r5, r6, pc}
 8005264:	681c      	ldr	r4, [r3, #0]
 8005266:	42a2      	cmp	r2, r4
 8005268:	bf28      	it	cs
 800526a:	4622      	movcs	r2, r4
 800526c:	2401      	movs	r4, #1
 800526e:	e006      	b.n	800527e <cmox_bn_import+0x2e>
 8005270:	eb01 0584 	add.w	r5, r1, r4, lsl #2
 8005274:	f855 6c04 	ldr.w	r6, [r5, #-4]
 8005278:	f843 6024 	str.w	r6, [r3, r4, lsl #2]
 800527c:	1c64      	adds	r4, r4, #1
 800527e:	42a2      	cmp	r2, r4
 8005280:	d2f6      	bcs.n	8005270 <cmox_bn_import+0x20>
 8005282:	6819      	ldr	r1, [r3, #0]
 8005284:	42a1      	cmp	r1, r4
 8005286:	bf24      	itt	cs
 8005288:	f843 0024 	strcs.w	r0, [r3, r4, lsl #2]
 800528c:	1c64      	addcs	r4, r4, #1
 800528e:	d2f8      	bcs.n	8005282 <cmox_bn_import+0x32>
 8005290:	bd70      	pop	{r4, r5, r6, pc}

08005292 <cmox_bn_init>:
 8005292:	4602      	mov	r2, r0
 8005294:	2000      	movs	r0, #0
 8005296:	b90a      	cbnz	r2, 800529c <cmox_bn_init+0xa>
 8005298:	2001      	movs	r0, #1
 800529a:	4770      	bx	lr
 800529c:	6051      	str	r1, [r2, #4]
 800529e:	2102      	movs	r1, #2
 80052a0:	e002      	b.n	80052a8 <cmox_bn_init+0x16>
 80052a2:	f842 0021 	str.w	r0, [r2, r1, lsl #2]
 80052a6:	1c49      	adds	r1, r1, #1
 80052a8:	6813      	ldr	r3, [r2, #0]
 80052aa:	428b      	cmp	r3, r1
 80052ac:	d2f9      	bcs.n	80052a2 <cmox_bn_init+0x10>
 80052ae:	4770      	bx	lr

080052b0 <cmox_bn_cCopy>:
 80052b0:	e92d 43f8 	stmdb	sp!, {r3, r4, r5, r6, r7, r8, r9, lr}
 80052b4:	4616      	mov	r6, r2
 80052b6:	4607      	mov	r7, r0
 80052b8:	4688      	mov	r8, r1
 80052ba:	6830      	ldr	r0, [r6, #0]
 80052bc:	f8d8 4000 	ldr.w	r4, [r8]
 80052c0:	2500      	movs	r5, #0
 80052c2:	1c40      	adds	r0, r0, #1
 80052c4:	427a      	negs	r2, r7
 80052c6:	e004      	b.n	80052d2 <cmox_bn_cCopy+0x22>
 80052c8:	f858 1020 	ldr.w	r1, [r8, r0, lsl #2]
 80052cc:	4011      	ands	r1, r2
 80052ce:	430d      	orrs	r5, r1
 80052d0:	1c40      	adds	r0, r0, #1
 80052d2:	4284      	cmp	r4, r0
 80052d4:	d2f8      	bcs.n	80052c8 <cmox_bn_cCopy+0x18>
 80052d6:	6830      	ldr	r0, [r6, #0]
 80052d8:	42a0      	cmp	r0, r4
 80052da:	bf38      	it	cc
 80052dc:	4604      	movcc	r4, r0
 80052de:	ea5f 0904 	movs.w	r9, r4
 80052e2:	e00a      	b.n	80052fa <cmox_bn_cCopy+0x4a>
 80052e4:	f856 2029 	ldr.w	r2, [r6, r9, lsl #2]
 80052e8:	f858 1029 	ldr.w	r1, [r8, r9, lsl #2]
 80052ec:	4638      	mov	r0, r7
 80052ee:	f7fe f9a4 	bl	800363a <cmox_mathUtils_mux>
 80052f2:	f846 0029 	str.w	r0, [r6, r9, lsl #2]
 80052f6:	f1b9 0901 	subs.w	r9, r9, #1
 80052fa:	d1f3      	bne.n	80052e4 <cmox_bn_cCopy+0x34>
 80052fc:	1c64      	adds	r4, r4, #1
 80052fe:	1e79      	subs	r1, r7, #1
 8005300:	e005      	b.n	800530e <cmox_bn_cCopy+0x5e>
 8005302:	f856 0024 	ldr.w	r0, [r6, r4, lsl #2]
 8005306:	4008      	ands	r0, r1
 8005308:	f846 0024 	str.w	r0, [r6, r4, lsl #2]
 800530c:	1c64      	adds	r4, r4, #1
 800530e:	6830      	ldr	r0, [r6, #0]
 8005310:	42a0      	cmp	r0, r4
 8005312:	d2f6      	bcs.n	8005302 <cmox_bn_cCopy+0x52>
 8005314:	2d00      	cmp	r5, #0
 8005316:	bf14      	ite	ne
 8005318:	2003      	movne	r0, #3
 800531a:	2000      	moveq	r0, #0
 800531c:	e8bd 83f2 	ldmia.w	sp!, {r1, r4, r5, r6, r7, r8, r9, pc}

08005320 <cmox_bn_mux>:
 8005320:	4240      	negs	r0, r0
 8005322:	4051      	eors	r1, r2
 8005324:	4008      	ands	r0, r1
 8005326:	4050      	eors	r0, r2
 8005328:	4770      	bx	lr

0800532a <cmox_bn_cmp>:
 800532a:	e92d 47f0 	stmdb	sp!, {r4, r5, r6, r7, r8, r9, sl, lr}
 800532e:	4684      	mov	ip, r0
 8005330:	468e      	mov	lr, r1
 8005332:	f8dc 1000 	ldr.w	r1, [ip]
 8005336:	f8de 5000 	ldr.w	r5, [lr]
 800533a:	2601      	movs	r6, #1
 800533c:	2700      	movs	r7, #0
 800533e:	42a9      	cmp	r1, r5
 8005340:	46ba      	mov	sl, r7
 8005342:	d30f      	bcc.n	8005364 <cmox_bn_cmp+0x3a>
 8005344:	4608      	mov	r0, r1
 8005346:	4664      	mov	r4, ip
 8005348:	2101      	movs	r1, #1
 800534a:	4285      	cmp	r5, r0
 800534c:	d224      	bcs.n	8005398 <cmox_bn_cmp+0x6e>
 800534e:	f854 2020 	ldr.w	r2, [r4, r0, lsl #2]
 8005352:	2300      	movs	r3, #0
 8005354:	4252      	negs	r2, r2
 8005356:	eb63 0343 	sbc.w	r3, r3, r3, lsl #1
 800535a:	f003 0301 	and.w	r3, r3, #1
 800535e:	431f      	orrs	r7, r3
 8005360:	1e40      	subs	r0, r0, #1
 8005362:	e7f2      	b.n	800534a <cmox_bn_cmp+0x20>
 8005364:	4628      	mov	r0, r5
 8005366:	460d      	mov	r5, r1
 8005368:	4674      	mov	r4, lr
 800536a:	f04f 31ff 	mov.w	r1, #4294967295
 800536e:	e7ee      	b.n	800534e <cmox_bn_cmp+0x24>
 8005370:	f85c 2020 	ldr.w	r2, [ip, r0, lsl #2]
 8005374:	f85e 4020 	ldr.w	r4, [lr, r0, lsl #2]
 8005378:	2500      	movs	r5, #0
 800537a:	2300      	movs	r3, #0
 800537c:	ebb4 0802 	subs.w	r8, r4, r2
 8005380:	eb65 0903 	sbc.w	r9, r5, r3
 8005384:	4062      	eors	r2, r4
 8005386:	1e52      	subs	r2, r2, #1
 8005388:	ea06 0509 	and.w	r5, r6, r9
 800538c:	f163 0300 	sbc.w	r3, r3, #0
 8005390:	ea45 0a0a 	orr.w	sl, r5, sl
 8005394:	401e      	ands	r6, r3
 8005396:	1e40      	subs	r0, r0, #1
 8005398:	2800      	cmp	r0, #0
 800539a:	d1e9      	bne.n	8005370 <cmox_bn_cmp+0x46>
 800539c:	4638      	mov	r0, r7
 800539e:	eb06 024a 	add.w	r2, r6, sl, lsl #1
 80053a2:	e8bd 47f0 	ldmia.w	sp!, {r4, r5, r6, r7, r8, r9, sl, lr}
 80053a6:	1e52      	subs	r2, r2, #1
 80053a8:	f7fe b947 	b.w	800363a <cmox_mathUtils_mux>

080053ac <cmox_bn_cmpUint>:
 80053ac:	b510      	push	{r4, lr}
 80053ae:	460a      	mov	r2, r1
 80053b0:	6801      	ldr	r1, [r0, #0]
 80053b2:	2300      	movs	r3, #0
 80053b4:	e003      	b.n	80053be <cmox_bn_cmpUint+0x12>
 80053b6:	f850 4021 	ldr.w	r4, [r0, r1, lsl #2]
 80053ba:	4323      	orrs	r3, r4
 80053bc:	1e49      	subs	r1, r1, #1
 80053be:	2902      	cmp	r1, #2
 80053c0:	d2f9      	bcs.n	80053b6 <cmox_bn_cmpUint+0xa>
 80053c2:	6840      	ldr	r0, [r0, #4]
 80053c4:	4042      	eors	r2, r0
 80053c6:	2100      	movs	r1, #0
 80053c8:	ea42 0003 	orr.w	r0, r2, r3
 80053cc:	f7fe f93d 	bl	800364a <cmox_mathUtils_neq>
 80053d0:	e8bd 4010 	ldmia.w	sp!, {r4, lr}
 80053d4:	f7fe b936 	b.w	8003644 <cmox_mathUtils_not>

080053d8 <cmox_bn_countBits>:
 80053d8:	b5f8      	push	{r3, r4, r5, r6, r7, lr}
 80053da:	4605      	mov	r5, r0
 80053dc:	2200      	movs	r2, #0
 80053de:	682e      	ldr	r6, [r5, #0]
 80053e0:	0034      	movs	r4, r6
 80053e2:	e00b      	b.n	80053fc <cmox_bn_countBits+0x24>
 80053e4:	4257      	negs	r7, r2
 80053e6:	4317      	orrs	r7, r2
 80053e8:	43ff      	mvns	r7, r7
 80053ea:	f855 1024 	ldr.w	r1, [r5, r4, lsl #2]
 80053ee:	0ff8      	lsrs	r0, r7, #31
 80053f0:	f7fe f923 	bl	800363a <cmox_mathUtils_mux>
 80053f4:	4602      	mov	r2, r0
 80053f6:	eba6 76d7 	sub.w	r6, r6, r7, lsr #31
 80053fa:	1e64      	subs	r4, r4, #1
 80053fc:	d1f2      	bne.n	80053e4 <cmox_bn_countBits+0xc>
 80053fe:	4610      	mov	r0, r2
 8005400:	f7fe f92f 	bl	8003662 <cmox_mathUtils_bitLength>
 8005404:	eb00 1046 	add.w	r0, r0, r6, lsl #5
 8005408:	bdf2      	pop	{r1, r4, r5, r6, r7, pc}

0800540a <cmox_bn_getBits>:
 800540a:	b5f8      	push	{r3, r4, r5, r6, r7, lr}
 800540c:	4606      	mov	r6, r0
 800540e:	460c      	mov	r4, r1
 8005410:	0957      	lsrs	r7, r2, #5
 8005412:	6830      	ldr	r0, [r6, #0]
 8005414:	f002 051f 	and.w	r5, r2, #31
 8005418:	1c79      	adds	r1, r7, #1
 800541a:	f7fe f91b 	bl	8003654 <cmox_mathUtils_gt>
 800541e:	1cbb      	adds	r3, r7, #2
 8005420:	4241      	negs	r1, r0
 8005422:	400b      	ands	r3, r1
 8005424:	f856 1023 	ldr.w	r1, [r6, r3, lsl #2]
 8005428:	2200      	movs	r2, #0
 800542a:	f7fe f906 	bl	800363a <cmox_mathUtils_mux>
 800542e:	eb06 0187 	add.w	r1, r6, r7, lsl #2
 8005432:	f004 041f 	and.w	r4, r4, #31
 8005436:	684a      	ldr	r2, [r1, #4]
 8005438:	40ea      	lsrs	r2, r5
 800543a:	f1c5 0520 	rsb	r5, r5, #32
 800543e:	fa00 f505 	lsl.w	r5, r0, r5
 8005442:	2001      	movs	r0, #1
 8005444:	fa00 f404 	lsl.w	r4, r0, r4
 8005448:	4315      	orrs	r5, r2
 800544a:	1e64      	subs	r4, r4, #1
 800544c:	ea04 0005 	and.w	r0, r4, r5
 8005450:	bdf2      	pop	{r1, r4, r5, r6, r7, pc}

08005452 <cmox_bn_setBits>:
 8005452:	e92d 47f0 	stmdb	sp!, {r4, r5, r6, r7, r8, r9, sl, lr}
 8005456:	4680      	mov	r8, r0
 8005458:	2001      	movs	r0, #1
 800545a:	f001 061f 	and.w	r6, r1, #31
 800545e:	fa00 f606 	lsl.w	r6, r0, r6
 8005462:	0955      	lsrs	r5, r2, #5
 8005464:	1e76      	subs	r6, r6, #1
 8005466:	1c6d      	adds	r5, r5, #1
 8005468:	f8d8 0000 	ldr.w	r0, [r8]
 800546c:	ea06 0903 	and.w	r9, r6, r3
 8005470:	f002 0a1f 	and.w	sl, r2, #31
 8005474:	f001 071f 	and.w	r7, r1, #31
 8005478:	4629      	mov	r1, r5
 800547a:	f7fe f8eb 	bl	8003654 <cmox_mathUtils_gt>
 800547e:	4457      	add	r7, sl
 8005480:	3f20      	subs	r7, #32
 8005482:	4604      	mov	r4, r0
 8005484:	43f8      	mvns	r0, r7
 8005486:	f858 1025 	ldr.w	r1, [r8, r5, lsl #2]
 800548a:	f3c0 70c0 	ubfx	r0, r0, #31, #1
 800548e:	fa06 f60a 	lsl.w	r6, r6, sl
 8005492:	4004      	ands	r4, r0
 8005494:	ea21 0606 	bic.w	r6, r1, r6
 8005498:	4278      	negs	r0, r7
 800549a:	f848 6025 	str.w	r6, [r8, r5, lsl #2]
 800549e:	ea04 74d0 	and.w	r4, r4, r0, lsr #31
 80054a2:	fa09 f00a 	lsl.w	r0, r9, sl
 80054a6:	4306      	orrs	r6, r0
 80054a8:	f848 6025 	str.w	r6, [r8, r5, lsl #2]
 80054ac:	f04f 32ff 	mov.w	r2, #4294967295
 80054b0:	fa02 f107 	lsl.w	r1, r2, r7
 80054b4:	4620      	mov	r0, r4
 80054b6:	f7fe f8c0 	bl	800363a <cmox_mathUtils_mux>
 80054ba:	1c6d      	adds	r5, r5, #1
 80054bc:	4261      	negs	r1, r4
 80054be:	400d      	ands	r5, r1
 80054c0:	f858 2025 	ldr.w	r2, [r8, r5, lsl #2]
 80054c4:	4010      	ands	r0, r2
 80054c6:	f848 0025 	str.w	r0, [r8, r5, lsl #2]
 80054ca:	f1ca 0a20 	rsb	sl, sl, #32
 80054ce:	2200      	movs	r2, #0
 80054d0:	fa29 f10a 	lsr.w	r1, r9, sl
 80054d4:	4620      	mov	r0, r4
 80054d6:	f7fe f8b0 	bl	800363a <cmox_mathUtils_mux>
 80054da:	f858 1025 	ldr.w	r1, [r8, r5, lsl #2]
 80054de:	4308      	orrs	r0, r1
 80054e0:	f848 0025 	str.w	r0, [r8, r5, lsl #2]
 80054e4:	e8bd 87f0 	ldmia.w	sp!, {r4, r5, r6, r7, r8, r9, sl, pc}

080054e8 <cmox_bn_fromU8BE>:
 80054e8:	b5f8      	push	{r3, r4, r5, r6, r7, lr}
 80054ea:	b10a      	cbz	r2, 80054f0 <cmox_bn_fromU8BE+0x8>
 80054ec:	b910      	cbnz	r0, 80054f4 <cmox_bn_fromU8BE+0xc>
 80054ee:	b109      	cbz	r1, 80054f4 <cmox_bn_fromU8BE+0xc>
 80054f0:	2001      	movs	r0, #1
 80054f2:	bdf2      	pop	{r1, r4, r5, r6, r7, pc}
 80054f4:	6813      	ldr	r3, [r2, #0]
 80054f6:	1ccc      	adds	r4, r1, #3
 80054f8:	ebb3 0f94 	cmp.w	r3, r4, lsr #2
 80054fc:	d201      	bcs.n	8005502 <cmox_bn_fromU8BE+0x1a>
 80054fe:	2003      	movs	r0, #3
 8005500:	bdf2      	pop	{r1, r4, r5, r6, r7, pc}
 8005502:	b379      	cbz	r1, 8005564 <cmox_bn_fromU8BE+0x7c>
 8005504:	088b      	lsrs	r3, r1, #2
 8005506:	1c5b      	adds	r3, r3, #1
 8005508:	2401      	movs	r4, #1
 800550a:	e00f      	b.n	800552c <cmox_bn_fromU8BE+0x44>
 800550c:	eba1 0584 	sub.w	r5, r1, r4, lsl #2
 8005510:	4405      	add	r5, r0
 8005512:	786f      	ldrb	r7, [r5, #1]
 8005514:	782e      	ldrb	r6, [r5, #0]
 8005516:	043f      	lsls	r7, r7, #16
 8005518:	ea47 6706 	orr.w	r7, r7, r6, lsl #24
 800551c:	78ae      	ldrb	r6, [r5, #2]
 800551e:	78ed      	ldrb	r5, [r5, #3]
 8005520:	ea47 2706 	orr.w	r7, r7, r6, lsl #8
 8005524:	432f      	orrs	r7, r5
 8005526:	f842 7024 	str.w	r7, [r2, r4, lsl #2]
 800552a:	1c64      	adds	r4, r4, #1
 800552c:	429c      	cmp	r4, r3
 800552e:	d3ed      	bcc.n	800550c <cmox_bn_fromU8BE+0x24>
 8005530:	6815      	ldr	r5, [r2, #0]
 8005532:	42a5      	cmp	r5, r4
 8005534:	bf22      	ittt	cs
 8005536:	2600      	movcs	r6, #0
 8005538:	f842 6024 	strcs.w	r6, [r2, r4, lsl #2]
 800553c:	1c64      	addcs	r4, r4, #1
 800553e:	d2f7      	bcs.n	8005530 <cmox_bn_fromU8BE+0x48>
 8005540:	f011 0103 	ands.w	r1, r1, #3
 8005544:	d011      	beq.n	800556a <cmox_bn_fromU8BE+0x82>
 8005546:	7804      	ldrb	r4, [r0, #0]
 8005548:	f842 4023 	str.w	r4, [r2, r3, lsl #2]
 800554c:	2401      	movs	r4, #1
 800554e:	428c      	cmp	r4, r1
 8005550:	d20b      	bcs.n	800556a <cmox_bn_fromU8BE+0x82>
 8005552:	f852 5023 	ldr.w	r5, [r2, r3, lsl #2]
 8005556:	5d06      	ldrb	r6, [r0, r4]
 8005558:	ea46 2605 	orr.w	r6, r6, r5, lsl #8
 800555c:	f842 6023 	str.w	r6, [r2, r3, lsl #2]
 8005560:	1c64      	adds	r4, r4, #1
 8005562:	e7f4      	b.n	800554e <cmox_bn_fromU8BE+0x66>
 8005564:	4610      	mov	r0, r2
 8005566:	f7ff fe94 	bl	8005292 <cmox_bn_init>
 800556a:	2000      	movs	r0, #0
 800556c:	bdf2      	pop	{r1, r4, r5, r6, r7, pc}

0800556e <cmox_bn_fromU8LE>:
 800556e:	b5f8      	push	{r3, r4, r5, r6, r7, lr}
 8005570:	2300      	movs	r3, #0
 8005572:	b10a      	cbz	r2, 8005578 <cmox_bn_fromU8LE+0xa>
 8005574:	b910      	cbnz	r0, 800557c <cmox_bn_fromU8LE+0xe>
 8005576:	b109      	cbz	r1, 800557c <cmox_bn_fromU8LE+0xe>
 8005578:	2001      	movs	r0, #1
 800557a:	bdf2      	pop	{r1, r4, r5, r6, r7, pc}
 800557c:	6814      	ldr	r4, [r2, #0]
 800557e:	1ccd      	adds	r5, r1, #3
 8005580:	ebb4 0f95 	cmp.w	r4, r5, lsr #2
 8005584:	d201      	bcs.n	800558a <cmox_bn_fromU8LE+0x1c>
 8005586:	2003      	movs	r0, #3
 8005588:	bdf2      	pop	{r1, r4, r5, r6, r7, pc}
 800558a:	b3b9      	cbz	r1, 80055fc <cmox_bn_fromU8LE+0x8e>
 800558c:	2400      	movs	r4, #0
 800558e:	e010      	b.n	80055b2 <cmox_bn_fromU8LE+0x44>
 8005590:	1906      	adds	r6, r0, r4
 8005592:	eb02 0585 	add.w	r5, r2, r5, lsl #2
 8005596:	f896 c002 	ldrb.w	ip, [r6, #2]
 800559a:	78f7      	ldrb	r7, [r6, #3]
 800559c:	ea4f 4c0c 	mov.w	ip, ip, lsl #16
 80055a0:	ea4c 6c07 	orr.w	ip, ip, r7, lsl #24
 80055a4:	7877      	ldrb	r7, [r6, #1]
 80055a6:	7836      	ldrb	r6, [r6, #0]
 80055a8:	ea4c 2707 	orr.w	r7, ip, r7, lsl #8
 80055ac:	433e      	orrs	r6, r7
 80055ae:	606e      	str	r6, [r5, #4]
 80055b0:	1d24      	adds	r4, r4, #4
 80055b2:	08a5      	lsrs	r5, r4, #2
 80055b4:	1ece      	subs	r6, r1, #3
 80055b6:	42b4      	cmp	r4, r6
 80055b8:	d3ea      	bcc.n	8005590 <cmox_bn_fromU8LE+0x22>
 80055ba:	f011 0f03 	tst.w	r1, #3
 80055be:	d011      	beq.n	80055e4 <cmox_bn_fromU8LE+0x76>
 80055c0:	1c6d      	adds	r5, r5, #1
 80055c2:	f842 3025 	str.w	r3, [r2, r5, lsl #2]
 80055c6:	e00b      	b.n	80055e0 <cmox_bn_fromU8LE+0x72>
 80055c8:	5d07      	ldrb	r7, [r0, r4]
 80055ca:	f852 6025 	ldr.w	r6, [r2, r5, lsl #2]
 80055ce:	ea4f 0cc3 	mov.w	ip, r3, lsl #3
 80055d2:	fa07 f70c 	lsl.w	r7, r7, ip
 80055d6:	433e      	orrs	r6, r7
 80055d8:	f842 6025 	str.w	r6, [r2, r5, lsl #2]
 80055dc:	1c5b      	adds	r3, r3, #1
 80055de:	1c64      	adds	r4, r4, #1
 80055e0:	428c      	cmp	r4, r1
 80055e2:	d3f1      	bcc.n	80055c8 <cmox_bn_fromU8LE+0x5a>
 80055e4:	1ce4      	adds	r4, r4, #3
 80055e6:	08a4      	lsrs	r4, r4, #2
 80055e8:	1c64      	adds	r4, r4, #1
 80055ea:	2100      	movs	r1, #0
 80055ec:	6810      	ldr	r0, [r2, #0]
 80055ee:	42a0      	cmp	r0, r4
 80055f0:	bf24      	itt	cs
 80055f2:	f842 1024 	strcs.w	r1, [r2, r4, lsl #2]
 80055f6:	1c64      	addcs	r4, r4, #1
 80055f8:	d2f8      	bcs.n	80055ec <cmox_bn_fromU8LE+0x7e>
 80055fa:	e002      	b.n	8005602 <cmox_bn_fromU8LE+0x94>
 80055fc:	4610      	mov	r0, r2
 80055fe:	f7ff fe48 	bl	8005292 <cmox_bn_init>
 8005602:	2000      	movs	r0, #0
 8005604:	bdf2      	pop	{r1, r4, r5, r6, r7, pc}

08005606 <poly_xor>:
 8005606:	b530      	push	{r4, r5, lr}
 8005608:	6804      	ldr	r4, [r0, #0]
 800560a:	680b      	ldr	r3, [r1, #0]
 800560c:	405c      	eors	r4, r3
 800560e:	6014      	str	r4, [r2, #0]
 8005610:	6845      	ldr	r5, [r0, #4]
 8005612:	684b      	ldr	r3, [r1, #4]
 8005614:	405d      	eors	r5, r3
 8005616:	6055      	str	r5, [r2, #4]
 8005618:	6884      	ldr	r4, [r0, #8]
 800561a:	688b      	ldr	r3, [r1, #8]
 800561c:	405c      	eors	r4, r3
 800561e:	6094      	str	r4, [r2, #8]
 8005620:	68c4      	ldr	r4, [r0, #12]
 8005622:	68c8      	ldr	r0, [r1, #12]
 8005624:	4044      	eors	r4, r0
 8005626:	60d4      	str	r4, [r2, #12]
 8005628:	bd30      	pop	{r4, r5, pc}

0800562a <poly_copy>:
 800562a:	6802      	ldr	r2, [r0, #0]
 800562c:	600a      	str	r2, [r1, #0]
 800562e:	6843      	ldr	r3, [r0, #4]
 8005630:	604b      	str	r3, [r1, #4]
 8005632:	6882      	ldr	r2, [r0, #8]
 8005634:	608a      	str	r2, [r1, #8]
 8005636:	68c0      	ldr	r0, [r0, #12]
 8005638:	60c8      	str	r0, [r1, #12]
 800563a:	4770      	bx	lr

0800563c <gfmul_x>:
 800563c:	b530      	push	{r4, r5, lr}
 800563e:	6885      	ldr	r5, [r0, #8]
 8005640:	68c3      	ldr	r3, [r0, #12]
 8005642:	07ed      	lsls	r5, r5, #31
 8005644:	f003 0401 	and.w	r4, r3, #1
 8005648:	f04f 4261 	mov.w	r2, #3774873600	; 0xe1000000
 800564c:	ea45 0553 	orr.w	r5, r5, r3, lsr #1
 8005650:	4354      	muls	r4, r2
 8005652:	60cd      	str	r5, [r1, #12]
 8005654:	6843      	ldr	r3, [r0, #4]
 8005656:	6882      	ldr	r2, [r0, #8]
 8005658:	07db      	lsls	r3, r3, #31
 800565a:	ea43 0352 	orr.w	r3, r3, r2, lsr #1
 800565e:	608b      	str	r3, [r1, #8]
 8005660:	6803      	ldr	r3, [r0, #0]
 8005662:	6842      	ldr	r2, [r0, #4]
 8005664:	07db      	lsls	r3, r3, #31
 8005666:	ea43 0352 	orr.w	r3, r3, r2, lsr #1
 800566a:	604b      	str	r3, [r1, #4]
 800566c:	6800      	ldr	r0, [r0, #0]
 800566e:	ea84 0450 	eor.w	r4, r4, r0, lsr #1
 8005672:	600c      	str	r4, [r1, #0]
 8005674:	bd30      	pop	{r4, r5, pc}
	...

08005678 <gfmul_x4>:
 8005678:	b510      	push	{r4, lr}
 800567a:	6884      	ldr	r4, [r0, #8]
 800567c:	68c2      	ldr	r2, [r0, #12]
 800567e:	0724      	lsls	r4, r4, #28
 8005680:	ea44 1412 	orr.w	r4, r4, r2, lsr #4
 8005684:	f002 030f 	and.w	r3, r2, #15
 8005688:	60cc      	str	r4, [r1, #12]
 800568a:	6844      	ldr	r4, [r0, #4]
 800568c:	6882      	ldr	r2, [r0, #8]
 800568e:	0724      	lsls	r4, r4, #28
 8005690:	ea44 1412 	orr.w	r4, r4, r2, lsr #4
 8005694:	608c      	str	r4, [r1, #8]
 8005696:	6804      	ldr	r4, [r0, #0]
 8005698:	6842      	ldr	r2, [r0, #4]
 800569a:	0724      	lsls	r4, r4, #28
 800569c:	ea44 1412 	orr.w	r4, r4, r2, lsr #4
 80056a0:	4a04      	ldr	r2, [pc, #16]	; (80056b4 <gfmul_x4+0x3c>)
 80056a2:	604c      	str	r4, [r1, #4]
 80056a4:	f832 3013 	ldrh.w	r3, [r2, r3, lsl #1]
 80056a8:	6800      	ldr	r0, [r0, #0]
 80056aa:	041b      	lsls	r3, r3, #16
 80056ac:	ea83 1310 	eor.w	r3, r3, r0, lsr #4
 80056b0:	600b      	str	r3, [r1, #0]
 80056b2:	bd10      	pop	{r4, pc}
 80056b4:	080056b8 	.word	0x080056b8

080056b8 <gfmul_x4::table_reduction4>:
 80056b8:	1c200000 24603840 6ca07080 54e048c0     .. .@8`$.p.l.H.T
 80056c8:	fd20e100 c560d940 8da09180 b5e0a9c0     .. .@.`.........

080056d8 <cmox_gcm_initCommon>:
 80056d8:	b530      	push	{r4, r5, lr}
 80056da:	f501 7284 	add.w	r2, r1, #264	; 0x108
 80056de:	2300      	movs	r3, #0
 80056e0:	6093      	str	r3, [r2, #8]
 80056e2:	2400      	movs	r4, #0
 80056e4:	60d4      	str	r4, [r2, #12]
 80056e6:	2301      	movs	r3, #1
 80056e8:	608b      	str	r3, [r1, #8]
 80056ea:	6044      	str	r4, [r0, #4]
 80056ec:	f501 708c 	add.w	r0, r1, #280	; 0x118
 80056f0:	2100      	movs	r1, #0
 80056f2:	2300      	movs	r3, #0
 80056f4:	2500      	movs	r5, #0
 80056f6:	e880 003a 	stmia.w	r0, {r1, r3, r4, r5}
 80056fa:	2102      	movs	r1, #2
 80056fc:	6011      	str	r1, [r2, #0]
 80056fe:	bd30      	pop	{r4, r5, pc}

08005700 <cmox_gcm_appendAD_common>:
 8005700:	e92d 4ff0 	stmdb	sp!, {r4, r5, r6, r7, r8, r9, sl, fp, lr}
 8005704:	b085      	sub	sp, #20
 8005706:	4614      	mov	r4, r2
 8005708:	4605      	mov	r5, r0
 800570a:	f8dd a038 	ldr.w	sl, [sp, #56]	; 0x38
 800570e:	f501 7288 	add.w	r2, r1, #272	; 0x110
 8005712:	4699      	mov	r9, r3
 8005714:	2000      	movs	r0, #0
 8005716:	9200      	str	r2, [sp, #0]
 8005718:	f501 7b8c 	add.w	fp, r1, #280	; 0x118
 800571c:	f10d 0804 	add.w	r8, sp, #4
 8005720:	e016      	b.n	8005750 <cmox_gcm_appendAD_common+0x50>
 8005722:	2100      	movs	r1, #0
 8005724:	eb00 0281 	add.w	r2, r0, r1, lsl #2
 8005728:	58a3      	ldr	r3, [r4, r2]
 800572a:	ba1a      	rev	r2, r3
 800572c:	f848 2021 	str.w	r2, [r8, r1, lsl #2]
 8005730:	f85b 3021 	ldr.w	r3, [fp, r1, lsl #2]
 8005734:	405a      	eors	r2, r3
 8005736:	f848 2021 	str.w	r2, [r8, r1, lsl #2]
 800573a:	1c49      	adds	r1, r1, #1
 800573c:	2904      	cmp	r1, #4
 800573e:	d3f1      	bcc.n	8005724 <cmox_gcm_appendAD_common+0x24>
 8005740:	9b00      	ldr	r3, [sp, #0]
 8005742:	699b      	ldr	r3, [r3, #24]
 8005744:	681f      	ldr	r7, [r3, #0]
 8005746:	465a      	mov	r2, fp
 8005748:	4651      	mov	r1, sl
 800574a:	a801      	add	r0, sp, #4
 800574c:	47b8      	blx	r7
 800574e:	4630      	mov	r0, r6
 8005750:	f100 0610 	add.w	r6, r0, #16
 8005754:	45b1      	cmp	r9, r6
 8005756:	d2e4      	bcs.n	8005722 <cmox_gcm_appendAD_common+0x22>
 8005758:	4548      	cmp	r0, r9
 800575a:	d23f      	bcs.n	80057dc <cmox_gcm_appendAD_common+0xdc>
 800575c:	6869      	ldr	r1, [r5, #4]
 800575e:	f041 0104 	orr.w	r1, r1, #4
 8005762:	6069      	str	r1, [r5, #4]
 8005764:	2100      	movs	r1, #0
 8005766:	e00a      	b.n	800577e <cmox_gcm_appendAD_common+0x7e>
 8005768:	f854 300c 	ldr.w	r3, [r4, ip]
 800576c:	ba1b      	rev	r3, r3
 800576e:	f848 3021 	str.w	r3, [r8, r1, lsl #2]
 8005772:	f85b 5021 	ldr.w	r5, [fp, r1, lsl #2]
 8005776:	406b      	eors	r3, r5
 8005778:	f848 3021 	str.w	r3, [r8, r1, lsl #2]
 800577c:	4611      	mov	r1, r2
 800577e:	1c4a      	adds	r2, r1, #1
 8005780:	eba9 0300 	sub.w	r3, r9, r0
 8005784:	ebb1 0f93 	cmp.w	r1, r3, lsr #2
 8005788:	eb00 0c81 	add.w	ip, r0, r1, lsl #2
 800578c:	d3ec      	bcc.n	8005768 <cmox_gcm_appendAD_common+0x68>
 800578e:	f85b 0021 	ldr.w	r0, [fp, r1, lsl #2]
 8005792:	f848 0021 	str.w	r0, [r8, r1, lsl #2]
 8005796:	2500      	movs	r5, #0
 8005798:	e00c      	b.n	80057b4 <cmox_gcm_appendAD_common+0xb4>
 800579a:	eb05 060c 	add.w	r6, r5, ip
 800579e:	5da7      	ldrb	r7, [r4, r6]
 80057a0:	f858 0021 	ldr.w	r0, [r8, r1, lsl #2]
 80057a4:	00ee      	lsls	r6, r5, #3
 80057a6:	f1c6 0618 	rsb	r6, r6, #24
 80057aa:	40b7      	lsls	r7, r6
 80057ac:	4078      	eors	r0, r7
 80057ae:	f848 0021 	str.w	r0, [r8, r1, lsl #2]
 80057b2:	1c6d      	adds	r5, r5, #1
 80057b4:	eba3 0081 	sub.w	r0, r3, r1, lsl #2
 80057b8:	4285      	cmp	r5, r0
 80057ba:	d3ee      	bcc.n	800579a <cmox_gcm_appendAD_common+0x9a>
 80057bc:	e004      	b.n	80057c8 <cmox_gcm_appendAD_common+0xc8>
 80057be:	f85b 0022 	ldr.w	r0, [fp, r2, lsl #2]
 80057c2:	f848 0022 	str.w	r0, [r8, r2, lsl #2]
 80057c6:	1c52      	adds	r2, r2, #1
 80057c8:	2a04      	cmp	r2, #4
 80057ca:	d3f8      	bcc.n	80057be <cmox_gcm_appendAD_common+0xbe>
 80057cc:	9b00      	ldr	r3, [sp, #0]
 80057ce:	699c      	ldr	r4, [r3, #24]
 80057d0:	4651      	mov	r1, sl
 80057d2:	f8d4 a000 	ldr.w	sl, [r4]
 80057d6:	465a      	mov	r2, fp
 80057d8:	a801      	add	r0, sp, #4
 80057da:	47d0      	blx	sl
 80057dc:	9800      	ldr	r0, [sp, #0]
 80057de:	6801      	ldr	r1, [r0, #0]
 80057e0:	4449      	add	r1, r9
 80057e2:	6001      	str	r1, [r0, #0]
 80057e4:	b005      	add	sp, #20
 80057e6:	e8bd 8ff0 	ldmia.w	sp!, {r4, r5, r6, r7, r8, r9, sl, fp, pc}

080057ea <cmox_gcm_finish_common>:
 80057ea:	e92d 41f0 	stmdb	sp!, {r4, r5, r6, r7, r8, lr}
 80057ee:	460e      	mov	r6, r1
 80057f0:	6841      	ldr	r1, [r0, #4]
 80057f2:	9c06      	ldr	r4, [sp, #24]
 80057f4:	9d07      	ldr	r5, [sp, #28]
 80057f6:	f041 0110 	orr.w	r1, r1, #16
 80057fa:	f506 7784 	add.w	r7, r6, #264	; 0x108
 80057fe:	6041      	str	r1, [r0, #4]
 8005800:	4690      	mov	r8, r2
 8005802:	6978      	ldr	r0, [r7, #20]
 8005804:	68b9      	ldr	r1, [r7, #8]
 8005806:	ea80 00c1 	eor.w	r0, r0, r1, lsl #3
 800580a:	6178      	str	r0, [r7, #20]
 800580c:	4622      	mov	r2, r4
 800580e:	69f8      	ldr	r0, [r7, #28]
 8005810:	68f9      	ldr	r1, [r7, #12]
 8005812:	ea80 00c1 	eor.w	r0, r0, r1, lsl #3
 8005816:	4619      	mov	r1, r3
 8005818:	61f8      	str	r0, [r7, #28]
 800581a:	f506 708c 	add.w	r0, r6, #280	; 0x118
 800581e:	6a3b      	ldr	r3, [r7, #32]
 8005820:	f8d3 c000 	ldr.w	ip, [r3]
 8005824:	47e0      	blx	ip
 8005826:	2001      	movs	r0, #1
 8005828:	6038      	str	r0, [r7, #0]
 800582a:	f106 01fc 	add.w	r1, r6, #252	; 0xfc
 800582e:	f8d8 3000 	ldr.w	r3, [r8]
 8005832:	681e      	ldr	r6, [r3, #0]
 8005834:	462a      	mov	r2, r5
 8005836:	4640      	mov	r0, r8
 8005838:	47b0      	blx	r6
 800583a:	2000      	movs	r0, #0
 800583c:	f855 1020 	ldr.w	r1, [r5, r0, lsl #2]
 8005840:	f854 2020 	ldr.w	r2, [r4, r0, lsl #2]
 8005844:	4051      	eors	r1, r2
 8005846:	f845 1020 	str.w	r1, [r5, r0, lsl #2]
 800584a:	1c40      	adds	r0, r0, #1
 800584c:	2804      	cmp	r0, #4
 800584e:	d3f5      	bcc.n	800583c <cmox_gcm_finish_common+0x52>
 8005850:	e8bd 81f0 	ldmia.w	sp!, {r4, r5, r6, r7, r8, pc}

08005854 <cmox_gcm_decrypt_common>:
 8005854:	e92d 47fc 	stmdb	sp!, {r2, r3, r4, r5, r6, r7, r8, r9, sl, lr}
 8005858:	b08c      	sub	sp, #48	; 0x30
 800585a:	4604      	mov	r4, r0
 800585c:	468a      	mov	sl, r1
 800585e:	4617      	mov	r7, r2
 8005860:	4699      	mov	r9, r3
 8005862:	2210      	movs	r2, #16
 8005864:	2100      	movs	r1, #0
 8005866:	4668      	mov	r0, sp
 8005868:	f003 fd48 	bl	80092fc <memset>
 800586c:	6860      	ldr	r0, [r4, #4]
 800586e:	f010 0f18 	tst.w	r0, #24
 8005872:	bf18      	it	ne
 8005874:	4860      	ldrne	r0, [pc, #384]	; (80059f8 <cmox_gcm_decrypt_common+0x1a4>)
 8005876:	f040 80bb 	bne.w	80059f0 <cmox_gcm_decrypt_common+0x19c>
 800587a:	f040 0004 	orr.w	r0, r0, #4
 800587e:	6060      	str	r0, [r4, #4]
 8005880:	f50a 7584 	add.w	r5, sl, #264	; 0x108
 8005884:	f10a 00fc 	add.w	r0, sl, #252	; 0xfc
 8005888:	9009      	str	r0, [sp, #36]	; 0x24
 800588a:	9708      	str	r7, [sp, #32]
 800588c:	f8cd 9028 	str.w	r9, [sp, #40]	; 0x28
 8005890:	2600      	movs	r6, #0
 8005892:	f8dd 905c 	ldr.w	r9, [sp, #92]	; 0x5c
 8005896:	9f18      	ldr	r7, [sp, #96]	; 0x60
 8005898:	f50a 7a8c 	add.w	sl, sl, #280	; 0x118
 800589c:	f10d 0810 	add.w	r8, sp, #16
 80058a0:	e03a      	b.n	8005918 <cmox_gcm_decrypt_common+0xc4>
 80058a2:	9816      	ldr	r0, [sp, #88]	; 0x58
 80058a4:	2100      	movs	r1, #0
 80058a6:	eb06 0281 	add.w	r2, r6, r1, lsl #2
 80058aa:	5883      	ldr	r3, [r0, r2]
 80058ac:	ba1a      	rev	r2, r3
 80058ae:	f848 2021 	str.w	r2, [r8, r1, lsl #2]
 80058b2:	f85a 3021 	ldr.w	r3, [sl, r1, lsl #2]
 80058b6:	405a      	eors	r2, r3
 80058b8:	f84d 2021 	str.w	r2, [sp, r1, lsl #2]
 80058bc:	1c49      	adds	r1, r1, #1
 80058be:	2904      	cmp	r1, #4
 80058c0:	d3f1      	bcc.n	80058a6 <cmox_gcm_decrypt_common+0x52>
 80058c2:	9016      	str	r0, [sp, #88]	; 0x58
 80058c4:	4652      	mov	r2, sl
 80058c6:	6a2b      	ldr	r3, [r5, #32]
 80058c8:	990a      	ldr	r1, [sp, #40]	; 0x28
 80058ca:	f8d3 c000 	ldr.w	ip, [r3]
 80058ce:	4668      	mov	r0, sp
 80058d0:	47e0      	blx	ip
 80058d2:	9808      	ldr	r0, [sp, #32]
 80058d4:	f8d0 c000 	ldr.w	ip, [r0]
 80058d8:	9909      	ldr	r1, [sp, #36]	; 0x24
 80058da:	f8dc 3000 	ldr.w	r3, [ip]
 80058de:	466a      	mov	r2, sp
 80058e0:	4798      	blx	r3
 80058e2:	6828      	ldr	r0, [r5, #0]
 80058e4:	1c40      	adds	r0, r0, #1
 80058e6:	6028      	str	r0, [r5, #0]
 80058e8:	2000      	movs	r0, #0
 80058ea:	f85d 1020 	ldr.w	r1, [sp, r0, lsl #2]
 80058ee:	f858 2020 	ldr.w	r2, [r8, r0, lsl #2]
 80058f2:	4051      	eors	r1, r2
 80058f4:	f84d 1020 	str.w	r1, [sp, r0, lsl #2]
 80058f8:	eb06 0380 	add.w	r3, r6, r0, lsl #2
 80058fc:	ba09      	rev	r1, r1
 80058fe:	50f9      	str	r1, [r7, r3]
 8005900:	f85a 2020 	ldr.w	r2, [sl, r0, lsl #2]
 8005904:	f85d 1020 	ldr.w	r1, [sp, r0, lsl #2]
 8005908:	4051      	eors	r1, r2
 800590a:	f84d 1020 	str.w	r1, [sp, r0, lsl #2]
 800590e:	1c40      	adds	r0, r0, #1
 8005910:	2804      	cmp	r0, #4
 8005912:	d3ea      	bcc.n	80058ea <cmox_gcm_decrypt_common+0x96>
 8005914:	960b      	str	r6, [sp, #44]	; 0x2c
 8005916:	3610      	adds	r6, #16
 8005918:	f106 0010 	add.w	r0, r6, #16
 800591c:	4581      	cmp	r9, r0
 800591e:	d2c0      	bcs.n	80058a2 <cmox_gcm_decrypt_common+0x4e>
 8005920:	454e      	cmp	r6, r9
 8005922:	d25c      	bcs.n	80059de <cmox_gcm_decrypt_common+0x18a>
 8005924:	6861      	ldr	r1, [r4, #4]
 8005926:	f041 0108 	orr.w	r1, r1, #8
 800592a:	6061      	str	r1, [r4, #4]
 800592c:	466a      	mov	r2, sp
 800592e:	9808      	ldr	r0, [sp, #32]
 8005930:	6804      	ldr	r4, [r0, #0]
 8005932:	9909      	ldr	r1, [sp, #36]	; 0x24
 8005934:	f8d4 c000 	ldr.w	ip, [r4]
 8005938:	47e0      	blx	ip
 800593a:	9816      	ldr	r0, [sp, #88]	; 0x58
 800593c:	2100      	movs	r1, #0
 800593e:	e012      	b.n	8005966 <cmox_gcm_decrypt_common+0x112>
 8005940:	5883      	ldr	r3, [r0, r2]
 8005942:	ba1b      	rev	r3, r3
 8005944:	f848 3021 	str.w	r3, [r8, r1, lsl #2]
 8005948:	f85d 4021 	ldr.w	r4, [sp, r1, lsl #2]
 800594c:	4063      	eors	r3, r4
 800594e:	f84d 3021 	str.w	r3, [sp, r1, lsl #2]
 8005952:	ba1b      	rev	r3, r3
 8005954:	50bb      	str	r3, [r7, r2]
 8005956:	f858 2021 	ldr.w	r2, [r8, r1, lsl #2]
 800595a:	f85a 3021 	ldr.w	r3, [sl, r1, lsl #2]
 800595e:	405a      	eors	r2, r3
 8005960:	f848 2021 	str.w	r2, [r8, r1, lsl #2]
 8005964:	1c49      	adds	r1, r1, #1
 8005966:	eba9 0306 	sub.w	r3, r9, r6
 800596a:	ebb1 0f93 	cmp.w	r1, r3, lsr #2
 800596e:	eb06 0281 	add.w	r2, r6, r1, lsl #2
 8005972:	d3e5      	bcc.n	8005940 <cmox_gcm_decrypt_common+0xec>
 8005974:	f85a 4021 	ldr.w	r4, [sl, r1, lsl #2]
 8005978:	f848 4021 	str.w	r4, [r8, r1, lsl #2]
 800597c:	2600      	movs	r6, #0
 800597e:	9718      	str	r7, [sp, #96]	; 0x60
 8005980:	e019      	b.n	80059b6 <cmox_gcm_decrypt_common+0x162>
 8005982:	18b4      	adds	r4, r6, r2
 8005984:	ea4f 0cc6 	mov.w	ip, r6, lsl #3
 8005988:	5d07      	ldrb	r7, [r0, r4]
 800598a:	f858 e021 	ldr.w	lr, [r8, r1, lsl #2]
 800598e:	f1cc 0c18 	rsb	ip, ip, #24
 8005992:	fa07 f70c 	lsl.w	r7, r7, ip
 8005996:	ea87 070e 	eor.w	r7, r7, lr
 800599a:	f848 7021 	str.w	r7, [r8, r1, lsl #2]
 800599e:	1c76      	adds	r6, r6, #1
 80059a0:	f85d 7021 	ldr.w	r7, [sp, r1, lsl #2]
 80059a4:	fa27 f70c 	lsr.w	r7, r7, ip
 80059a8:	f810 c004 	ldrb.w	ip, [r0, r4]
 80059ac:	ea8c 0e07 	eor.w	lr, ip, r7
 80059b0:	9f18      	ldr	r7, [sp, #96]	; 0x60
 80059b2:	f807 e004 	strb.w	lr, [r7, r4]
 80059b6:	eba3 0481 	sub.w	r4, r3, r1, lsl #2
 80059ba:	42a6      	cmp	r6, r4
 80059bc:	d3e1      	bcc.n	8005982 <cmox_gcm_decrypt_common+0x12e>
 80059be:	9108      	str	r1, [sp, #32]
 80059c0:	1c48      	adds	r0, r1, #1
 80059c2:	e004      	b.n	80059ce <cmox_gcm_decrypt_common+0x17a>
 80059c4:	f85a 1020 	ldr.w	r1, [sl, r0, lsl #2]
 80059c8:	f848 1020 	str.w	r1, [r8, r0, lsl #2]
 80059cc:	1c40      	adds	r0, r0, #1
 80059ce:	2804      	cmp	r0, #4
 80059d0:	d3f8      	bcc.n	80059c4 <cmox_gcm_decrypt_common+0x170>
 80059d2:	6a2b      	ldr	r3, [r5, #32]
 80059d4:	990a      	ldr	r1, [sp, #40]	; 0x28
 80059d6:	681c      	ldr	r4, [r3, #0]
 80059d8:	4652      	mov	r2, sl
 80059da:	a804      	add	r0, sp, #16
 80059dc:	47a0      	blx	r4
 80059de:	68e9      	ldr	r1, [r5, #12]
 80059e0:	9819      	ldr	r0, [sp, #100]	; 0x64
 80059e2:	4449      	add	r1, r9
 80059e4:	60e9      	str	r1, [r5, #12]
 80059e6:	b108      	cbz	r0, 80059ec <cmox_gcm_decrypt_common+0x198>
 80059e8:	f8c0 9000 	str.w	r9, [r0]
 80059ec:	f44f 3080 	mov.w	r0, #65536	; 0x10000
 80059f0:	b00e      	add	sp, #56	; 0x38
 80059f2:	e8bd 87f0 	ldmia.w	sp!, {r4, r5, r6, r7, r8, r9, sl, pc}
 80059f6:	bf00      	nop
 80059f8:	00010004 	.word	0x00010004

080059fc <cmox_gcm_decrypt_verify_common>:
 80059fc:	e92d 41f0 	stmdb	sp!, {r4, r5, r6, r7, r8, lr}
 8005a00:	b08c      	sub	sp, #48	; 0x30
 8005a02:	4605      	mov	r5, r0
 8005a04:	460e      	mov	r6, r1
 8005a06:	4617      	mov	r7, r2
 8005a08:	4698      	mov	r8, r3
 8005a0a:	2210      	movs	r2, #16
 8005a0c:	2100      	movs	r1, #0
 8005a0e:	a804      	add	r0, sp, #16
 8005a10:	f003 fc74 	bl	80092fc <memset>
 8005a14:	f8d6 010c 	ldr.w	r0, [r6, #268]	; 0x10c
 8005a18:	b108      	cbz	r0, 8005a1e <cmox_gcm_decrypt_verify_common+0x22>
 8005a1a:	2810      	cmp	r0, #16
 8005a1c:	d901      	bls.n	8005a22 <cmox_gcm_decrypt_verify_common+0x26>
 8005a1e:	4810      	ldr	r0, [pc, #64]	; (8005a60 <cmox_gcm_decrypt_verify_common+0x64>)
 8005a20:	e01b      	b.n	8005a5a <cmox_gcm_decrypt_verify_common+0x5e>
 8005a22:	a804      	add	r0, sp, #16
 8005a24:	a908      	add	r1, sp, #32
 8005a26:	9001      	str	r0, [sp, #4]
 8005a28:	9100      	str	r1, [sp, #0]
 8005a2a:	4643      	mov	r3, r8
 8005a2c:	9c12      	ldr	r4, [sp, #72]	; 0x48
 8005a2e:	463a      	mov	r2, r7
 8005a30:	4631      	mov	r1, r6
 8005a32:	4628      	mov	r0, r5
 8005a34:	f7ff fed9 	bl	80057ea <cmox_gcm_finish_common>
 8005a38:	f8d6 110c 	ldr.w	r1, [r6, #268]	; 0x10c
 8005a3c:	9813      	ldr	r0, [sp, #76]	; 0x4c
 8005a3e:	4d09      	ldr	r5, [pc, #36]	; (8005a64 <cmox_gcm_decrypt_verify_common+0x68>)
 8005a40:	4b09      	ldr	r3, [pc, #36]	; (8005a68 <cmox_gcm_decrypt_verify_common+0x6c>)
 8005a42:	4a0a      	ldr	r2, [pc, #40]	; (8005a6c <cmox_gcm_decrypt_verify_common+0x70>)
 8005a44:	9003      	str	r0, [sp, #12]
 8005a46:	9301      	str	r3, [sp, #4]
 8005a48:	9202      	str	r2, [sp, #8]
 8005a4a:	1ccb      	adds	r3, r1, #3
 8005a4c:	6828      	ldr	r0, [r5, #0]
 8005a4e:	9000      	str	r0, [sp, #0]
 8005a50:	089b      	lsrs	r3, r3, #2
 8005a52:	aa04      	add	r2, sp, #16
 8005a54:	4620      	mov	r0, r4
 8005a56:	f7ff fa07 	bl	8004e68 <cmox_utils_robustCmp>
 8005a5a:	b00c      	add	sp, #48	; 0x30
 8005a5c:	e8bd 81f0 	ldmia.w	sp!, {r4, r5, r6, r7, r8, pc}
 8005a60:	00010004 	.word	0x00010004
 8005a64:	080098ac 	.word	0x080098ac
 8005a68:	0001c726 	.word	0x0001c726
 8005a6c:	00016e93 	.word	0x00016e93

08005a70 <cmox_asm_montymul>:
 8005a70:	e92d 4ff0 	stmdb	sp!, {r4, r5, r6, r7, r8, r9, sl, fp, lr}
 8005a74:	b40a      	push	{r1, r3}
 8005a76:	f8dd 402c 	ldr.w	r4, [sp, #44]	; 0x2c
 8005a7a:	ea4f 0282 	mov.w	r2, r2, lsl #2
 8005a7e:	f04f 0c00 	mov.w	ip, #0
 8005a82:	ea5f 0e02 	movs.w	lr, r2
 8005a86:	f1be 0e04 	subs.w	lr, lr, #4
 8005a8a:	f843 c00e 	str.w	ip, [r3, lr]
 8005a8e:	f47f affa 	bne.w	8005a86 <cmox_asm_montymul+0x16>
 8005a92:	ea5f 0e02 	movs.w	lr, r2
 8005a96:	f850 ab04 	ldr.w	sl, [r0], #4
 8005a9a:	f851 bb04 	ldr.w	fp, [r1], #4
 8005a9e:	681f      	ldr	r7, [r3, #0]
 8005aa0:	f04f 0600 	mov.w	r6, #0
 8005aa4:	fbea 676b 	umaal	r6, r7, sl, fp
 8005aa8:	9d0c      	ldr	r5, [sp, #48]	; 0x30
 8005aaa:	fb06 fb05 	mul.w	fp, r6, r5
 8005aae:	cc20      	ldmia	r4!, {r5}
 8005ab0:	f04f 0800 	mov.w	r8, #0
 8005ab4:	46b1      	mov	r9, r6
 8005ab6:	fbeb 8965 	umaal	r8, r9, fp, r5
 8005aba:	f1b2 0504 	subs.w	r5, r2, #4
 8005abe:	685e      	ldr	r6, [r3, #4]
 8005ac0:	f851 8b04 	ldr.w	r8, [r1], #4
 8005ac4:	fbea 6768 	umaal	r6, r7, sl, r8
 8005ac8:	46b0      	mov	r8, r6
 8005aca:	cc40      	ldmia	r4!, {r6}
 8005acc:	fbeb 8966 	umaal	r8, r9, fp, r6
 8005ad0:	f843 8b04 	str.w	r8, [r3], #4
 8005ad4:	1f2d      	subs	r5, r5, #4
 8005ad6:	d1f2      	bne.n	8005abe <cmox_asm_montymul+0x4e>
 8005ad8:	9900      	ldr	r1, [sp, #0]
 8005ada:	9c0b      	ldr	r4, [sp, #44]	; 0x2c
 8005adc:	eb17 060c 	adds.w	r6, r7, ip
 8005ae0:	f04f 0700 	mov.w	r7, #0
 8005ae4:	eb47 0707 	adc.w	r7, r7, r7
 8005ae8:	eb16 0809 	adds.w	r8, r6, r9
 8005aec:	f04f 0900 	mov.w	r9, #0
 8005af0:	eb49 0909 	adc.w	r9, r9, r9
 8005af4:	f8c3 8000 	str.w	r8, [r3]
 8005af8:	eb07 0c09 	add.w	ip, r7, r9
 8005afc:	9b01      	ldr	r3, [sp, #4]
 8005afe:	f1be 0e04 	subs.w	lr, lr, #4
 8005b02:	d1c8      	bne.n	8005a96 <cmox_asm_montymul+0x26>
 8005b04:	469a      	mov	sl, r3
 8005b06:	46a3      	mov	fp, r4
 8005b08:	1e15      	subs	r5, r2, #0
 8005b0a:	b135      	cbz	r5, 8005b1a <cmox_asm_montymul+0xaa>
 8005b0c:	cb40      	ldmia	r3!, {r6}
 8005b0e:	cc80      	ldmia	r4!, {r7}
 8005b10:	41be      	sbcs	r6, r7
 8005b12:	f1a5 0504 	sub.w	r5, r5, #4
 8005b16:	f7ff bff8 	b.w	8005b0a <cmox_asm_montymul+0x9a>
 8005b1a:	eb66 0606 	sbc.w	r6, r6, r6
 8005b1e:	44b4      	add	ip, r6
 8005b20:	ea6f 0c0c 	mvn.w	ip, ip
 8005b24:	4653      	mov	r3, sl
 8005b26:	465c      	mov	r4, fp
 8005b28:	1e15      	subs	r5, r2, #0
 8005b2a:	b14d      	cbz	r5, 8005b40 <cmox_asm_montymul+0xd0>
 8005b2c:	f8d3 6000 	ldr.w	r6, [r3]
 8005b30:	cc80      	ldmia	r4!, {r7}
 8005b32:	ea07 070c 	and.w	r7, r7, ip
 8005b36:	41be      	sbcs	r6, r7
 8005b38:	c340      	stmia	r3!, {r6}
 8005b3a:	f1a5 0504 	sub.w	r5, r5, #4
 8005b3e:	e7f4      	b.n	8005b2a <cmox_asm_montymul+0xba>
 8005b40:	b002      	add	sp, #8
 8005b42:	e8bd 8ff0 	ldmia.w	sp!, {r4, r5, r6, r7, r8, r9, sl, fp, pc}

08005b46 <cmox_asm_montyred>:
 8005b46:	e92d 4ff0 	stmdb	sp!, {r4, r5, r6, r7, r8, r9, sl, fp, lr}
 8005b4a:	f8dd 4024 	ldr.w	r4, [sp, #36]	; 0x24
 8005b4e:	9209      	str	r2, [sp, #36]	; 0x24
 8005b50:	ea4f 0181 	mov.w	r1, r1, lsl #2
 8005b54:	f04f 0b00 	mov.w	fp, #0
 8005b58:	fbab a50b 	umull	sl, r5, fp, fp
 8005b5c:	468c      	mov	ip, r1
 8005b5e:	f1bc 0c04 	subs.w	ip, ip, #4
 8005b62:	f850 e00c 	ldr.w	lr, [r0, ip]
 8005b66:	f843 e00c 	str.w	lr, [r3, ip]
 8005b6a:	d000      	beq.n	8005b6e <cmox_asm_montyred+0x28>
 8005b6c:	e7f7      	b.n	8005b5e <cmox_asm_montyred+0x18>
 8005b6e:	4408      	add	r0, r1
 8005b70:	f8d3 9000 	ldr.w	r9, [r3]
 8005b74:	fbab 780b 	umull	r7, r8, fp, fp
 8005b78:	fb09 f904 	mul.w	r9, r9, r4
 8005b7c:	460e      	mov	r6, r1
 8005b7e:	469e      	mov	lr, r3
 8005b80:	f8de 7000 	ldr.w	r7, [lr]
 8005b84:	f852 cb04 	ldr.w	ip, [r2], #4
 8005b88:	f1a6 0604 	sub.w	r6, r6, #4
 8005b8c:	fbe9 786c 	umaal	r7, r8, r9, ip
 8005b90:	b156      	cbz	r6, 8005ba8 <cmox_asm_montyred+0x62>
 8005b92:	f8de 7004 	ldr.w	r7, [lr, #4]
 8005b96:	f852 cb04 	ldr.w	ip, [r2], #4
 8005b9a:	f1a6 0604 	sub.w	r6, r6, #4
 8005b9e:	fbe9 786c 	umaal	r7, r8, r9, ip
 8005ba2:	f84e 7b04 	str.w	r7, [lr], #4
 8005ba6:	e7f3      	b.n	8005b90 <cmox_asm_montyred+0x4a>
 8005ba8:	9a09      	ldr	r2, [sp, #36]	; 0x24
 8005baa:	c880      	ldmia	r0!, {r7}
 8005bac:	f04f 0c01 	mov.w	ip, #1
 8005bb0:	fbea 786c 	umaal	r7, r8, sl, ip
 8005bb4:	f8ce 7000 	str.w	r7, [lr]
 8005bb8:	46c2      	mov	sl, r8
 8005bba:	f105 0504 	add.w	r5, r5, #4
 8005bbe:	428d      	cmp	r5, r1
 8005bc0:	dbd6      	blt.n	8005b70 <cmox_asm_montyred+0x2a>
 8005bc2:	469c      	mov	ip, r3
 8005bc4:	4693      	mov	fp, r2
 8005bc6:	1e0d      	subs	r5, r1, #0
 8005bc8:	b135      	cbz	r5, 8005bd8 <cmox_asm_montyred+0x92>
 8005bca:	f85c 6b04 	ldr.w	r6, [ip], #4
 8005bce:	ca80      	ldmia	r2!, {r7}
 8005bd0:	41be      	sbcs	r6, r7
 8005bd2:	f1a5 0504 	sub.w	r5, r5, #4
 8005bd6:	e7f7      	b.n	8005bc8 <cmox_asm_montyred+0x82>
 8005bd8:	eb66 0606 	sbc.w	r6, r6, r6
 8005bdc:	eb0a 0c06 	add.w	ip, sl, r6
 8005be0:	ea6f 0c0c 	mvn.w	ip, ip
 8005be4:	469a      	mov	sl, r3
 8005be6:	465a      	mov	r2, fp
 8005be8:	1e0d      	subs	r5, r1, #0
 8005bea:	b14d      	cbz	r5, 8005c00 <cmox_asm_montyred+0xba>
 8005bec:	ca80      	ldmia	r2!, {r7}
 8005bee:	f85a 6b04 	ldr.w	r6, [sl], #4
 8005bf2:	ea07 070c 	and.w	r7, r7, ip
 8005bf6:	41be      	sbcs	r6, r7
 8005bf8:	c340      	stmia	r3!, {r6}
 8005bfa:	f1a5 0504 	sub.w	r5, r5, #4
 8005bfe:	e7f4      	b.n	8005bea <cmox_asm_montyred+0xa4>
 8005c00:	e8bd 8ff0 	ldmia.w	sp!, {r4, r5, r6, r7, r8, r9, sl, fp, pc}

08005c04 <cmox_asm_mul>:
 8005c04:	e92d 4f70 	stmdb	sp!, {r4, r5, r6, r8, r9, sl, fp, lr}
 8005c08:	0092      	lsls	r2, r2, #2
 8005c0a:	f05f 0900 	movs.w	r9, #0
 8005c0e:	ea5f 0b42 	movs.w	fp, r2, lsl #1
 8005c12:	f1ab 0b04 	sub.w	fp, fp, #4
 8005c16:	d004      	beq.n	8005c22 <cmox_asm_mul+0x1e>
 8005c18:	f1bb 0b04 	subs.w	fp, fp, #4
 8005c1c:	f843 900b 	str.w	r9, [r3, fp]
 8005c20:	d1fa      	bne.n	8005c18 <cmox_asm_mul+0x14>
 8005c22:	ea5f 0b02 	movs.w	fp, r2
 8005c26:	d017      	beq.n	8005c58 <cmox_asm_mul+0x54>
 8005c28:	2400      	movs	r4, #0
 8005c2a:	f850 cb04 	ldr.w	ip, [r0], #4
 8005c2e:	469e      	mov	lr, r3
 8005c30:	4692      	mov	sl, r2
 8005c32:	460e      	mov	r6, r1
 8005c34:	f8de 5000 	ldr.w	r5, [lr]
 8005c38:	f856 8b04 	ldr.w	r8, [r6], #4
 8005c3c:	fbec 5468 	umaal	r5, r4, ip, r8
 8005c40:	f84e 5b04 	str.w	r5, [lr], #4
 8005c44:	f1ba 0a04 	subs.w	sl, sl, #4
 8005c48:	d1f4      	bne.n	8005c34 <cmox_asm_mul+0x30>
 8005c4a:	f8ce 4000 	str.w	r4, [lr]
 8005c4e:	f103 0304 	add.w	r3, r3, #4
 8005c52:	f1bb 0b04 	subs.w	fp, fp, #4
 8005c56:	d1e7      	bne.n	8005c28 <cmox_asm_mul+0x24>
 8005c58:	e8bd 8f70 	ldmia.w	sp!, {r4, r5, r6, r8, r9, sl, fp, pc}

08005c5c <cmox_md_updateState_small>:
 8005c5c:	2220      	movs	r2, #32
 8005c5e:	305c      	adds	r0, #92	; 0x5c
 8005c60:	f003 bb17 	b.w	8009292 <__aeabi_memcpy>

08005c64 <cmox_md_copyLastState_small>:
 8005c64:	b5f0      	push	{r4, r5, r6, r7, lr}
 8005c66:	6884      	ldr	r4, [r0, #8]
 8005c68:	08a3      	lsrs	r3, r4, #2
 8005c6a:	2200      	movs	r2, #0
 8005c6c:	f004 0403 	and.w	r4, r4, #3
 8005c70:	e007      	b.n	8005c82 <cmox_md_copyLastState_small+0x1e>
 8005c72:	f100 055c 	add.w	r5, r0, #92	; 0x5c
 8005c76:	f855 6022 	ldr.w	r6, [r5, r2, lsl #2]
 8005c7a:	ba35      	rev	r5, r6
 8005c7c:	f841 5022 	str.w	r5, [r1, r2, lsl #2]
 8005c80:	1c52      	adds	r2, r2, #1
 8005c82:	429a      	cmp	r2, r3
 8005c84:	d3f5      	bcc.n	8005c72 <cmox_md_copyLastState_small+0xe>
 8005c86:	2200      	movs	r2, #0
 8005c88:	e00b      	b.n	8005ca2 <cmox_md_copyLastState_small+0x3e>
 8005c8a:	f100 055c 	add.w	r5, r0, #92	; 0x5c
 8005c8e:	eb02 0783 	add.w	r7, r2, r3, lsl #2
 8005c92:	f855 6023 	ldr.w	r6, [r5, r3, lsl #2]
 8005c96:	00d5      	lsls	r5, r2, #3
 8005c98:	f1c5 0518 	rsb	r5, r5, #24
 8005c9c:	40ee      	lsrs	r6, r5
 8005c9e:	55ce      	strb	r6, [r1, r7]
 8005ca0:	1c52      	adds	r2, r2, #1
 8005ca2:	42a2      	cmp	r2, r4
 8005ca4:	d3f1      	bcc.n	8005c8a <cmox_md_copyLastState_small+0x26>
 8005ca6:	bdf0      	pop	{r4, r5, r6, r7, pc}

08005ca8 <cmox_md_padMsgLen_small>:
 8005ca8:	b530      	push	{r4, r5, lr}
 8005caa:	68c4      	ldr	r4, [r0, #12]
 8005cac:	6903      	ldr	r3, [r0, #16]
 8005cae:	2200      	movs	r2, #0
 8005cb0:	1ae3      	subs	r3, r4, r3
 8005cb2:	18d5      	adds	r5, r2, r3
 8005cb4:	5c8c      	ldrb	r4, [r1, r2]
 8005cb6:	4405      	add	r5, r0
 8005cb8:	1c52      	adds	r2, r2, #1
 8005cba:	2a08      	cmp	r2, #8
 8005cbc:	772c      	strb	r4, [r5, #28]
 8005cbe:	d3f8      	bcc.n	8005cb2 <cmox_md_padMsgLen_small+0xa>
 8005cc0:	bd30      	pop	{r4, r5, pc}

08005cc2 <cmox_md_construct>:
 8005cc2:	6003      	str	r3, [r0, #0]
 8005cc4:	60c1      	str	r1, [r0, #12]
 8005cc6:	6102      	str	r2, [r0, #16]
 8005cc8:	4770      	bx	lr

08005cca <cmox_md_init>:
 8005cca:	b538      	push	{r3, r4, r5, lr}
 8005ccc:	4604      	mov	r4, r0
 8005cce:	4615      	mov	r5, r2
 8005cd0:	2200      	movs	r2, #0
 8005cd2:	6062      	str	r2, [r4, #4]
 8005cd4:	6823      	ldr	r3, [r4, #0]
 8005cd6:	685a      	ldr	r2, [r3, #4]
 8005cd8:	4790      	blx	r2
 8005cda:	2000      	movs	r0, #0
 8005cdc:	6160      	str	r0, [r4, #20]
 8005cde:	61a0      	str	r0, [r4, #24]
 8005ce0:	60a5      	str	r5, [r4, #8]
 8005ce2:	f44f 3000 	mov.w	r0, #131072	; 0x20000
 8005ce6:	bd32      	pop	{r1, r4, r5, pc}

08005ce8 <cmox_md_setTagSize>:
 8005ce8:	6081      	str	r1, [r0, #8]
 8005cea:	f44f 3000 	mov.w	r0, #131072	; 0x20000
 8005cee:	4770      	bx	lr

08005cf0 <cmox_md_append>:
 8005cf0:	e92d 43f8 	stmdb	sp!, {r3, r4, r5, r6, r7, r8, r9, lr}
 8005cf4:	4604      	mov	r4, r0
 8005cf6:	7920      	ldrb	r0, [r4, #4]
 8005cf8:	f8d4 800c 	ldr.w	r8, [r4, #12]
 8005cfc:	0745      	lsls	r5, r0, #29
 8005cfe:	bf48      	it	mi
 8005d00:	4824      	ldrmi	r0, [pc, #144]	; (8005d94 <cmox_md_append+0xa4>)
 8005d02:	d445      	bmi.n	8005d90 <cmox_md_append+0xa0>
 8005d04:	6966      	ldr	r6, [r4, #20]
 8005d06:	461d      	mov	r5, r3
 8005d08:	f1a8 0001 	sub.w	r0, r8, #1
 8005d0c:	ea00 03d6 	and.w	r3, r0, r6, lsr #3
 8005d10:	eb06 06c5 	add.w	r6, r6, r5, lsl #3
 8005d14:	ebb6 0fc5 	cmp.w	r6, r5, lsl #3
 8005d18:	6166      	str	r6, [r4, #20]
 8005d1a:	d202      	bcs.n	8005d22 <cmox_md_append+0x32>
 8005d1c:	69a6      	ldr	r6, [r4, #24]
 8005d1e:	1c76      	adds	r6, r6, #1
 8005d20:	61a6      	str	r6, [r4, #24]
 8005d22:	4617      	mov	r7, r2
 8005d24:	69a6      	ldr	r6, [r4, #24]
 8005d26:	eb06 7655 	add.w	r6, r6, r5, lsr #29
 8005d2a:	61a6      	str	r6, [r4, #24]
 8005d2c:	460e      	mov	r6, r1
 8005d2e:	18e9      	adds	r1, r5, r3
 8005d30:	4288      	cmp	r0, r1
 8005d32:	d225      	bcs.n	8005d80 <cmox_md_append+0x90>
 8005d34:	eba8 0903 	sub.w	r9, r8, r3
 8005d38:	464a      	mov	r2, r9
 8005d3a:	4631      	mov	r1, r6
 8005d3c:	18f8      	adds	r0, r7, r3
 8005d3e:	f003 faa8 	bl	8009292 <__aeabi_memcpy>
 8005d42:	6822      	ldr	r2, [r4, #0]
 8005d44:	6813      	ldr	r3, [r2, #0]
 8005d46:	4639      	mov	r1, r7
 8005d48:	e00f      	b.n	8005d6a <cmox_md_append+0x7a>
 8005d4a:	4642      	mov	r2, r8
 8005d4c:	4638      	mov	r0, r7
 8005d4e:	f003 faa0 	bl	8009292 <__aeabi_memcpy>
 8005d52:	6823      	ldr	r3, [r4, #0]
 8005d54:	681a      	ldr	r2, [r3, #0]
 8005d56:	4639      	mov	r1, r7
 8005d58:	4620      	mov	r0, r4
 8005d5a:	4790      	blx	r2
 8005d5c:	e007      	b.n	8005d6e <cmox_md_append+0x7e>
 8005d5e:	1831      	adds	r1, r6, r0
 8005d60:	f011 0003 	ands.w	r0, r1, #3
 8005d64:	d1f1      	bne.n	8005d4a <cmox_md_append+0x5a>
 8005d66:	6822      	ldr	r2, [r4, #0]
 8005d68:	6813      	ldr	r3, [r2, #0]
 8005d6a:	4620      	mov	r0, r4
 8005d6c:	4798      	blx	r3
 8005d6e:	4648      	mov	r0, r9
 8005d70:	eb00 0908 	add.w	r9, r0, r8
 8005d74:	f1a9 0101 	sub.w	r1, r9, #1
 8005d78:	42a9      	cmp	r1, r5
 8005d7a:	d3f0      	bcc.n	8005d5e <cmox_md_append+0x6e>
 8005d7c:	2300      	movs	r3, #0
 8005d7e:	e000      	b.n	8005d82 <cmox_md_append+0x92>
 8005d80:	2000      	movs	r0, #0
 8005d82:	1a2a      	subs	r2, r5, r0
 8005d84:	1831      	adds	r1, r6, r0
 8005d86:	18f8      	adds	r0, r7, r3
 8005d88:	f003 fa83 	bl	8009292 <__aeabi_memcpy>
 8005d8c:	f44f 3000 	mov.w	r0, #131072	; 0x20000
 8005d90:	e8bd 83f2 	ldmia.w	sp!, {r1, r4, r5, r6, r7, r8, r9, pc}
 8005d94:	00020004 	.word	0x00020004

08005d98 <cmox_md_generateTag>:
 8005d98:	e92d 4ffc 	stmdb	sp!, {r2, r3, r4, r5, r6, r7, r8, r9, sl, fp, lr}
 8005d9c:	4602      	mov	r2, r0
 8005d9e:	b085      	sub	sp, #20
 8005da0:	68d0      	ldr	r0, [r2, #12]
 8005da2:	6913      	ldr	r3, [r2, #16]
 8005da4:	f8df c16c 	ldr.w	ip, [pc, #364]	; 8005f14 <cmox_md_generateTag+0x17c>
 8005da8:	f8df 816c 	ldr.w	r8, [pc, #364]	; 8005f18 <cmox_md_generateTag+0x180>
 8005dac:	eba0 0a03 	sub.w	sl, r0, r3
 8005db0:	6850      	ldr	r0, [r2, #4]
 8005db2:	f040 0004 	orr.w	r0, r0, #4
 8005db6:	6050      	str	r0, [r2, #4]
 8005db8:	2700      	movs	r7, #0
 8005dba:	a803      	add	r0, sp, #12
 8005dbc:	9002      	str	r0, [sp, #8]
 8005dbe:	f10d 0e0c 	add.w	lr, sp, #12
 8005dc2:	e9d8 3400 	ldrd	r3, r4, [r8]
 8005dc6:	a803      	add	r0, sp, #12
 8005dc8:	4d54      	ldr	r5, [pc, #336]	; (8005f1c <cmox_md_generateTag+0x184>)
 8005dca:	e9c0 3400 	strd	r3, r4, [r0]
 8005dce:	7828      	ldrb	r0, [r5, #0]
 8005dd0:	4d53      	ldr	r5, [pc, #332]	; (8005f20 <cmox_md_generateTag+0x188>)
 8005dd2:	2800      	cmp	r0, #0
 8005dd4:	bf0c      	ite	eq
 8005dd6:	2300      	moveq	r3, #0
 8005dd8:	2304      	movne	r3, #4
 8005dda:	4699      	mov	r9, r3
 8005ddc:	f85c 3003 	ldr.w	r3, [ip, r3]
 8005de0:	f85e 4009 	ldr.w	r4, [lr, r9]
 8005de4:	4423      	add	r3, r4
 8005de6:	2601      	movs	r6, #1
 8005de8:	601d      	str	r5, [r3, #0]
 8005dea:	681c      	ldr	r4, [r3, #0]
 8005dec:	609e      	str	r6, [r3, #8]
 8005dee:	f8dc 3004 	ldr.w	r3, [ip, #4]
 8005df2:	9d03      	ldr	r5, [sp, #12]
 8005df4:	f8dc 9000 	ldr.w	r9, [ip]
 8005df8:	f8de 6004 	ldr.w	r6, [lr, #4]
 8005dfc:	405d      	eors	r5, r3
 8005dfe:	4065      	eors	r5, r4
 8005e00:	4c48      	ldr	r4, [pc, #288]	; (8005f24 <cmox_md_generateTag+0x18c>)
 8005e02:	4065      	eors	r5, r4
 8005e04:	ea89 0606 	eor.w	r6, r9, r6
 8005e08:	4c47      	ldr	r4, [pc, #284]	; (8005f28 <cmox_md_generateTag+0x190>)
 8005e0a:	4066      	eors	r6, r4
 8005e0c:	1975      	adds	r5, r6, r5
 8005e0e:	4c47      	ldr	r4, [pc, #284]	; (8005f2c <cmox_md_generateTag+0x194>)
 8005e10:	4065      	eors	r5, r4
 8005e12:	e9d8 6b00 	ldrd	r6, fp, [r8]
 8005e16:	ac03      	add	r4, sp, #12
 8005e18:	2800      	cmp	r0, #0
 8005e1a:	e9c4 6b00 	strd	r6, fp, [r4]
 8005e1e:	bf0e      	itee	eq
 8005e20:	2400      	moveq	r4, #0
 8005e22:	2004      	movne	r0, #4
 8005e24:	2404      	movne	r4, #4
 8005e26:	9e02      	ldr	r6, [sp, #8]
 8005e28:	f85c 0000 	ldr.w	r0, [ip, r0]
 8005e2c:	5934      	ldr	r4, [r6, r4]
 8005e2e:	1820      	adds	r0, r4, r0
 8005e30:	4c3f      	ldr	r4, [pc, #252]	; (8005f30 <cmox_md_generateTag+0x198>)
 8005e32:	6004      	str	r4, [r0, #0]
 8005e34:	2601      	movs	r6, #1
 8005e36:	6804      	ldr	r4, [r0, #0]
 8005e38:	6086      	str	r6, [r0, #8]
 8005e3a:	9803      	ldr	r0, [sp, #12]
 8005e3c:	9e02      	ldr	r6, [sp, #8]
 8005e3e:	4043      	eors	r3, r0
 8005e40:	4063      	eors	r3, r4
 8005e42:	4c38      	ldr	r4, [pc, #224]	; (8005f24 <cmox_md_generateTag+0x18c>)
 8005e44:	6870      	ldr	r0, [r6, #4]
 8005e46:	4063      	eors	r3, r4
 8005e48:	ea89 0000 	eor.w	r0, r9, r0
 8005e4c:	4c36      	ldr	r4, [pc, #216]	; (8005f28 <cmox_md_generateTag+0x190>)
 8005e4e:	4060      	eors	r0, r4
 8005e50:	4403      	add	r3, r0
 8005e52:	4838      	ldr	r0, [pc, #224]	; (8005f34 <cmox_md_generateTag+0x19c>)
 8005e54:	4043      	eors	r3, r0
 8005e56:	0028      	movs	r0, r5
 8005e58:	bf18      	it	ne
 8005e5a:	2001      	movne	r0, #1
 8005e5c:	1e5b      	subs	r3, r3, #1
 8005e5e:	419b      	sbcs	r3, r3
 8005e60:	2f04      	cmp	r7, #4
 8005e62:	bf2c      	ite	cs
 8005e64:	b2c0      	uxtbcs	r0, r0
 8005e66:	0fd8      	lsrcc	r0, r3, #31
 8005e68:	f102 0314 	add.w	r3, r2, #20
 8005e6c:	f853 0020 	ldr.w	r0, [r3, r0, lsl #2]
 8005e70:	f007 0303 	and.w	r3, r7, #3
 8005e74:	f1c3 0303 	rsb	r3, r3, #3
 8005e78:	00db      	lsls	r3, r3, #3
 8005e7a:	40d8      	lsrs	r0, r3
 8005e7c:	f80d 0007 	strb.w	r0, [sp, r7]
 8005e80:	1c7f      	adds	r7, r7, #1
 8005e82:	2f08      	cmp	r7, #8
 8005e84:	d39d      	bcc.n	8005dc2 <cmox_md_generateTag+0x2a>
 8005e86:	4615      	mov	r5, r2
 8005e88:	460c      	mov	r4, r1
 8005e8a:	696a      	ldr	r2, [r5, #20]
 8005e8c:	69ab      	ldr	r3, [r5, #24]
 8005e8e:	68e8      	ldr	r0, [r5, #12]
 8005e90:	08d2      	lsrs	r2, r2, #3
 8005e92:	ea42 7243 	orr.w	r2, r2, r3, lsl #29
 8005e96:	1e40      	subs	r0, r0, #1
 8005e98:	ea00 0702 	and.w	r7, r0, r2
 8005e9c:	2300      	movs	r3, #0
 8005e9e:	4002      	ands	r2, r0
 8005ea0:	429b      	cmp	r3, r3
 8005ea2:	d80a      	bhi.n	8005eba <cmox_md_generateTag+0x122>
 8005ea4:	4552      	cmp	r2, sl
 8005ea6:	d208      	bcs.n	8005eba <cmox_md_generateTag+0x122>
 8005ea8:	2080      	movs	r0, #128	; 0x80
 8005eaa:	55e0      	strb	r0, [r4, r7]
 8005eac:	1c7f      	adds	r7, r7, #1
 8005eae:	4557      	cmp	r7, sl
 8005eb0:	d216      	bcs.n	8005ee0 <cmox_md_generateTag+0x148>
 8005eb2:	ebaa 0107 	sub.w	r1, sl, r7
 8005eb6:	19e0      	adds	r0, r4, r7
 8005eb8:	e010      	b.n	8005edc <cmox_md_generateTag+0x144>
 8005eba:	2080      	movs	r0, #128	; 0x80
 8005ebc:	55e0      	strb	r0, [r4, r7]
 8005ebe:	e000      	b.n	8005ec2 <cmox_md_generateTag+0x12a>
 8005ec0:	55e3      	strb	r3, [r4, r7]
 8005ec2:	68e8      	ldr	r0, [r5, #12]
 8005ec4:	1c7f      	adds	r7, r7, #1
 8005ec6:	4287      	cmp	r7, r0
 8005ec8:	d3fa      	bcc.n	8005ec0 <cmox_md_generateTag+0x128>
 8005eca:	682a      	ldr	r2, [r5, #0]
 8005ecc:	6813      	ldr	r3, [r2, #0]
 8005ece:	4628      	mov	r0, r5
 8005ed0:	4798      	blx	r3
 8005ed2:	f1ba 0f00 	cmp.w	sl, #0
 8005ed6:	d003      	beq.n	8005ee0 <cmox_md_generateTag+0x148>
 8005ed8:	4651      	mov	r1, sl
 8005eda:	4620      	mov	r0, r4
 8005edc:	f003 f9d6 	bl	800928c <__aeabi_memclr>
 8005ee0:	682a      	ldr	r2, [r5, #0]
 8005ee2:	9e06      	ldr	r6, [sp, #24]
 8005ee4:	9f05      	ldr	r7, [sp, #20]
 8005ee6:	6893      	ldr	r3, [r2, #8]
 8005ee8:	4669      	mov	r1, sp
 8005eea:	4628      	mov	r0, r5
 8005eec:	4798      	blx	r3
 8005eee:	682a      	ldr	r2, [r5, #0]
 8005ef0:	f8d2 9000 	ldr.w	r9, [r2]
 8005ef4:	4621      	mov	r1, r4
 8005ef6:	4628      	mov	r0, r5
 8005ef8:	47c8      	blx	r9
 8005efa:	682b      	ldr	r3, [r5, #0]
 8005efc:	68da      	ldr	r2, [r3, #12]
 8005efe:	4639      	mov	r1, r7
 8005f00:	4628      	mov	r0, r5
 8005f02:	4790      	blx	r2
 8005f04:	b10e      	cbz	r6, 8005f0a <cmox_md_generateTag+0x172>
 8005f06:	68a8      	ldr	r0, [r5, #8]
 8005f08:	6030      	str	r0, [r6, #0]
 8005f0a:	f44f 3000 	mov.w	r0, #131072	; 0x20000
 8005f0e:	b007      	add	sp, #28
 8005f10:	e8bd 8ff0 	ldmia.w	sp!, {r4, r5, r6, r7, r8, r9, sl, fp, pc}
 8005f14:	08009748 	.word	0x08009748
 8005f18:	08005f38 	.word	0x08005f38
 8005f1c:	20000028 	.word	0x20000028
 8005f20:	9310c55f 	.word	0x9310c55f
 8005f24:	12008504 	.word	0x12008504
 8005f28:	7a0168fc 	.word	0x7a0168fc
 8005f2c:	ff24f5c0 	.word	0xff24f5c0
 8005f30:	d433af24 	.word	0xd433af24
 8005f34:	8b69af26 	.word	0x8b69af26
 8005f38:	0101b004 	.word	0x0101b004
 8005f3c:	45011700 	.word	0x45011700

08005f40 <cmox_aesSmall_keySchedule>:
 8005f40:	e92d 41f0 	stmdb	sp!, {r4, r5, r6, r7, r8, lr}
 8005f44:	f100 050c 	add.w	r5, r0, #12
 8005f48:	2400      	movs	r4, #0
 8005f4a:	0892      	lsrs	r2, r2, #2
 8005f4c:	4b3d      	ldr	r3, [pc, #244]	; (8006044 <cmox_aesSmall_keySchedule+0x104>)
 8005f4e:	2000      	movs	r0, #0
 8005f50:	e005      	b.n	8005f5e <cmox_aesSmall_keySchedule+0x1e>
 8005f52:	f851 6020 	ldr.w	r6, [r1, r0, lsl #2]
 8005f56:	ba36      	rev	r6, r6
 8005f58:	f845 6020 	str.w	r6, [r5, r0, lsl #2]
 8005f5c:	1c40      	adds	r0, r0, #1
 8005f5e:	4290      	cmp	r0, r2
 8005f60:	d3f7      	bcc.n	8005f52 <cmox_aesSmall_keySchedule+0x12>
 8005f62:	eb05 0882 	add.w	r8, r5, r2, lsl #2
 8005f66:	4f38      	ldr	r7, [pc, #224]	; (8006048 <cmox_aesSmall_keySchedule+0x108>)
 8005f68:	f858 0c04 	ldr.w	r0, [r8, #-4]
 8005f6c:	f8d5 c000 	ldr.w	ip, [r5]
 8005f70:	0406      	lsls	r6, r0, #16
 8005f72:	0201      	lsls	r1, r0, #8
 8005f74:	0e36      	lsrs	r6, r6, #24
 8005f76:	0e09      	lsrs	r1, r1, #24
 8005f78:	5dbe      	ldrb	r6, [r7, r6]
 8005f7a:	5c79      	ldrb	r1, [r7, r1]
 8005f7c:	0436      	lsls	r6, r6, #16
 8005f7e:	ea46 6601 	orr.w	r6, r6, r1, lsl #24
 8005f82:	b2c1      	uxtb	r1, r0
 8005f84:	0e00      	lsrs	r0, r0, #24
 8005f86:	5c79      	ldrb	r1, [r7, r1]
 8005f88:	ea46 2601 	orr.w	r6, r6, r1, lsl #8
 8005f8c:	5c39      	ldrb	r1, [r7, r0]
 8005f8e:	ea41 0006 	orr.w	r0, r1, r6
 8005f92:	4e2e      	ldr	r6, [pc, #184]	; (800604c <cmox_aesSmall_keySchedule+0x10c>)
 8005f94:	ea80 010c 	eor.w	r1, r0, ip
 8005f98:	f856 0024 	ldr.w	r0, [r6, r4, lsl #2]
 8005f9c:	4048      	eors	r0, r1
 8005f9e:	f845 0022 	str.w	r0, [r5, r2, lsl #2]
 8005fa2:	1c64      	adds	r4, r4, #1
 8005fa4:	2001      	movs	r0, #1
 8005fa6:	1f2e      	subs	r6, r5, #4
 8005fa8:	1881      	adds	r1, r0, r2
 8005faa:	f856 6021 	ldr.w	r6, [r6, r1, lsl #2]
 8005fae:	f855 c020 	ldr.w	ip, [r5, r0, lsl #2]
 8005fb2:	ea8c 0606 	eor.w	r6, ip, r6
 8005fb6:	1c40      	adds	r0, r0, #1
 8005fb8:	f845 6021 	str.w	r6, [r5, r1, lsl #2]
 8005fbc:	2804      	cmp	r0, #4
 8005fbe:	d3f2      	bcc.n	8005fa6 <cmox_aesSmall_keySchedule+0x66>
 8005fc0:	2a04      	cmp	r2, #4
 8005fc2:	d004      	beq.n	8005fce <cmox_aesSmall_keySchedule+0x8e>
 8005fc4:	2a06      	cmp	r2, #6
 8005fc6:	d00b      	beq.n	8005fe0 <cmox_aesSmall_keySchedule+0xa0>
 8005fc8:	2a08      	cmp	r2, #8
 8005fca:	d014      	beq.n	8005ff6 <cmox_aesSmall_keySchedule+0xb6>
 8005fcc:	e037      	b.n	800603e <cmox_aesSmall_keySchedule+0xfe>
 8005fce:	2c0a      	cmp	r4, #10
 8005fd0:	d204      	bcs.n	8005fdc <cmox_aesSmall_keySchedule+0x9c>
 8005fd2:	f5b3 3f80 	cmp.w	r3, #65536	; 0x10000
 8005fd6:	d001      	beq.n	8005fdc <cmox_aesSmall_keySchedule+0x9c>
 8005fd8:	4645      	mov	r5, r8
 8005fda:	e7c2      	b.n	8005f62 <cmox_aesSmall_keySchedule+0x22>
 8005fdc:	e8bd 81f0 	ldmia.w	sp!, {r4, r5, r6, r7, r8, pc}
 8005fe0:	2c07      	cmp	r4, #7
 8005fe2:	d8fb      	bhi.n	8005fdc <cmox_aesSmall_keySchedule+0x9c>
 8005fe4:	6a6f      	ldr	r7, [r5, #36]	; 0x24
 8005fe6:	6928      	ldr	r0, [r5, #16]
 8005fe8:	4047      	eors	r7, r0
 8005fea:	62af      	str	r7, [r5, #40]	; 0x28
 8005fec:	6968      	ldr	r0, [r5, #20]
 8005fee:	ea80 0107 	eor.w	r1, r0, r7
 8005ff2:	62e9      	str	r1, [r5, #44]	; 0x2c
 8005ff4:	e7ed      	b.n	8005fd2 <cmox_aesSmall_keySchedule+0x92>
 8005ff6:	2c07      	cmp	r4, #7
 8005ff8:	d2f0      	bcs.n	8005fdc <cmox_aesSmall_keySchedule+0x9c>
 8005ffa:	6ae8      	ldr	r0, [r5, #44]	; 0x2c
 8005ffc:	6929      	ldr	r1, [r5, #16]
 8005ffe:	0e06      	lsrs	r6, r0, #24
 8006000:	f817 e006 	ldrb.w	lr, [r7, r6]
 8006004:	0206      	lsls	r6, r0, #8
 8006006:	0e36      	lsrs	r6, r6, #24
 8006008:	5dbe      	ldrb	r6, [r7, r6]
 800600a:	0436      	lsls	r6, r6, #16
 800600c:	ea46 6c0e 	orr.w	ip, r6, lr, lsl #24
 8006010:	0406      	lsls	r6, r0, #16
 8006012:	ea4f 6e16 	mov.w	lr, r6, lsr #24
 8006016:	b2c0      	uxtb	r0, r0
 8006018:	f817 600e 	ldrb.w	r6, [r7, lr]
 800601c:	5c38      	ldrb	r0, [r7, r0]
 800601e:	ea4c 2606 	orr.w	r6, ip, r6, lsl #8
 8006022:	4330      	orrs	r0, r6
 8006024:	4041      	eors	r1, r0
 8006026:	6329      	str	r1, [r5, #48]	; 0x30
 8006028:	2005      	movs	r0, #5
 800602a:	eb05 0180 	add.w	r1, r5, r0, lsl #2
 800602e:	69cf      	ldr	r7, [r1, #28]
 8006030:	680e      	ldr	r6, [r1, #0]
 8006032:	1c40      	adds	r0, r0, #1
 8006034:	4077      	eors	r7, r6
 8006036:	2807      	cmp	r0, #7
 8006038:	620f      	str	r7, [r1, #32]
 800603a:	d9f6      	bls.n	800602a <cmox_aesSmall_keySchedule+0xea>
 800603c:	e7c9      	b.n	8005fd2 <cmox_aesSmall_keySchedule+0x92>
 800603e:	f04f 1301 	mov.w	r3, #65537	; 0x10001
 8006042:	e7c9      	b.n	8005fd8 <cmox_aesSmall_keySchedule+0x98>
 8006044:	00010004 	.word	0x00010004
 8006048:	08009fd4 	.word	0x08009fd4
 800604c:	080098cc 	.word	0x080098cc

08006050 <__aeabi_memset>:
 8006050:	b470      	push	{r4, r5, r6}
 8006052:	0784      	lsls	r4, r0, #30
 8006054:	d046      	beq.n	80060e4 <__aeabi_memset+0x94>
 8006056:	1e4c      	subs	r4, r1, #1
 8006058:	2900      	cmp	r1, #0
 800605a:	d041      	beq.n	80060e0 <__aeabi_memset+0x90>
 800605c:	b2d5      	uxtb	r5, r2
 800605e:	4603      	mov	r3, r0
 8006060:	e002      	b.n	8006068 <__aeabi_memset+0x18>
 8006062:	1e61      	subs	r1, r4, #1
 8006064:	b3e4      	cbz	r4, 80060e0 <__aeabi_memset+0x90>
 8006066:	460c      	mov	r4, r1
 8006068:	f803 5b01 	strb.w	r5, [r3], #1
 800606c:	0799      	lsls	r1, r3, #30
 800606e:	d1f8      	bne.n	8006062 <__aeabi_memset+0x12>
 8006070:	2c03      	cmp	r4, #3
 8006072:	d92e      	bls.n	80060d2 <__aeabi_memset+0x82>
 8006074:	b2d5      	uxtb	r5, r2
 8006076:	ea45 2505 	orr.w	r5, r5, r5, lsl #8
 800607a:	2c0f      	cmp	r4, #15
 800607c:	ea45 4505 	orr.w	r5, r5, r5, lsl #16
 8006080:	d919      	bls.n	80060b6 <__aeabi_memset+0x66>
 8006082:	4626      	mov	r6, r4
 8006084:	f103 0110 	add.w	r1, r3, #16
 8006088:	3e10      	subs	r6, #16
 800608a:	2e0f      	cmp	r6, #15
 800608c:	f841 5c10 	str.w	r5, [r1, #-16]
 8006090:	f841 5c0c 	str.w	r5, [r1, #-12]
 8006094:	f841 5c08 	str.w	r5, [r1, #-8]
 8006098:	f841 5c04 	str.w	r5, [r1, #-4]
 800609c:	f101 0110 	add.w	r1, r1, #16
 80060a0:	d8f2      	bhi.n	8006088 <__aeabi_memset+0x38>
 80060a2:	f1a4 0110 	sub.w	r1, r4, #16
 80060a6:	f021 010f 	bic.w	r1, r1, #15
 80060aa:	f004 040f 	and.w	r4, r4, #15
 80060ae:	3110      	adds	r1, #16
 80060b0:	2c03      	cmp	r4, #3
 80060b2:	440b      	add	r3, r1
 80060b4:	d90d      	bls.n	80060d2 <__aeabi_memset+0x82>
 80060b6:	461e      	mov	r6, r3
 80060b8:	4621      	mov	r1, r4
 80060ba:	3904      	subs	r1, #4
 80060bc:	2903      	cmp	r1, #3
 80060be:	f846 5b04 	str.w	r5, [r6], #4
 80060c2:	d8fa      	bhi.n	80060ba <__aeabi_memset+0x6a>
 80060c4:	1f21      	subs	r1, r4, #4
 80060c6:	f021 0103 	bic.w	r1, r1, #3
 80060ca:	3104      	adds	r1, #4
 80060cc:	440b      	add	r3, r1
 80060ce:	f004 0403 	and.w	r4, r4, #3
 80060d2:	b12c      	cbz	r4, 80060e0 <__aeabi_memset+0x90>
 80060d4:	b2d2      	uxtb	r2, r2
 80060d6:	441c      	add	r4, r3
 80060d8:	f803 2b01 	strb.w	r2, [r3], #1
 80060dc:	42a3      	cmp	r3, r4
 80060de:	d1fb      	bne.n	80060d8 <__aeabi_memset+0x88>
 80060e0:	bc70      	pop	{r4, r5, r6}
 80060e2:	4770      	bx	lr
 80060e4:	460c      	mov	r4, r1
 80060e6:	4603      	mov	r3, r0
 80060e8:	e7c2      	b.n	8006070 <__aeabi_memset+0x20>
	...

080060ec <__aeabi_uldivmod>:
 80060ec:	b953      	cbnz	r3, 8006104 <__aeabi_uldivmod+0x18>
 80060ee:	b94a      	cbnz	r2, 8006104 <__aeabi_uldivmod+0x18>
 80060f0:	2900      	cmp	r1, #0
 80060f2:	bf08      	it	eq
 80060f4:	2800      	cmpeq	r0, #0
 80060f6:	bf1c      	itt	ne
 80060f8:	f04f 31ff 	movne.w	r1, #4294967295
 80060fc:	f04f 30ff 	movne.w	r0, #4294967295
 8006100:	f000 b96e 	b.w	80063e0 <__aeabi_idiv0>
 8006104:	f1ad 0c08 	sub.w	ip, sp, #8
 8006108:	e96d ce04 	strd	ip, lr, [sp, #-16]!
 800610c:	f000 f806 	bl	800611c <__udivmoddi4>
 8006110:	f8dd e004 	ldr.w	lr, [sp, #4]
 8006114:	e9dd 2302 	ldrd	r2, r3, [sp, #8]
 8006118:	b004      	add	sp, #16
 800611a:	4770      	bx	lr

0800611c <__udivmoddi4>:
 800611c:	e92d 47f0 	stmdb	sp!, {r4, r5, r6, r7, r8, r9, sl, lr}
 8006120:	9d08      	ldr	r5, [sp, #32]
 8006122:	4604      	mov	r4, r0
 8006124:	468c      	mov	ip, r1
 8006126:	2b00      	cmp	r3, #0
 8006128:	f040 8083 	bne.w	8006232 <__udivmoddi4+0x116>
 800612c:	428a      	cmp	r2, r1
 800612e:	4617      	mov	r7, r2
 8006130:	d947      	bls.n	80061c2 <__udivmoddi4+0xa6>
 8006132:	fab2 f282 	clz	r2, r2
 8006136:	b142      	cbz	r2, 800614a <__udivmoddi4+0x2e>
 8006138:	f1c2 0020 	rsb	r0, r2, #32
 800613c:	fa24 f000 	lsr.w	r0, r4, r0
 8006140:	4091      	lsls	r1, r2
 8006142:	4097      	lsls	r7, r2
 8006144:	ea40 0c01 	orr.w	ip, r0, r1
 8006148:	4094      	lsls	r4, r2
 800614a:	ea4f 4817 	mov.w	r8, r7, lsr #16
 800614e:	0c23      	lsrs	r3, r4, #16
 8006150:	fbbc f6f8 	udiv	r6, ip, r8
 8006154:	fa1f fe87 	uxth.w	lr, r7
 8006158:	fb08 c116 	mls	r1, r8, r6, ip
 800615c:	ea43 4301 	orr.w	r3, r3, r1, lsl #16
 8006160:	fb06 f10e 	mul.w	r1, r6, lr
 8006164:	4299      	cmp	r1, r3
 8006166:	d909      	bls.n	800617c <__udivmoddi4+0x60>
 8006168:	18fb      	adds	r3, r7, r3
 800616a:	f106 30ff 	add.w	r0, r6, #4294967295
 800616e:	f080 8119 	bcs.w	80063a4 <__udivmoddi4+0x288>
 8006172:	4299      	cmp	r1, r3
 8006174:	f240 8116 	bls.w	80063a4 <__udivmoddi4+0x288>
 8006178:	3e02      	subs	r6, #2
 800617a:	443b      	add	r3, r7
 800617c:	1a5b      	subs	r3, r3, r1
 800617e:	b2a4      	uxth	r4, r4
 8006180:	fbb3 f0f8 	udiv	r0, r3, r8
 8006184:	fb08 3310 	mls	r3, r8, r0, r3
 8006188:	ea44 4403 	orr.w	r4, r4, r3, lsl #16
 800618c:	fb00 fe0e 	mul.w	lr, r0, lr
 8006190:	45a6      	cmp	lr, r4
 8006192:	d909      	bls.n	80061a8 <__udivmoddi4+0x8c>
 8006194:	193c      	adds	r4, r7, r4
 8006196:	f100 33ff 	add.w	r3, r0, #4294967295
 800619a:	f080 8105 	bcs.w	80063a8 <__udivmoddi4+0x28c>
 800619e:	45a6      	cmp	lr, r4
 80061a0:	f240 8102 	bls.w	80063a8 <__udivmoddi4+0x28c>
 80061a4:	3802      	subs	r0, #2
 80061a6:	443c      	add	r4, r7
 80061a8:	ea40 4006 	orr.w	r0, r0, r6, lsl #16
 80061ac:	eba4 040e 	sub.w	r4, r4, lr
 80061b0:	2600      	movs	r6, #0
 80061b2:	b11d      	cbz	r5, 80061bc <__udivmoddi4+0xa0>
 80061b4:	40d4      	lsrs	r4, r2
 80061b6:	2300      	movs	r3, #0
 80061b8:	e9c5 4300 	strd	r4, r3, [r5]
 80061bc:	4631      	mov	r1, r6
 80061be:	e8bd 87f0 	ldmia.w	sp!, {r4, r5, r6, r7, r8, r9, sl, pc}
 80061c2:	b902      	cbnz	r2, 80061c6 <__udivmoddi4+0xaa>
 80061c4:	deff      	udf	#255	; 0xff
 80061c6:	fab2 f282 	clz	r2, r2
 80061ca:	2a00      	cmp	r2, #0
 80061cc:	d150      	bne.n	8006270 <__udivmoddi4+0x154>
 80061ce:	1bcb      	subs	r3, r1, r7
 80061d0:	ea4f 4e17 	mov.w	lr, r7, lsr #16
 80061d4:	fa1f f887 	uxth.w	r8, r7
 80061d8:	2601      	movs	r6, #1
 80061da:	fbb3 fcfe 	udiv	ip, r3, lr
 80061de:	0c21      	lsrs	r1, r4, #16
 80061e0:	fb0e 331c 	mls	r3, lr, ip, r3
 80061e4:	ea41 4103 	orr.w	r1, r1, r3, lsl #16
 80061e8:	fb08 f30c 	mul.w	r3, r8, ip
 80061ec:	428b      	cmp	r3, r1
 80061ee:	d907      	bls.n	8006200 <__udivmoddi4+0xe4>
 80061f0:	1879      	adds	r1, r7, r1
 80061f2:	f10c 30ff 	add.w	r0, ip, #4294967295
 80061f6:	d202      	bcs.n	80061fe <__udivmoddi4+0xe2>
 80061f8:	428b      	cmp	r3, r1
 80061fa:	f200 80e9 	bhi.w	80063d0 <__udivmoddi4+0x2b4>
 80061fe:	4684      	mov	ip, r0
 8006200:	1ac9      	subs	r1, r1, r3
 8006202:	b2a3      	uxth	r3, r4
 8006204:	fbb1 f0fe 	udiv	r0, r1, lr
 8006208:	fb0e 1110 	mls	r1, lr, r0, r1
 800620c:	ea43 4401 	orr.w	r4, r3, r1, lsl #16
 8006210:	fb08 f800 	mul.w	r8, r8, r0
 8006214:	45a0      	cmp	r8, r4
 8006216:	d907      	bls.n	8006228 <__udivmoddi4+0x10c>
 8006218:	193c      	adds	r4, r7, r4
 800621a:	f100 33ff 	add.w	r3, r0, #4294967295
 800621e:	d202      	bcs.n	8006226 <__udivmoddi4+0x10a>
 8006220:	45a0      	cmp	r8, r4
 8006222:	f200 80d9 	bhi.w	80063d8 <__udivmoddi4+0x2bc>
 8006226:	4618      	mov	r0, r3
 8006228:	eba4 0408 	sub.w	r4, r4, r8
 800622c:	ea40 400c 	orr.w	r0, r0, ip, lsl #16
 8006230:	e7bf      	b.n	80061b2 <__udivmoddi4+0x96>
 8006232:	428b      	cmp	r3, r1
 8006234:	d909      	bls.n	800624a <__udivmoddi4+0x12e>
 8006236:	2d00      	cmp	r5, #0
 8006238:	f000 80b1 	beq.w	800639e <__udivmoddi4+0x282>
 800623c:	2600      	movs	r6, #0
 800623e:	e9c5 0100 	strd	r0, r1, [r5]
 8006242:	4630      	mov	r0, r6
 8006244:	4631      	mov	r1, r6
 8006246:	e8bd 87f0 	ldmia.w	sp!, {r4, r5, r6, r7, r8, r9, sl, pc}
 800624a:	fab3 f683 	clz	r6, r3
 800624e:	2e00      	cmp	r6, #0
 8006250:	d14a      	bne.n	80062e8 <__udivmoddi4+0x1cc>
 8006252:	428b      	cmp	r3, r1
 8006254:	d302      	bcc.n	800625c <__udivmoddi4+0x140>
 8006256:	4282      	cmp	r2, r0
 8006258:	f200 80b8 	bhi.w	80063cc <__udivmoddi4+0x2b0>
 800625c:	1a84      	subs	r4, r0, r2
 800625e:	eb61 0103 	sbc.w	r1, r1, r3
 8006262:	2001      	movs	r0, #1
 8006264:	468c      	mov	ip, r1
 8006266:	2d00      	cmp	r5, #0
 8006268:	d0a8      	beq.n	80061bc <__udivmoddi4+0xa0>
 800626a:	e9c5 4c00 	strd	r4, ip, [r5]
 800626e:	e7a5      	b.n	80061bc <__udivmoddi4+0xa0>
 8006270:	f1c2 0320 	rsb	r3, r2, #32
 8006274:	fa20 f603 	lsr.w	r6, r0, r3
 8006278:	4097      	lsls	r7, r2
 800627a:	fa01 f002 	lsl.w	r0, r1, r2
 800627e:	ea4f 4e17 	mov.w	lr, r7, lsr #16
 8006282:	40d9      	lsrs	r1, r3
 8006284:	4330      	orrs	r0, r6
 8006286:	0c03      	lsrs	r3, r0, #16
 8006288:	fbb1 f6fe 	udiv	r6, r1, lr
 800628c:	fa1f f887 	uxth.w	r8, r7
 8006290:	fb0e 1116 	mls	r1, lr, r6, r1
 8006294:	ea43 4301 	orr.w	r3, r3, r1, lsl #16
 8006298:	fb06 f108 	mul.w	r1, r6, r8
 800629c:	4299      	cmp	r1, r3
 800629e:	fa04 f402 	lsl.w	r4, r4, r2
 80062a2:	d909      	bls.n	80062b8 <__udivmoddi4+0x19c>
 80062a4:	18fb      	adds	r3, r7, r3
 80062a6:	f106 3cff 	add.w	ip, r6, #4294967295
 80062aa:	f080 808d 	bcs.w	80063c8 <__udivmoddi4+0x2ac>
 80062ae:	4299      	cmp	r1, r3
 80062b0:	f240 808a 	bls.w	80063c8 <__udivmoddi4+0x2ac>
 80062b4:	3e02      	subs	r6, #2
 80062b6:	443b      	add	r3, r7
 80062b8:	1a5b      	subs	r3, r3, r1
 80062ba:	b281      	uxth	r1, r0
 80062bc:	fbb3 f0fe 	udiv	r0, r3, lr
 80062c0:	fb0e 3310 	mls	r3, lr, r0, r3
 80062c4:	ea41 4103 	orr.w	r1, r1, r3, lsl #16
 80062c8:	fb00 f308 	mul.w	r3, r0, r8
 80062cc:	428b      	cmp	r3, r1
 80062ce:	d907      	bls.n	80062e0 <__udivmoddi4+0x1c4>
 80062d0:	1879      	adds	r1, r7, r1
 80062d2:	f100 3cff 	add.w	ip, r0, #4294967295
 80062d6:	d273      	bcs.n	80063c0 <__udivmoddi4+0x2a4>
 80062d8:	428b      	cmp	r3, r1
 80062da:	d971      	bls.n	80063c0 <__udivmoddi4+0x2a4>
 80062dc:	3802      	subs	r0, #2
 80062de:	4439      	add	r1, r7
 80062e0:	1acb      	subs	r3, r1, r3
 80062e2:	ea40 4606 	orr.w	r6, r0, r6, lsl #16
 80062e6:	e778      	b.n	80061da <__udivmoddi4+0xbe>
 80062e8:	f1c6 0c20 	rsb	ip, r6, #32
 80062ec:	fa03 f406 	lsl.w	r4, r3, r6
 80062f0:	fa22 f30c 	lsr.w	r3, r2, ip
 80062f4:	431c      	orrs	r4, r3
 80062f6:	fa20 f70c 	lsr.w	r7, r0, ip
 80062fa:	fa01 f306 	lsl.w	r3, r1, r6
 80062fe:	ea4f 4e14 	mov.w	lr, r4, lsr #16
 8006302:	fa21 f10c 	lsr.w	r1, r1, ip
 8006306:	431f      	orrs	r7, r3
 8006308:	0c3b      	lsrs	r3, r7, #16
 800630a:	fbb1 f9fe 	udiv	r9, r1, lr
 800630e:	fa1f f884 	uxth.w	r8, r4
 8006312:	fb0e 1119 	mls	r1, lr, r9, r1
 8006316:	ea43 4101 	orr.w	r1, r3, r1, lsl #16
 800631a:	fb09 fa08 	mul.w	sl, r9, r8
 800631e:	458a      	cmp	sl, r1
 8006320:	fa02 f206 	lsl.w	r2, r2, r6
 8006324:	fa00 f306 	lsl.w	r3, r0, r6
 8006328:	d908      	bls.n	800633c <__udivmoddi4+0x220>
 800632a:	1861      	adds	r1, r4, r1
 800632c:	f109 30ff 	add.w	r0, r9, #4294967295
 8006330:	d248      	bcs.n	80063c4 <__udivmoddi4+0x2a8>
 8006332:	458a      	cmp	sl, r1
 8006334:	d946      	bls.n	80063c4 <__udivmoddi4+0x2a8>
 8006336:	f1a9 0902 	sub.w	r9, r9, #2
 800633a:	4421      	add	r1, r4
 800633c:	eba1 010a 	sub.w	r1, r1, sl
 8006340:	b2bf      	uxth	r7, r7
 8006342:	fbb1 f0fe 	udiv	r0, r1, lr
 8006346:	fb0e 1110 	mls	r1, lr, r0, r1
 800634a:	ea47 4701 	orr.w	r7, r7, r1, lsl #16
 800634e:	fb00 f808 	mul.w	r8, r0, r8
 8006352:	45b8      	cmp	r8, r7
 8006354:	d907      	bls.n	8006366 <__udivmoddi4+0x24a>
 8006356:	19e7      	adds	r7, r4, r7
 8006358:	f100 31ff 	add.w	r1, r0, #4294967295
 800635c:	d22e      	bcs.n	80063bc <__udivmoddi4+0x2a0>
 800635e:	45b8      	cmp	r8, r7
 8006360:	d92c      	bls.n	80063bc <__udivmoddi4+0x2a0>
 8006362:	3802      	subs	r0, #2
 8006364:	4427      	add	r7, r4
 8006366:	ea40 4009 	orr.w	r0, r0, r9, lsl #16
 800636a:	eba7 0708 	sub.w	r7, r7, r8
 800636e:	fba0 8902 	umull	r8, r9, r0, r2
 8006372:	454f      	cmp	r7, r9
 8006374:	46c6      	mov	lr, r8
 8006376:	4649      	mov	r1, r9
 8006378:	d31a      	bcc.n	80063b0 <__udivmoddi4+0x294>
 800637a:	d017      	beq.n	80063ac <__udivmoddi4+0x290>
 800637c:	b15d      	cbz	r5, 8006396 <__udivmoddi4+0x27a>
 800637e:	ebb3 020e 	subs.w	r2, r3, lr
 8006382:	eb67 0701 	sbc.w	r7, r7, r1
 8006386:	fa07 fc0c 	lsl.w	ip, r7, ip
 800638a:	40f2      	lsrs	r2, r6
 800638c:	ea4c 0202 	orr.w	r2, ip, r2
 8006390:	40f7      	lsrs	r7, r6
 8006392:	e9c5 2700 	strd	r2, r7, [r5]
 8006396:	2600      	movs	r6, #0
 8006398:	4631      	mov	r1, r6
 800639a:	e8bd 87f0 	ldmia.w	sp!, {r4, r5, r6, r7, r8, r9, sl, pc}
 800639e:	462e      	mov	r6, r5
 80063a0:	4628      	mov	r0, r5
 80063a2:	e70b      	b.n	80061bc <__udivmoddi4+0xa0>
 80063a4:	4606      	mov	r6, r0
 80063a6:	e6e9      	b.n	800617c <__udivmoddi4+0x60>
 80063a8:	4618      	mov	r0, r3
 80063aa:	e6fd      	b.n	80061a8 <__udivmoddi4+0x8c>
 80063ac:	4543      	cmp	r3, r8
 80063ae:	d2e5      	bcs.n	800637c <__udivmoddi4+0x260>
 80063b0:	ebb8 0e02 	subs.w	lr, r8, r2
 80063b4:	eb69 0104 	sbc.w	r1, r9, r4
 80063b8:	3801      	subs	r0, #1
 80063ba:	e7df      	b.n	800637c <__udivmoddi4+0x260>
 80063bc:	4608      	mov	r0, r1
 80063be:	e7d2      	b.n	8006366 <__udivmoddi4+0x24a>
 80063c0:	4660      	mov	r0, ip
 80063c2:	e78d      	b.n	80062e0 <__udivmoddi4+0x1c4>
 80063c4:	4681      	mov	r9, r0
 80063c6:	e7b9      	b.n	800633c <__udivmoddi4+0x220>
 80063c8:	4666      	mov	r6, ip
 80063ca:	e775      	b.n	80062b8 <__udivmoddi4+0x19c>
 80063cc:	4630      	mov	r0, r6
 80063ce:	e74a      	b.n	8006266 <__udivmoddi4+0x14a>
 80063d0:	f1ac 0c02 	sub.w	ip, ip, #2
 80063d4:	4439      	add	r1, r7
 80063d6:	e713      	b.n	8006200 <__udivmoddi4+0xe4>
 80063d8:	3802      	subs	r0, #2
 80063da:	443c      	add	r4, r7
 80063dc:	e724      	b.n	8006228 <__udivmoddi4+0x10c>
 80063de:	bf00      	nop

080063e0 <__aeabi_idiv0>:
 80063e0:	4770      	bx	lr
 80063e2:	bf00      	nop

080063e4 <Flash_GetSector>:
/*GLOBALS */
static const uint8_t ACK = BOOT_ACK;
static const uint8_t ERR = BOOT_ERR;
/*INTERNAL HELPER */
static uint32_t Flash_GetSector(uint32_t address)
{
 80063e4:	b480      	push	{r7}
 80063e6:	b083      	sub	sp, #12
 80063e8:	af00      	add	r7, sp, #0
 80063ea:	6078      	str	r0, [r7, #4]
    if (address < 0x08004000) return FLASH_SECTOR_0;
 80063ec:	687b      	ldr	r3, [r7, #4]
 80063ee:	4a18      	ldr	r2, [pc, #96]	; (8006450 <Flash_GetSector+0x6c>)
 80063f0:	4293      	cmp	r3, r2
 80063f2:	d201      	bcs.n	80063f8 <Flash_GetSector+0x14>
 80063f4:	2300      	movs	r3, #0
 80063f6:	e024      	b.n	8006442 <Flash_GetSector+0x5e>
    if (address < 0x08008000) return FLASH_SECTOR_1;
 80063f8:	687b      	ldr	r3, [r7, #4]
 80063fa:	4a16      	ldr	r2, [pc, #88]	; (8006454 <Flash_GetSector+0x70>)
 80063fc:	4293      	cmp	r3, r2
 80063fe:	d201      	bcs.n	8006404 <Flash_GetSector+0x20>
 8006400:	2301      	movs	r3, #1
 8006402:	e01e      	b.n	8006442 <Flash_GetSector+0x5e>
    if (address < 0x0800C000) return FLASH_SECTOR_2;
 8006404:	687b      	ldr	r3, [r7, #4]
 8006406:	4a14      	ldr	r2, [pc, #80]	; (8006458 <Flash_GetSector+0x74>)
 8006408:	4293      	cmp	r3, r2
 800640a:	d201      	bcs.n	8006410 <Flash_GetSector+0x2c>
 800640c:	2302      	movs	r3, #2
 800640e:	e018      	b.n	8006442 <Flash_GetSector+0x5e>
    if (address < 0x08010000) return FLASH_SECTOR_3;
 8006410:	687b      	ldr	r3, [r7, #4]
 8006412:	4a12      	ldr	r2, [pc, #72]	; (800645c <Flash_GetSector+0x78>)
 8006414:	4293      	cmp	r3, r2
 8006416:	d801      	bhi.n	800641c <Flash_GetSector+0x38>
 8006418:	2303      	movs	r3, #3
 800641a:	e012      	b.n	8006442 <Flash_GetSector+0x5e>
    if (address < 0x08020000) return FLASH_SECTOR_4;
 800641c:	687b      	ldr	r3, [r7, #4]
 800641e:	4a10      	ldr	r2, [pc, #64]	; (8006460 <Flash_GetSector+0x7c>)
 8006420:	4293      	cmp	r3, r2
 8006422:	d801      	bhi.n	8006428 <Flash_GetSector+0x44>
 8006424:	2304      	movs	r3, #4
 8006426:	e00c      	b.n	8006442 <Flash_GetSector+0x5e>
    if (address < 0x08040000) return FLASH_SECTOR_5;
 8006428:	687b      	ldr	r3, [r7, #4]
 800642a:	4a0e      	ldr	r2, [pc, #56]	; (8006464 <Flash_GetSector+0x80>)
 800642c:	4293      	cmp	r3, r2
 800642e:	d801      	bhi.n	8006434 <Flash_GetSector+0x50>
 8006430:	2305      	movs	r3, #5
 8006432:	e006      	b.n	8006442 <Flash_GetSector+0x5e>
    if (address < 0x08060000) return FLASH_SECTOR_6;
 8006434:	687b      	ldr	r3, [r7, #4]
 8006436:	4a0c      	ldr	r2, [pc, #48]	; (8006468 <Flash_GetSector+0x84>)
 8006438:	4293      	cmp	r3, r2
 800643a:	d801      	bhi.n	8006440 <Flash_GetSector+0x5c>
 800643c:	2306      	movs	r3, #6
 800643e:	e000      	b.n	8006442 <Flash_GetSector+0x5e>
    return FLASH_SECTOR_7;
 8006440:	2307      	movs	r3, #7
}
 8006442:	4618      	mov	r0, r3
 8006444:	370c      	adds	r7, #12
 8006446:	46bd      	mov	sp, r7
 8006448:	f85d 7b04 	ldr.w	r7, [sp], #4
 800644c:	4770      	bx	lr
 800644e:	bf00      	nop
 8006450:	08004000 	.word	0x08004000
 8006454:	08008000 	.word	0x08008000
 8006458:	0800c000 	.word	0x0800c000
 800645c:	0800ffff 	.word	0x0800ffff
 8006460:	0801ffff 	.word	0x0801ffff
 8006464:	0803ffff 	.word	0x0803ffff
 8006468:	0805ffff 	.word	0x0805ffff

0800646c <UART_ReadExact>:
/* UART */
uint32_t UART_ReadExact(UART_HandleTypeDef *huart, uint8_t *buf, uint32_t len)
{
 800646c:	b580      	push	{r7, lr}
 800646e:	b086      	sub	sp, #24
 8006470:	af00      	add	r7, sp, #0
 8006472:	60f8      	str	r0, [r7, #12]
 8006474:	60b9      	str	r1, [r7, #8]
 8006476:	607a      	str	r2, [r7, #4]
    uint32_t received = 0;
 8006478:	2300      	movs	r3, #0
 800647a:	617b      	str	r3, [r7, #20]
    while (received < len)
 800647c:	e00e      	b.n	800649c <UART_ReadExact+0x30>
    {
        if (HAL_UART_Receive(huart, &buf[received], 1, HAL_MAX_DELAY) == HAL_OK)
 800647e:	68ba      	ldr	r2, [r7, #8]
 8006480:	697b      	ldr	r3, [r7, #20]
 8006482:	18d1      	adds	r1, r2, r3
 8006484:	f04f 33ff 	mov.w	r3, #4294967295
 8006488:	2201      	movs	r2, #1
 800648a:	68f8      	ldr	r0, [r7, #12]
 800648c:	f002 fb01 	bl	8008a92 <HAL_UART_Receive>
 8006490:	4603      	mov	r3, r0
 8006492:	2b00      	cmp	r3, #0
 8006494:	d102      	bne.n	800649c <UART_ReadExact+0x30>
            received++;
 8006496:	697b      	ldr	r3, [r7, #20]
 8006498:	3301      	adds	r3, #1
 800649a:	617b      	str	r3, [r7, #20]
    while (received < len)
 800649c:	697a      	ldr	r2, [r7, #20]
 800649e:	687b      	ldr	r3, [r7, #4]
 80064a0:	429a      	cmp	r2, r3
 80064a2:	d3ec      	bcc.n	800647e <UART_ReadExact+0x12>
    }
    return received;
 80064a4:	697b      	ldr	r3, [r7, #20]
}
 80064a6:	4618      	mov	r0, r3
 80064a8:	3718      	adds	r7, #24
 80064aa:	46bd      	mov	sp, r7
 80064ac:	bd80      	pop	{r7, pc}
	...

080064b0 <Boot_SendAck>:

void Boot_SendAck(UART_HandleTypeDef *huart)
{
 80064b0:	b580      	push	{r7, lr}
 80064b2:	b082      	sub	sp, #8
 80064b4:	af00      	add	r7, sp, #0
 80064b6:	6078      	str	r0, [r7, #4]
    HAL_UART_Transmit(huart, (uint8_t*)&ACK, 1, HAL_MAX_DELAY);
 80064b8:	f04f 33ff 	mov.w	r3, #4294967295
 80064bc:	2201      	movs	r2, #1
 80064be:	4904      	ldr	r1, [pc, #16]	; (80064d0 <Boot_SendAck+0x20>)
 80064c0:	6878      	ldr	r0, [r7, #4]
 80064c2:	f002 fa54 	bl	800896e <HAL_UART_Transmit>
}
 80064c6:	bf00      	nop
 80064c8:	3708      	adds	r7, #8
 80064ca:	46bd      	mov	sp, r7
 80064cc:	bd80      	pop	{r7, pc}
 80064ce:	bf00      	nop
 80064d0:	080098f4 	.word	0x080098f4

080064d4 <Boot_SendErr>:

void Boot_SendErr(UART_HandleTypeDef *huart)
{
 80064d4:	b580      	push	{r7, lr}
 80064d6:	b082      	sub	sp, #8
 80064d8:	af00      	add	r7, sp, #0
 80064da:	6078      	str	r0, [r7, #4]
    HAL_UART_Transmit(huart, (uint8_t*)&ERR, 1, HAL_MAX_DELAY);
 80064dc:	f04f 33ff 	mov.w	r3, #4294967295
 80064e0:	2201      	movs	r2, #1
 80064e2:	4904      	ldr	r1, [pc, #16]	; (80064f4 <Boot_SendErr+0x20>)
 80064e4:	6878      	ldr	r0, [r7, #4]
 80064e6:	f002 fa42 	bl	800896e <HAL_UART_Transmit>
}
 80064ea:	bf00      	nop
 80064ec:	3708      	adds	r7, #8
 80064ee:	46bd      	mov	sp, r7
 80064f0:	bd80      	pop	{r7, pc}
 80064f2:	bf00      	nop
 80064f4:	080098f5 	.word	0x080098f5

080064f8 <Boot_HandleFlash>:

/*BOOT HANDLE FLASH */
void Boot_HandleFlash(UART_HandleTypeDef *huart)
{
 80064f8:	b580      	push	{r7, lr}
 80064fa:	b08e      	sub	sp, #56	; 0x38
 80064fc:	af02      	add	r7, sp, #8
 80064fe:	6078      	str	r0, [r7, #4]
    /* Step 1: ACK for 'F' command */
    Boot_SendAck(huart);
 8006500:	6878      	ldr	r0, [r7, #4]
 8006502:	f7ff ffd5 	bl	80064b0 <Boot_SendAck>

    /* Step 2: Erase app flash sectors */
    if (Flash_Erase(APP_ADDRESS) != FLASH_OK)
 8006506:	483c      	ldr	r0, [pc, #240]	; (80065f8 <Boot_HandleFlash+0x100>)
 8006508:	f000 f87a 	bl	8006600 <Flash_Erase>
 800650c:	4603      	mov	r3, r0
 800650e:	2b00      	cmp	r3, #0
 8006510:	d003      	beq.n	800651a <Boot_HandleFlash+0x22>
    {
        Boot_SendErr(huart);
 8006512:	6878      	ldr	r0, [r7, #4]
 8006514:	f7ff ffde 	bl	80064d4 <Boot_SendErr>
        return;
 8006518:	e06a      	b.n	80065f0 <Boot_HandleFlash+0xf8>
    }
    Boot_SendAck(huart);
 800651a:	6878      	ldr	r0, [r7, #4]
 800651c:	f7ff ffc8 	bl	80064b0 <Boot_SendAck>

    /* Step 3: Receive IV (12 bytes) */
    uint8_t iv[IV_SIZE];
    UART_ReadExact(huart,iv, IV_SIZE);
 8006520:	f107 0320 	add.w	r3, r7, #32
 8006524:	220c      	movs	r2, #12
 8006526:	4619      	mov	r1, r3
 8006528:	6878      	ldr	r0, [r7, #4]
 800652a:	f7ff ff9f 	bl	800646c <UART_ReadExact>
    Boot_SendAck(huart);
 800652e:	6878      	ldr	r0, [r7, #4]
 8006530:	f7ff ffbe 	bl	80064b0 <Boot_SendAck>
    /* Step 4: Receive Tag (16 bytes) */
    uint8_t tag[TAG_SIZE];
    UART_ReadExact(huart,tag, TAG_SIZE);
 8006534:	f107 0310 	add.w	r3, r7, #16
 8006538:	2210      	movs	r2, #16
 800653a:	4619      	mov	r1, r3
 800653c:	6878      	ldr	r0, [r7, #4]
 800653e:	f7ff ff95 	bl	800646c <UART_ReadExact>
    Boot_SendAck(huart);
 8006542:	6878      	ldr	r0, [r7, #4]
 8006544:	f7ff ffb4 	bl	80064b0 <Boot_SendAck>
    /* Step 5: Receive original size (4 bytes) */
    uint8_t  size_buf[4];
    UART_ReadExact(huart, size_buf, 4);
 8006548:	f107 030c 	add.w	r3, r7, #12
 800654c:	2204      	movs	r2, #4
 800654e:	4619      	mov	r1, r3
 8006550:	6878      	ldr	r0, [r7, #4]
 8006552:	f7ff ff8b 	bl	800646c <UART_ReadExact>
    uint32_t original_size = (uint32_t)size_buf[0]
 8006556:	7b3b      	ldrb	r3, [r7, #12]
 8006558:	461a      	mov	r2, r3
                           | (uint32_t)size_buf[1] << 8
 800655a:	7b7b      	ldrb	r3, [r7, #13]
 800655c:	021b      	lsls	r3, r3, #8
 800655e:	431a      	orrs	r2, r3
                           | (uint32_t)size_buf[2] << 16
 8006560:	7bbb      	ldrb	r3, [r7, #14]
 8006562:	041b      	lsls	r3, r3, #16
 8006564:	431a      	orrs	r2, r3
                           | (uint32_t)size_buf[3] << 24;
 8006566:	7bfb      	ldrb	r3, [r7, #15]
 8006568:	061b      	lsls	r3, r3, #24
    uint32_t original_size = (uint32_t)size_buf[0]
 800656a:	4313      	orrs	r3, r2
 800656c:	62fb      	str	r3, [r7, #44]	; 0x2c
    Boot_SendAck(huart);
 800656e:	6878      	ldr	r0, [r7, #4]
 8006570:	f7ff ff9e 	bl	80064b0 <Boot_SendAck>

    /* Step 6: Stream decompress from UART directly to flash */
    if (!Decrypt_DecomprToFlash(huart, original_size, APP_ADDRESS, iv, tag))
 8006574:	f107 0220 	add.w	r2, r7, #32
 8006578:	f107 0310 	add.w	r3, r7, #16
 800657c:	9300      	str	r3, [sp, #0]
 800657e:	4613      	mov	r3, r2
 8006580:	4a1d      	ldr	r2, [pc, #116]	; (80065f8 <Boot_HandleFlash+0x100>)
 8006582:	6af9      	ldr	r1, [r7, #44]	; 0x2c
 8006584:	6878      	ldr	r0, [r7, #4]
 8006586:	f000 f993 	bl	80068b0 <Decrypt_DecomprToFlash>
 800658a:	4603      	mov	r3, r0
 800658c:	2b00      	cmp	r3, #0
 800658e:	d106      	bne.n	800659e <Boot_HandleFlash+0xa6>
    {

        Boot_SendErr(huart);
 8006590:	6878      	ldr	r0, [r7, #4]
 8006592:	f7ff ff9f 	bl	80064d4 <Boot_SendErr>
        Flash_Erase(APP_ADDRESS);
 8006596:	4818      	ldr	r0, [pc, #96]	; (80065f8 <Boot_HandleFlash+0x100>)
 8006598:	f000 f832 	bl	8006600 <Flash_Erase>
        return;
 800659c:	e028      	b.n	80065f0 <Boot_HandleFlash+0xf8>
    }

    /* Step 7: Receive 64-byte ECDSA signature */
    static uint8_t signature[SIG_SIZE];
    UART_ReadExact(huart, signature, SIG_SIZE);
 800659e:	2240      	movs	r2, #64	; 0x40
 80065a0:	4916      	ldr	r1, [pc, #88]	; (80065fc <Boot_HandleFlash+0x104>)
 80065a2:	6878      	ldr	r0, [r7, #4]
 80065a4:	f7ff ff62 	bl	800646c <UART_ReadExact>
    /* DEBUG */
    uint8_t dbg[4];
    Flash_Read(APP_ADDRESS, dbg, 4);
 80065a8:	f107 0308 	add.w	r3, r7, #8
 80065ac:	2204      	movs	r2, #4
 80065ae:	4619      	mov	r1, r3
 80065b0:	4811      	ldr	r0, [pc, #68]	; (80065f8 <Boot_HandleFlash+0x100>)
 80065b2:	f000 f8ad 	bl	8006710 <Flash_Read>
    HAL_UART_Transmit(huart, dbg, 4, 1000);
 80065b6:	f107 0108 	add.w	r1, r7, #8
 80065ba:	f44f 737a 	mov.w	r3, #1000	; 0x3e8
 80065be:	2204      	movs	r2, #4
 80065c0:	6878      	ldr	r0, [r7, #4]
 80065c2:	f002 f9d4 	bl	800896e <HAL_UART_Transmit>
    /* Step 8: Verify signature against decompressed flashed content */
    if (!Boot_VerifySignature(APP_ADDRESS, original_size, signature))
 80065c6:	4a0d      	ldr	r2, [pc, #52]	; (80065fc <Boot_HandleFlash+0x104>)
 80065c8:	6af9      	ldr	r1, [r7, #44]	; 0x2c
 80065ca:	480b      	ldr	r0, [pc, #44]	; (80065f8 <Boot_HandleFlash+0x100>)
 80065cc:	f000 fd88 	bl	80070e0 <Boot_VerifySignature>
 80065d0:	4603      	mov	r3, r0
 80065d2:	2b00      	cmp	r3, #0
 80065d4:	d106      	bne.n	80065e4 <Boot_HandleFlash+0xec>
    {
        Flash_Erase(APP_ADDRESS);
 80065d6:	4808      	ldr	r0, [pc, #32]	; (80065f8 <Boot_HandleFlash+0x100>)
 80065d8:	f000 f812 	bl	8006600 <Flash_Erase>
        Boot_SendErr(huart);
 80065dc:	6878      	ldr	r0, [r7, #4]
 80065de:	f7ff ff79 	bl	80064d4 <Boot_SendErr>
        return;
 80065e2:	e005      	b.n	80065f0 <Boot_HandleFlash+0xf8>
    }

    /* Step 9: Signature OK — ACK then jump */
    Boot_SendAck(huart);
 80065e4:	6878      	ldr	r0, [r7, #4]
 80065e6:	f7ff ff63 	bl	80064b0 <Boot_SendAck>
    Boot_JumpToApplication(APP_ADDRESS);
 80065ea:	4803      	ldr	r0, [pc, #12]	; (80065f8 <Boot_HandleFlash+0x100>)
 80065ec:	f000 f8b0 	bl	8006750 <Boot_JumpToApplication>
}
 80065f0:	3730      	adds	r7, #48	; 0x30
 80065f2:	46bd      	mov	sp, r7
 80065f4:	bd80      	pop	{r7, pc}
 80065f6:	bf00      	nop
 80065f8:	08020000 	.word	0x08020000
 80065fc:	2000002c 	.word	0x2000002c

08006600 <Flash_Erase>:
/* ERASE FLASH */
FLASH_Status_t Flash_Erase(uint32_t start_address)
{
 8006600:	b580      	push	{r7, lr}
 8006602:	b08c      	sub	sp, #48	; 0x30
 8006604:	af00      	add	r7, sp, #0
 8006606:	6078      	str	r0, [r7, #4]
    FLASH_EraseInitTypeDef erase_init;
    uint32_t first_sector = Flash_GetSector(start_address);
 8006608:	6878      	ldr	r0, [r7, #4]
 800660a:	f7ff feeb 	bl	80063e4 <Flash_GetSector>
 800660e:	62f8      	str	r0, [r7, #44]	; 0x2c
    uint32_t last_sector  = FLASH_SECTOR_7;  // erase until end of flash
 8006610:	2307      	movs	r3, #7
 8006612:	62bb      	str	r3, [r7, #40]	; 0x28
    uint32_t nb_sectors   = last_sector - first_sector + 1;
 8006614:	6aba      	ldr	r2, [r7, #40]	; 0x28
 8006616:	6afb      	ldr	r3, [r7, #44]	; 0x2c
 8006618:	1ad3      	subs	r3, r2, r3
 800661a:	3301      	adds	r3, #1
 800661c:	627b      	str	r3, [r7, #36]	; 0x24
    uint32_t sector_error = 0;
 800661e:	2300      	movs	r3, #0
 8006620:	60fb      	str	r3, [r7, #12]

    HAL_FLASH_Unlock();
 8006622:	f000 ffe3 	bl	80075ec <HAL_FLASH_Unlock>

    erase_init.TypeErase    = FLASH_TYPEERASE_SECTORS;
 8006626:	2300      	movs	r3, #0
 8006628:	613b      	str	r3, [r7, #16]
    erase_init.VoltageRange = FLASH_VOLTAGE_RANGE_3;
 800662a:	2302      	movs	r3, #2
 800662c:	623b      	str	r3, [r7, #32]
    erase_init.Sector       = first_sector;
 800662e:	6afb      	ldr	r3, [r7, #44]	; 0x2c
 8006630:	61bb      	str	r3, [r7, #24]
    erase_init.NbSectors    = nb_sectors;
 8006632:	6a7b      	ldr	r3, [r7, #36]	; 0x24
 8006634:	61fb      	str	r3, [r7, #28]

    if (HAL_FLASHEx_Erase(&erase_init, &sector_error) != HAL_OK)
 8006636:	f107 020c 	add.w	r2, r7, #12
 800663a:	f107 0310 	add.w	r3, r7, #16
 800663e:	4611      	mov	r1, r2
 8006640:	4618      	mov	r0, r3
 8006642:	f001 f945 	bl	80078d0 <HAL_FLASHEx_Erase>
 8006646:	4603      	mov	r3, r0
 8006648:	2b00      	cmp	r3, #0
 800664a:	d003      	beq.n	8006654 <Flash_Erase+0x54>
    {
        HAL_FLASH_Lock();
 800664c:	f000 fff0 	bl	8007630 <HAL_FLASH_Lock>
        return FLASH_ERROR;
 8006650:	2301      	movs	r3, #1
 8006652:	e002      	b.n	800665a <Flash_Erase+0x5a>
    }

    HAL_FLASH_Lock();
 8006654:	f000 ffec 	bl	8007630 <HAL_FLASH_Lock>
    return FLASH_OK;
 8006658:	2300      	movs	r3, #0
}
 800665a:	4618      	mov	r0, r3
 800665c:	3730      	adds	r7, #48	; 0x30
 800665e:	46bd      	mov	sp, r7
 8006660:	bd80      	pop	{r7, pc}

08006662 <Flash_Write>:

/* WRITE FLASH */
FLASH_Status_t Flash_Write(uint32_t address, uint8_t *data, uint32_t length)
{
 8006662:	b580      	push	{r7, lr}
 8006664:	b088      	sub	sp, #32
 8006666:	af00      	add	r7, sp, #0
 8006668:	60f8      	str	r0, [r7, #12]
 800666a:	60b9      	str	r1, [r7, #8]
 800666c:	607a      	str	r2, [r7, #4]
    if (!data) return FLASH_ERROR;
 800666e:	68bb      	ldr	r3, [r7, #8]
 8006670:	2b00      	cmp	r3, #0
 8006672:	d101      	bne.n	8006678 <Flash_Write+0x16>
 8006674:	2301      	movs	r3, #1
 8006676:	e047      	b.n	8006708 <Flash_Write+0xa6>

    HAL_FLASH_Unlock();
 8006678:	f000 ffb8 	bl	80075ec <HAL_FLASH_Unlock>

    uint32_t i = 0;
 800667c:	2300      	movs	r3, #0
 800667e:	61fb      	str	r3, [r7, #28]
    while (i < length)
 8006680:	e03b      	b.n	80066fa <Flash_Write+0x98>
    {
        uint32_t word = 0xFFFFFFFF;
 8006682:	f04f 33ff 	mov.w	r3, #4294967295
 8006686:	61bb      	str	r3, [r7, #24]

        // Copy up to 4 bytes into a 32-bit word
        for (uint8_t b = 0; b < 4 && i < length; b++, i++)
 8006688:	2300      	movs	r3, #0
 800668a:	75fb      	strb	r3, [r7, #23]
 800668c:	e01c      	b.n	80066c8 <Flash_Write+0x66>
        {
            word &= ~(0xFF << (b * 8U));
 800668e:	7dfb      	ldrb	r3, [r7, #23]
 8006690:	00db      	lsls	r3, r3, #3
 8006692:	22ff      	movs	r2, #255	; 0xff
 8006694:	fa02 f303 	lsl.w	r3, r2, r3
 8006698:	43db      	mvns	r3, r3
 800669a:	461a      	mov	r2, r3
 800669c:	69bb      	ldr	r3, [r7, #24]
 800669e:	4013      	ands	r3, r2
 80066a0:	61bb      	str	r3, [r7, #24]
            word |= data[i] << (b * 8U);
 80066a2:	68ba      	ldr	r2, [r7, #8]
 80066a4:	69fb      	ldr	r3, [r7, #28]
 80066a6:	4413      	add	r3, r2
 80066a8:	781b      	ldrb	r3, [r3, #0]
 80066aa:	461a      	mov	r2, r3
 80066ac:	7dfb      	ldrb	r3, [r7, #23]
 80066ae:	00db      	lsls	r3, r3, #3
 80066b0:	fa02 f303 	lsl.w	r3, r2, r3
 80066b4:	461a      	mov	r2, r3
 80066b6:	69bb      	ldr	r3, [r7, #24]
 80066b8:	4313      	orrs	r3, r2
 80066ba:	61bb      	str	r3, [r7, #24]
        for (uint8_t b = 0; b < 4 && i < length; b++, i++)
 80066bc:	7dfb      	ldrb	r3, [r7, #23]
 80066be:	3301      	adds	r3, #1
 80066c0:	75fb      	strb	r3, [r7, #23]
 80066c2:	69fb      	ldr	r3, [r7, #28]
 80066c4:	3301      	adds	r3, #1
 80066c6:	61fb      	str	r3, [r7, #28]
 80066c8:	7dfb      	ldrb	r3, [r7, #23]
 80066ca:	2b03      	cmp	r3, #3
 80066cc:	d803      	bhi.n	80066d6 <Flash_Write+0x74>
 80066ce:	69fa      	ldr	r2, [r7, #28]
 80066d0:	687b      	ldr	r3, [r7, #4]
 80066d2:	429a      	cmp	r2, r3
 80066d4:	d3db      	bcc.n	800668e <Flash_Write+0x2c>
        }

        if (HAL_FLASH_Program(FLASH_TYPEPROGRAM_WORD, address, word) != HAL_OK)
 80066d6:	69bb      	ldr	r3, [r7, #24]
 80066d8:	461a      	mov	r2, r3
 80066da:	f04f 0300 	mov.w	r3, #0
 80066de:	68f9      	ldr	r1, [r7, #12]
 80066e0:	2002      	movs	r0, #2
 80066e2:	f000 ff2f 	bl	8007544 <HAL_FLASH_Program>
 80066e6:	4603      	mov	r3, r0
 80066e8:	2b00      	cmp	r3, #0
 80066ea:	d003      	beq.n	80066f4 <Flash_Write+0x92>
        {
            HAL_FLASH_Lock();
 80066ec:	f000 ffa0 	bl	8007630 <HAL_FLASH_Lock>
            return FLASH_ERROR;
 80066f0:	2301      	movs	r3, #1
 80066f2:	e009      	b.n	8006708 <Flash_Write+0xa6>
        }

        address += 4U;
 80066f4:	68fb      	ldr	r3, [r7, #12]
 80066f6:	3304      	adds	r3, #4
 80066f8:	60fb      	str	r3, [r7, #12]
    while (i < length)
 80066fa:	69fa      	ldr	r2, [r7, #28]
 80066fc:	687b      	ldr	r3, [r7, #4]
 80066fe:	429a      	cmp	r2, r3
 8006700:	d3bf      	bcc.n	8006682 <Flash_Write+0x20>
    }

    HAL_FLASH_Lock();
 8006702:	f000 ff95 	bl	8007630 <HAL_FLASH_Lock>
    return FLASH_OK;
 8006706:	2300      	movs	r3, #0
}
 8006708:	4618      	mov	r0, r3
 800670a:	3720      	adds	r7, #32
 800670c:	46bd      	mov	sp, r7
 800670e:	bd80      	pop	{r7, pc}

08006710 <Flash_Read>:

/* READ FLASH */
FLASH_Status_t Flash_Read(uint32_t address, uint8_t *data, uint32_t length)
{
 8006710:	b480      	push	{r7}
 8006712:	b087      	sub	sp, #28
 8006714:	af00      	add	r7, sp, #0
 8006716:	60f8      	str	r0, [r7, #12]
 8006718:	60b9      	str	r1, [r7, #8]
 800671a:	607a      	str	r2, [r7, #4]
    for (uint32_t i = 0; i < length; i++)
 800671c:	2300      	movs	r3, #0
 800671e:	617b      	str	r3, [r7, #20]
 8006720:	e00b      	b.n	800673a <Flash_Read+0x2a>
    {
        data[i] = *((uint8_t *)address++);
 8006722:	68fb      	ldr	r3, [r7, #12]
 8006724:	1c5a      	adds	r2, r3, #1
 8006726:	60fa      	str	r2, [r7, #12]
 8006728:	4619      	mov	r1, r3
 800672a:	68ba      	ldr	r2, [r7, #8]
 800672c:	697b      	ldr	r3, [r7, #20]
 800672e:	4413      	add	r3, r2
 8006730:	780a      	ldrb	r2, [r1, #0]
 8006732:	701a      	strb	r2, [r3, #0]
    for (uint32_t i = 0; i < length; i++)
 8006734:	697b      	ldr	r3, [r7, #20]
 8006736:	3301      	adds	r3, #1
 8006738:	617b      	str	r3, [r7, #20]
 800673a:	697a      	ldr	r2, [r7, #20]
 800673c:	687b      	ldr	r3, [r7, #4]
 800673e:	429a      	cmp	r2, r3
 8006740:	d3ef      	bcc.n	8006722 <Flash_Read+0x12>
    }
    return FLASH_OK;
 8006742:	2300      	movs	r3, #0
}
 8006744:	4618      	mov	r0, r3
 8006746:	371c      	adds	r7, #28
 8006748:	46bd      	mov	sp, r7
 800674a:	f85d 7b04 	ldr.w	r7, [sp], #4
 800674e:	4770      	bx	lr

08006750 <Boot_JumpToApplication>:
    uint32_t     Initial_SP;
    void        (*Reset_Handler)(void);
} AppVecTable_t;

void Boot_JumpToApplication(uint32_t app_address)
{
 8006750:	b580      	push	{r7, lr}
 8006752:	b086      	sub	sp, #24
 8006754:	af00      	add	r7, sp, #0
 8006756:	6078      	str	r0, [r7, #4]
    AppVecTable_t *app = (AppVecTable_t *)app_address;
 8006758:	687b      	ldr	r3, [r7, #4]
 800675a:	613b      	str	r3, [r7, #16]
  \details Disables IRQ interrupts by setting the I-bit in the CPSR.
           Can only be executed in Privileged modes.
 */
__STATIC_FORCEINLINE void __disable_irq(void)
{
  __ASM volatile ("cpsid i" : : : "memory");
 800675c:	b672      	cpsid	i
}
 800675e:	bf00      	nop

    __disable_irq();
    SysTick->CTRL = 0;
 8006760:	4b15      	ldr	r3, [pc, #84]	; (80067b8 <Boot_JumpToApplication+0x68>)
 8006762:	2200      	movs	r2, #0
 8006764:	601a      	str	r2, [r3, #0]
    HAL_RCC_DeInit();  // keep it — safer for different clock configs
 8006766:	f001 ffe7 	bl	8008738 <HAL_RCC_DeInit>

    // Clear all NVIC registers
    for (uint8_t i = 0; i < sizeof(NVIC->ICER)/sizeof(NVIC->ICER[0]); i++)
 800676a:	2300      	movs	r3, #0
 800676c:	75fb      	strb	r3, [r7, #23]
 800676e:	e010      	b.n	8006792 <Boot_JumpToApplication+0x42>
    {
        NVIC->ICER[i] = 0xFFFFFFFF;
 8006770:	4a12      	ldr	r2, [pc, #72]	; (80067bc <Boot_JumpToApplication+0x6c>)
 8006772:	7dfb      	ldrb	r3, [r7, #23]
 8006774:	3320      	adds	r3, #32
 8006776:	f04f 31ff 	mov.w	r1, #4294967295
 800677a:	f842 1023 	str.w	r1, [r2, r3, lsl #2]
        NVIC->ICPR[i] = 0xFFFFFFFF;
 800677e:	4a0f      	ldr	r2, [pc, #60]	; (80067bc <Boot_JumpToApplication+0x6c>)
 8006780:	7dfb      	ldrb	r3, [r7, #23]
 8006782:	3360      	adds	r3, #96	; 0x60
 8006784:	f04f 31ff 	mov.w	r1, #4294967295
 8006788:	f842 1023 	str.w	r1, [r2, r3, lsl #2]
    for (uint8_t i = 0; i < sizeof(NVIC->ICER)/sizeof(NVIC->ICER[0]); i++)
 800678c:	7dfb      	ldrb	r3, [r7, #23]
 800678e:	3301      	adds	r3, #1
 8006790:	75fb      	strb	r3, [r7, #23]
 8006792:	7dfb      	ldrb	r3, [r7, #23]
 8006794:	2b07      	cmp	r3, #7
 8006796:	d9eb      	bls.n	8006770 <Boot_JumpToApplication+0x20>
  __ASM volatile ("cpsie i" : : : "memory");
 8006798:	b662      	cpsie	i
}
 800679a:	bf00      	nop
    }

    __enable_irq();
    __set_MSP(app->Initial_SP);
 800679c:	693b      	ldr	r3, [r7, #16]
 800679e:	681b      	ldr	r3, [r3, #0]
 80067a0:	60fb      	str	r3, [r7, #12]
  \details Assigns the given value to the Main Stack Pointer (MSP).
  \param [in]    topOfMainStack  Main Stack Pointer value to set
 */
__STATIC_FORCEINLINE void __set_MSP(uint32_t topOfMainStack)
{
  __ASM volatile ("MSR msp, %0" : : "r" (topOfMainStack) : );
 80067a2:	68fb      	ldr	r3, [r7, #12]
 80067a4:	f383 8808 	msr	MSP, r3
}
 80067a8:	bf00      	nop
    app->Reset_Handler();
 80067aa:	693b      	ldr	r3, [r7, #16]
 80067ac:	685b      	ldr	r3, [r3, #4]
 80067ae:	4798      	blx	r3
}
 80067b0:	bf00      	nop
 80067b2:	3718      	adds	r7, #24
 80067b4:	46bd      	mov	sp, r7
 80067b6:	bd80      	pop	{r7, pc}
 80067b8:	e000e010 	.word	0xe000e010
 80067bc:	e000e100 	.word	0xe000e100

080067c0 <Read_Byte>:
 *         -1  : END marker received.
 *         -2  : chunk size exceeds MAX_CHUNK.
 */

static int8_t Read_Byte(UART_HandleTypeDef *huart, uint8_t *out)
{
 80067c0:	b580      	push	{r7, lr}
 80067c2:	b08a      	sub	sp, #40	; 0x28
 80067c4:	af02      	add	r7, sp, #8
 80067c6:	6078      	str	r0, [r7, #4]
 80067c8:	6039      	str	r1, [r7, #0]
    while (chunk_pos >= chunk_len)
 80067ca:	e051      	b.n	8006870 <Read_Byte+0xb0>
    {
        if (chunk_len > 0)
 80067cc:	4b33      	ldr	r3, [pc, #204]	; (800689c <Read_Byte+0xdc>)
 80067ce:	881b      	ldrh	r3, [r3, #0]
 80067d0:	2b00      	cmp	r3, #0
 80067d2:	d002      	beq.n	80067da <Read_Byte+0x1a>
            Boot_SendAck(huart);
 80067d4:	6878      	ldr	r0, [r7, #4]
 80067d6:	f7ff fe6b 	bl	80064b0 <Boot_SendAck>

        uint8_t  size_buf[2];
        UART_ReadExact(huart, size_buf, 2);
 80067da:	f107 0314 	add.w	r3, r7, #20
 80067de:	2202      	movs	r2, #2
 80067e0:	4619      	mov	r1, r3
 80067e2:	6878      	ldr	r0, [r7, #4]
 80067e4:	f7ff fe42 	bl	800646c <UART_ReadExact>
        uint16_t size = (uint16_t)size_buf[0] | ((uint16_t)size_buf[1] << 8);
 80067e8:	7d3b      	ldrb	r3, [r7, #20]
 80067ea:	b21a      	sxth	r2, r3
 80067ec:	7d7b      	ldrb	r3, [r7, #21]
 80067ee:	021b      	lsls	r3, r3, #8
 80067f0:	b21b      	sxth	r3, r3
 80067f2:	4313      	orrs	r3, r2
 80067f4:	b21b      	sxth	r3, r3
 80067f6:	83fb      	strh	r3, [r7, #30]

        if (size == END_MARKER)
 80067f8:	8bfb      	ldrh	r3, [r7, #30]
 80067fa:	f64f 72ff 	movw	r2, #65535	; 0xffff
 80067fe:	4293      	cmp	r3, r2
 8006800:	d105      	bne.n	800680e <Read_Byte+0x4e>
        {
            Boot_SendAck(huart);
 8006802:	6878      	ldr	r0, [r7, #4]
 8006804:	f7ff fe54 	bl	80064b0 <Boot_SendAck>
            return -1;
 8006808:	f04f 33ff 	mov.w	r3, #4294967295
 800680c:	e042      	b.n	8006894 <Read_Byte+0xd4>
        }

        if (size > MAX_CHUNK)
 800680e:	8bfb      	ldrh	r3, [r7, #30]
 8006810:	2b80      	cmp	r3, #128	; 0x80
 8006812:	d905      	bls.n	8006820 <Read_Byte+0x60>
        {
            Boot_SendErr(huart);
 8006814:	6878      	ldr	r0, [r7, #4]
 8006816:	f7ff fe5d 	bl	80064d4 <Boot_SendErr>
            return -2;
 800681a:	f06f 0301 	mvn.w	r3, #1
 800681e:	e039      	b.n	8006894 <Read_Byte+0xd4>
        }

        Boot_SendAck(huart);
 8006820:	6878      	ldr	r0, [r7, #4]
 8006822:	f7ff fe45 	bl	80064b0 <Boot_SendAck>
        UART_ReadExact(huart, chunk_buf, size);
 8006826:	8bfb      	ldrh	r3, [r7, #30]
 8006828:	461a      	mov	r2, r3
 800682a:	491d      	ldr	r1, [pc, #116]	; (80068a0 <Read_Byte+0xe0>)
 800682c:	6878      	ldr	r0, [r7, #4]
 800682e:	f7ff fe1d 	bl	800646c <UART_ReadExact>

        int32_t out_size = (int32_t)size;
 8006832:	8bfb      	ldrh	r3, [r7, #30]
 8006834:	613b      	str	r3, [r7, #16]
        int32_t append_ret = AES_GCM_Decrypt_Append(&ctx, chunk_buf,
 8006836:	8bfa      	ldrh	r2, [r7, #30]
 8006838:	f107 0310 	add.w	r3, r7, #16
 800683c:	9300      	str	r3, [sp, #0]
 800683e:	4b19      	ldr	r3, [pc, #100]	; (80068a4 <Read_Byte+0xe4>)
 8006840:	4917      	ldr	r1, [pc, #92]	; (80068a0 <Read_Byte+0xe0>)
 8006842:	4819      	ldr	r0, [pc, #100]	; (80068a8 <Read_Byte+0xe8>)
 8006844:	f002 fca0 	bl	8009188 <AES_GCM_Decrypt_Append>
 8006848:	61b8      	str	r0, [r7, #24]
        											(int32_t)size,
													dec_buf,
													&out_size);
        if (append_ret != AES_SUCCESS)
 800684a:	69bb      	ldr	r3, [r7, #24]
 800684c:	2b00      	cmp	r3, #0
 800684e:	d009      	beq.n	8006864 <Read_Byte+0xa4>
        {
            uint8_t dbg = 0xDD;
 8006850:	23dd      	movs	r3, #221	; 0xdd
 8006852:	73fb      	strb	r3, [r7, #15]
            HAL_UART_Transmit(huart, &dbg, 1, 1000);
 8006854:	f107 010f 	add.w	r1, r7, #15
 8006858:	f44f 737a 	mov.w	r3, #1000	; 0x3e8
 800685c:	2201      	movs	r2, #1
 800685e:	6878      	ldr	r0, [r7, #4]
 8006860:	f002 f885 	bl	800896e <HAL_UART_Transmit>
        }
        chunk_len = size;
 8006864:	4a0d      	ldr	r2, [pc, #52]	; (800689c <Read_Byte+0xdc>)
 8006866:	8bfb      	ldrh	r3, [r7, #30]
 8006868:	8013      	strh	r3, [r2, #0]
        chunk_pos = 0;
 800686a:	4b10      	ldr	r3, [pc, #64]	; (80068ac <Read_Byte+0xec>)
 800686c:	2200      	movs	r2, #0
 800686e:	801a      	strh	r2, [r3, #0]
    while (chunk_pos >= chunk_len)
 8006870:	4b0e      	ldr	r3, [pc, #56]	; (80068ac <Read_Byte+0xec>)
 8006872:	881a      	ldrh	r2, [r3, #0]
 8006874:	4b09      	ldr	r3, [pc, #36]	; (800689c <Read_Byte+0xdc>)
 8006876:	881b      	ldrh	r3, [r3, #0]
 8006878:	429a      	cmp	r2, r3
 800687a:	d2a7      	bcs.n	80067cc <Read_Byte+0xc>
    }

    *out = dec_buf[chunk_pos++];
 800687c:	4b0b      	ldr	r3, [pc, #44]	; (80068ac <Read_Byte+0xec>)
 800687e:	881b      	ldrh	r3, [r3, #0]
 8006880:	1c5a      	adds	r2, r3, #1
 8006882:	b291      	uxth	r1, r2
 8006884:	4a09      	ldr	r2, [pc, #36]	; (80068ac <Read_Byte+0xec>)
 8006886:	8011      	strh	r1, [r2, #0]
 8006888:	461a      	mov	r2, r3
 800688a:	4b06      	ldr	r3, [pc, #24]	; (80068a4 <Read_Byte+0xe4>)
 800688c:	5c9a      	ldrb	r2, [r3, r2]
 800688e:	683b      	ldr	r3, [r7, #0]
 8006890:	701a      	strb	r2, [r3, #0]
    return 0;
 8006892:	2300      	movs	r3, #0
}
 8006894:	4618      	mov	r0, r3
 8006896:	3720      	adds	r7, #32
 8006898:	46bd      	mov	sp, r7
 800689a:	bd80      	pop	{r7, pc}
 800689c:	2000016c 	.word	0x2000016c
 80068a0:	2000006c 	.word	0x2000006c
 80068a4:	200000ec 	.word	0x200000ec
 80068a8:	20000170 	.word	0x20000170
 80068ac:	2000016e 	.word	0x2000016e

080068b0 <Decrypt_DecomprToFlash>:
uint8_t Decrypt_DecomprToFlash(UART_HandleTypeDef 	*huart,
                                uint32_t 			original_size,
                                uint32_t 			flash_address,
                                uint8_t 			*iv,
                                uint8_t 			*tag)
{
 80068b0:	b590      	push	{r4, r7, lr}
 80068b2:	b0f5      	sub	sp, #468	; 0x1d4
 80068b4:	af00      	add	r7, sp, #0
 80068b6:	f107 040c 	add.w	r4, r7, #12
 80068ba:	6020      	str	r0, [r4, #0]
 80068bc:	f107 0008 	add.w	r0, r7, #8
 80068c0:	6001      	str	r1, [r0, #0]
 80068c2:	1d39      	adds	r1, r7, #4
 80068c4:	600a      	str	r2, [r1, #0]
 80068c6:	463a      	mov	r2, r7
 80068c8:	6013      	str	r3, [r2, #0]
	uint8_t  window[LZSS_WINDOW_SIZE]; /* sliding window for LZSS */
	uint8_t  out_buf[LZSS_OUT_BUF];    /* output buffer before flash write */
	uint8_t  bit_buf = 0;              /* current byte being parsed bit by bit */
 80068ca:	f107 031f 	add.w	r3, r7, #31
 80068ce:	2200      	movs	r2, #0
 80068d0:	701a      	strb	r2, [r3, #0]
	uint8_t  bit_pos = 0;              /* number of bits remaining in bit_buf */
 80068d2:	2300      	movs	r3, #0
 80068d4:	f887 31cf 	strb.w	r3, [r7, #463]	; 0x1cf
	uint32_t win_pos = 0;              /* current write position in window */
 80068d8:	2300      	movs	r3, #0
 80068da:	f8c7 31c8 	str.w	r3, [r7, #456]	; 0x1c8
	uint32_t out_pos = 0;              /* current write position in out_buf */
 80068de:	2300      	movs	r3, #0
 80068e0:	f8c7 31c4 	str.w	r3, [r7, #452]	; 0x1c4
	uint32_t total   = 0;              /* total decompressed bytes written */
 80068e4:	2300      	movs	r3, #0
 80068e6:	f8c7 31c0 	str.w	r3, [r7, #448]	; 0x1c0
	uint8_t  rx_byte;                  /* temporary byte read from stream */
	int8_t   ret;                      /* return value from Read_Byte: 0,-1,-2 */
	uint8_t  end_received = 0;         /* set to 1 when END marker is received */
 80068ea:	2300      	movs	r3, #0
 80068ec:	f887 31bf 	strb.w	r3, [r7, #447]	; 0x1bf
    /* Reset state */
    chunk_len = 0;
 80068f0:	4bcb      	ldr	r3, [pc, #812]	; (8006c20 <Decrypt_DecomprToFlash+0x370>)
 80068f2:	2200      	movs	r2, #0
 80068f4:	801a      	strh	r2, [r3, #0]
    chunk_pos = 0;
 80068f6:	4bcb      	ldr	r3, [pc, #812]	; (8006c24 <Decrypt_DecomprToFlash+0x374>)
 80068f8:	2200      	movs	r2, #0
 80068fa:	801a      	strh	r2, [r3, #0]

    memset(window,  0x00, LZSS_WINDOW_SIZE);  /* must match Python */
 80068fc:	f107 03a0 	add.w	r3, r7, #160	; 0xa0
 8006900:	f44f 7280 	mov.w	r2, #256	; 0x100
 8006904:	2100      	movs	r1, #0
 8006906:	4618      	mov	r0, r3
 8006908:	f002 fcf8 	bl	80092fc <memset>
    memset(out_buf, 0x00, LZSS_OUT_BUF);
 800690c:	f107 0320 	add.w	r3, r7, #32
 8006910:	2280      	movs	r2, #128	; 0x80
 8006912:	2100      	movs	r1, #0
 8006914:	4618      	mov	r0, r3
 8006916:	f002 fcf1 	bl	80092fc <memset>

    ctx.mKeySize = CRL_AES256_KEY;   // 32 bytes key
 800691a:	4bc3      	ldr	r3, [pc, #780]	; (8006c28 <Decrypt_DecomprToFlash+0x378>)
 800691c:	2220      	movs	r2, #32
 800691e:	f8c3 2944 	str.w	r2, [r3, #2372]	; 0x944
    ctx.mTagSize = TAG_SIZE;          // 16 bytes tag
 8006922:	4bc1      	ldr	r3, [pc, #772]	; (8006c28 <Decrypt_DecomprToFlash+0x378>)
 8006924:	2210      	movs	r2, #16
 8006926:	f8c3 2948 	str.w	r2, [r3, #2376]	; 0x948
    ctx.mIvSize  = IV_SIZE;           // 12 bytes iv
 800692a:	4bbf      	ldr	r3, [pc, #764]	; (8006c28 <Decrypt_DecomprToFlash+0x378>)
 800692c:	220c      	movs	r2, #12
 800692e:	f8c3 2940 	str.w	r2, [r3, #2368]	; 0x940
    ctx.mFlags   = E_SK_DEFAULT;
 8006932:	4bbd      	ldr	r3, [pc, #756]	; (8006c28 <Decrypt_DecomprToFlash+0x378>)
 8006934:	2200      	movs	r2, #0
 8006936:	f8c3 293c 	str.w	r2, [r3, #2364]	; 0x93c
    ctx.pmTag    = tag;
 800693a:	4abb      	ldr	r2, [pc, #748]	; (8006c28 <Decrypt_DecomprToFlash+0x378>)
 800693c:	f8d7 31e0 	ldr.w	r3, [r7, #480]	; 0x1e0
 8006940:	f8c2 394c 	str.w	r3, [r2, #2380]	; 0x94c
    AES_GCM_Decrypt_Init(&ctx, AES_KEY, iv);
 8006944:	463b      	mov	r3, r7
 8006946:	681a      	ldr	r2, [r3, #0]
 8006948:	49b8      	ldr	r1, [pc, #736]	; (8006c2c <Decrypt_DecomprToFlash+0x37c>)
 800694a:	48b7      	ldr	r0, [pc, #732]	; (8006c28 <Decrypt_DecomprToFlash+0x378>)
 800694c:	f002 fb7a 	bl	8009044 <AES_GCM_Decrypt_Init>

    while (total < original_size)
 8006950:	e137      	b.n	8006bc2 <Decrypt_DecomprToFlash+0x312>
    {
        /* Refill bit buffer */
    	if (bit_pos == 0)
 8006952:	f897 31cf 	ldrb.w	r3, [r7, #463]	; 0x1cf
 8006956:	2b00      	cmp	r3, #0
 8006958:	d11d      	bne.n	8006996 <Decrypt_DecomprToFlash+0xe6>
    	{
    	    ret = Read_Byte(huart, &bit_buf);
 800695a:	f107 021f 	add.w	r2, r7, #31
 800695e:	f107 030c 	add.w	r3, r7, #12
 8006962:	4611      	mov	r1, r2
 8006964:	6818      	ldr	r0, [r3, #0]
 8006966:	f7ff ff2b 	bl	80067c0 <Read_Byte>
 800696a:	4603      	mov	r3, r0
 800696c:	f887 31b3 	strb.w	r3, [r7, #435]	; 0x1b3
    	    if (ret == -2) return 0;
 8006970:	f997 31b3 	ldrsb.w	r3, [r7, #435]	; 0x1b3
 8006974:	f113 0f02 	cmn.w	r3, #2
 8006978:	d101      	bne.n	800697e <Decrypt_DecomprToFlash+0xce>
 800697a:	2300      	movs	r3, #0
 800697c:	e193      	b.n	8006ca6 <Decrypt_DecomprToFlash+0x3f6>
    	    if (ret == -1) { end_received = 1; break; }
 800697e:	f997 31b3 	ldrsb.w	r3, [r7, #435]	; 0x1b3
 8006982:	f1b3 3fff 	cmp.w	r3, #4294967295
 8006986:	d103      	bne.n	8006990 <Decrypt_DecomprToFlash+0xe0>
 8006988:	2301      	movs	r3, #1
 800698a:	f887 31bf 	strb.w	r3, [r7, #447]	; 0x1bf
 800698e:	e126      	b.n	8006bde <Decrypt_DecomprToFlash+0x32e>
    	    bit_pos = 8;
 8006990:	2308      	movs	r3, #8
 8006992:	f887 31cf 	strb.w	r3, [r7, #463]	; 0x1cf
    	}

        /* Read 1 flag bit MSB first */
        uint8_t flag = (bit_buf >> 7) & 1; //flag 3ando 2 status [1 or 0]
 8006996:	f107 031f 	add.w	r3, r7, #31
 800699a:	781b      	ldrb	r3, [r3, #0]
 800699c:	09db      	lsrs	r3, r3, #7
 800699e:	f887 31b2 	strb.w	r3, [r7, #434]	; 0x1b2
        bit_buf      = (bit_buf << 1) & 0xFF; // kanwajad flag li jay
 80069a2:	f107 031f 	add.w	r3, r7, #31
 80069a6:	781b      	ldrb	r3, [r3, #0]
 80069a8:	005b      	lsls	r3, r3, #1
 80069aa:	b2da      	uxtb	r2, r3
 80069ac:	f107 031f 	add.w	r3, r7, #31
 80069b0:	701a      	strb	r2, [r3, #0]
        bit_pos--; // ila wssal position 0 3awd 3ayate 3la byte jdid b ReadByte()
 80069b2:	f897 31cf 	ldrb.w	r3, [r7, #463]	; 0x1cf
 80069b6:	3b01      	subs	r3, #1
 80069b8:	f887 31cf 	strb.w	r3, [r7, #463]	; 0x1cf

        if (flag == 0)
 80069bc:	f897 31b2 	ldrb.w	r3, [r7, #434]	; 0x1b2
 80069c0:	2b00      	cmp	r3, #0
 80069c2:	d15c      	bne.n	8006a7e <Decrypt_DecomprToFlash+0x1ce>
        {
            /* LITERAL */
            ret = Read_Byte(huart, &rx_byte);
 80069c4:	f107 021e 	add.w	r2, r7, #30
 80069c8:	f107 030c 	add.w	r3, r7, #12
 80069cc:	4611      	mov	r1, r2
 80069ce:	6818      	ldr	r0, [r3, #0]
 80069d0:	f7ff fef6 	bl	80067c0 <Read_Byte>
 80069d4:	4603      	mov	r3, r0
 80069d6:	f887 31b3 	strb.w	r3, [r7, #435]	; 0x1b3
            if (ret == -1) break;
 80069da:	f997 31b3 	ldrsb.w	r3, [r7, #435]	; 0x1b3
 80069de:	f1b3 3fff 	cmp.w	r3, #4294967295
 80069e2:	f000 80f7 	beq.w	8006bd4 <Decrypt_DecomprToFlash+0x324>
            if (ret == -2) return 0;
 80069e6:	f997 31b3 	ldrsb.w	r3, [r7, #435]	; 0x1b3
 80069ea:	f113 0f02 	cmn.w	r3, #2
 80069ee:	d101      	bne.n	80069f4 <Decrypt_DecomprToFlash+0x144>
 80069f0:	2300      	movs	r3, #0
 80069f2:	e158      	b.n	8006ca6 <Decrypt_DecomprToFlash+0x3f6>

            window[win_pos]    = rx_byte;
 80069f4:	f107 031e 	add.w	r3, r7, #30
 80069f8:	7819      	ldrb	r1, [r3, #0]
 80069fa:	f107 02a0 	add.w	r2, r7, #160	; 0xa0
 80069fe:	f8d7 31c8 	ldr.w	r3, [r7, #456]	; 0x1c8
 8006a02:	4413      	add	r3, r2
 8006a04:	460a      	mov	r2, r1
 8006a06:	701a      	strb	r2, [r3, #0]
            out_buf[out_pos++] = rx_byte;
 8006a08:	f8d7 31c4 	ldr.w	r3, [r7, #452]	; 0x1c4
 8006a0c:	1c5a      	adds	r2, r3, #1
 8006a0e:	f8c7 21c4 	str.w	r2, [r7, #452]	; 0x1c4
 8006a12:	f107 021e 	add.w	r2, r7, #30
 8006a16:	7811      	ldrb	r1, [r2, #0]
 8006a18:	f107 0220 	add.w	r2, r7, #32
 8006a1c:	54d1      	strb	r1, [r2, r3]
            win_pos            = (win_pos + 1) % LZSS_WINDOW_SIZE;
 8006a1e:	f8d7 31c8 	ldr.w	r3, [r7, #456]	; 0x1c8
 8006a22:	3301      	adds	r3, #1
 8006a24:	b2db      	uxtb	r3, r3
 8006a26:	f8c7 31c8 	str.w	r3, [r7, #456]	; 0x1c8
            total++;
 8006a2a:	f8d7 31c0 	ldr.w	r3, [r7, #448]	; 0x1c0
 8006a2e:	3301      	adds	r3, #1
 8006a30:	f8c7 31c0 	str.w	r3, [r7, #448]	; 0x1c0
 8006a34:	1d3b      	adds	r3, r7, #4
 8006a36:	1d3a      	adds	r2, r7, #4
 8006a38:	6812      	ldr	r2, [r2, #0]
 8006a3a:	601a      	str	r2, [r3, #0]

            /* Flush when full */
            if (out_pos == LZSS_OUT_BUF)
 8006a3c:	f8d7 31c4 	ldr.w	r3, [r7, #452]	; 0x1c4
 8006a40:	2b80      	cmp	r3, #128	; 0x80
 8006a42:	f040 80be 	bne.w	8006bc2 <Decrypt_DecomprToFlash+0x312>
            {
                if (Flash_Write(flash_address, out_buf, LZSS_OUT_BUF) != FLASH_OK)
 8006a46:	f107 0120 	add.w	r1, r7, #32
 8006a4a:	1d3b      	adds	r3, r7, #4
 8006a4c:	2280      	movs	r2, #128	; 0x80
 8006a4e:	6818      	ldr	r0, [r3, #0]
 8006a50:	f7ff fe07 	bl	8006662 <Flash_Write>
 8006a54:	4603      	mov	r3, r0
 8006a56:	2b00      	cmp	r3, #0
 8006a58:	d001      	beq.n	8006a5e <Decrypt_DecomprToFlash+0x1ae>
                    {
                    return 0;
 8006a5a:	2300      	movs	r3, #0
 8006a5c:	e123      	b.n	8006ca6 <Decrypt_DecomprToFlash+0x3f6>
                    }

                flash_address += LZSS_OUT_BUF;
 8006a5e:	1d3b      	adds	r3, r7, #4
 8006a60:	1d3a      	adds	r2, r7, #4
 8006a62:	6812      	ldr	r2, [r2, #0]
 8006a64:	3280      	adds	r2, #128	; 0x80
 8006a66:	601a      	str	r2, [r3, #0]
                out_pos        = 0;
 8006a68:	2300      	movs	r3, #0
 8006a6a:	f8c7 31c4 	str.w	r3, [r7, #452]	; 0x1c4
                memset(out_buf, 0x00, LZSS_OUT_BUF);
 8006a6e:	f107 0320 	add.w	r3, r7, #32
 8006a72:	2280      	movs	r2, #128	; 0x80
 8006a74:	2100      	movs	r1, #0
 8006a76:	4618      	mov	r0, r3
 8006a78:	f002 fc40 	bl	80092fc <memset>
 8006a7c:	e0a1      	b.n	8006bc2 <Decrypt_DecomprToFlash+0x312>
        else
        {
            /* BACK-REFERENCE */
            uint8_t offset_val, length_val;

            ret = Read_Byte(huart, &offset_val);
 8006a7e:	f107 0217 	add.w	r2, r7, #23
 8006a82:	f107 030c 	add.w	r3, r7, #12
 8006a86:	4611      	mov	r1, r2
 8006a88:	6818      	ldr	r0, [r3, #0]
 8006a8a:	f7ff fe99 	bl	80067c0 <Read_Byte>
 8006a8e:	4603      	mov	r3, r0
 8006a90:	f887 31b3 	strb.w	r3, [r7, #435]	; 0x1b3
            if (ret == -1) break;
 8006a94:	f997 31b3 	ldrsb.w	r3, [r7, #435]	; 0x1b3
 8006a98:	f1b3 3fff 	cmp.w	r3, #4294967295
 8006a9c:	f000 809c 	beq.w	8006bd8 <Decrypt_DecomprToFlash+0x328>
            if (ret == -2) return 0;
 8006aa0:	f997 31b3 	ldrsb.w	r3, [r7, #435]	; 0x1b3
 8006aa4:	f113 0f02 	cmn.w	r3, #2
 8006aa8:	d101      	bne.n	8006aae <Decrypt_DecomprToFlash+0x1fe>
 8006aaa:	2300      	movs	r3, #0
 8006aac:	e0fb      	b.n	8006ca6 <Decrypt_DecomprToFlash+0x3f6>

            ret = Read_Byte(huart, &length_val);
 8006aae:	f107 0216 	add.w	r2, r7, #22
 8006ab2:	f107 030c 	add.w	r3, r7, #12
 8006ab6:	4611      	mov	r1, r2
 8006ab8:	6818      	ldr	r0, [r3, #0]
 8006aba:	f7ff fe81 	bl	80067c0 <Read_Byte>
 8006abe:	4603      	mov	r3, r0
 8006ac0:	f887 31b3 	strb.w	r3, [r7, #435]	; 0x1b3
            if (ret == -1) break;
 8006ac4:	f997 31b3 	ldrsb.w	r3, [r7, #435]	; 0x1b3
 8006ac8:	f1b3 3fff 	cmp.w	r3, #4294967295
 8006acc:	f000 8086 	beq.w	8006bdc <Decrypt_DecomprToFlash+0x32c>
            if (ret == -2) return 0;
 8006ad0:	f997 31b3 	ldrsb.w	r3, [r7, #435]	; 0x1b3
 8006ad4:	f113 0f02 	cmn.w	r3, #2
 8006ad8:	d101      	bne.n	8006ade <Decrypt_DecomprToFlash+0x22e>
 8006ada:	2300      	movs	r3, #0
 8006adc:	e0e3      	b.n	8006ca6 <Decrypt_DecomprToFlash+0x3f6>

            uint32_t offset = (uint32_t)offset_val + 1;
 8006ade:	f107 0317 	add.w	r3, r7, #23
 8006ae2:	781b      	ldrb	r3, [r3, #0]
 8006ae4:	3301      	adds	r3, #1
 8006ae6:	f8c7 31ac 	str.w	r3, [r7, #428]	; 0x1ac
            uint32_t length = (uint32_t)length_val + LZSS_MIN_MATCH;
 8006aea:	f107 0316 	add.w	r3, r7, #22
 8006aee:	781b      	ldrb	r3, [r3, #0]
 8006af0:	3303      	adds	r3, #3
 8006af2:	f8c7 31a8 	str.w	r3, [r7, #424]	; 0x1a8

            for (uint32_t k = 0; k < length && total < original_size; k++)
 8006af6:	2300      	movs	r3, #0
 8006af8:	f8c7 31b8 	str.w	r3, [r7, #440]	; 0x1b8
 8006afc:	e054      	b.n	8006ba8 <Decrypt_DecomprToFlash+0x2f8>
            {
                uint32_t src_pos   = (win_pos - offset + LZSS_WINDOW_SIZE)
 8006afe:	f8d7 21c8 	ldr.w	r2, [r7, #456]	; 0x1c8
 8006b02:	f8d7 31ac 	ldr.w	r3, [r7, #428]	; 0x1ac
 8006b06:	1ad3      	subs	r3, r2, r3
 8006b08:	b2db      	uxtb	r3, r3
 8006b0a:	f8c7 31a4 	str.w	r3, [r7, #420]	; 0x1a4
                                      % LZSS_WINDOW_SIZE;
                rx_byte            = window[src_pos];
 8006b0e:	f107 02a0 	add.w	r2, r7, #160	; 0xa0
 8006b12:	f8d7 31a4 	ldr.w	r3, [r7, #420]	; 0x1a4
 8006b16:	4413      	add	r3, r2
 8006b18:	781a      	ldrb	r2, [r3, #0]
 8006b1a:	f107 031e 	add.w	r3, r7, #30
 8006b1e:	701a      	strb	r2, [r3, #0]
                window[win_pos]    = rx_byte;
 8006b20:	f107 031e 	add.w	r3, r7, #30
 8006b24:	7819      	ldrb	r1, [r3, #0]
 8006b26:	f107 02a0 	add.w	r2, r7, #160	; 0xa0
 8006b2a:	f8d7 31c8 	ldr.w	r3, [r7, #456]	; 0x1c8
 8006b2e:	4413      	add	r3, r2
 8006b30:	460a      	mov	r2, r1
 8006b32:	701a      	strb	r2, [r3, #0]
                out_buf[out_pos++] = rx_byte;
 8006b34:	f8d7 31c4 	ldr.w	r3, [r7, #452]	; 0x1c4
 8006b38:	1c5a      	adds	r2, r3, #1
 8006b3a:	f8c7 21c4 	str.w	r2, [r7, #452]	; 0x1c4
 8006b3e:	f107 021e 	add.w	r2, r7, #30
 8006b42:	7811      	ldrb	r1, [r2, #0]
 8006b44:	f107 0220 	add.w	r2, r7, #32
 8006b48:	54d1      	strb	r1, [r2, r3]
                win_pos            = (win_pos + 1) % LZSS_WINDOW_SIZE;
 8006b4a:	f8d7 31c8 	ldr.w	r3, [r7, #456]	; 0x1c8
 8006b4e:	3301      	adds	r3, #1
 8006b50:	b2db      	uxtb	r3, r3
 8006b52:	f8c7 31c8 	str.w	r3, [r7, #456]	; 0x1c8
                total++;
 8006b56:	f8d7 31c0 	ldr.w	r3, [r7, #448]	; 0x1c0
 8006b5a:	3301      	adds	r3, #1
 8006b5c:	f8c7 31c0 	str.w	r3, [r7, #448]	; 0x1c0

                /* Flush when full */
                if (out_pos == LZSS_OUT_BUF)
 8006b60:	f8d7 31c4 	ldr.w	r3, [r7, #452]	; 0x1c4
 8006b64:	2b80      	cmp	r3, #128	; 0x80
 8006b66:	d11a      	bne.n	8006b9e <Decrypt_DecomprToFlash+0x2ee>
                {
                    if (Flash_Write(flash_address, out_buf, LZSS_OUT_BUF) != FLASH_OK)
 8006b68:	f107 0120 	add.w	r1, r7, #32
 8006b6c:	1d3b      	adds	r3, r7, #4
 8006b6e:	2280      	movs	r2, #128	; 0x80
 8006b70:	6818      	ldr	r0, [r3, #0]
 8006b72:	f7ff fd76 	bl	8006662 <Flash_Write>
 8006b76:	4603      	mov	r3, r0
 8006b78:	2b00      	cmp	r3, #0
 8006b7a:	d001      	beq.n	8006b80 <Decrypt_DecomprToFlash+0x2d0>
                    {
                    return 0;
 8006b7c:	2300      	movs	r3, #0
 8006b7e:	e092      	b.n	8006ca6 <Decrypt_DecomprToFlash+0x3f6>
                    }
                    flash_address += LZSS_OUT_BUF;
 8006b80:	1d3b      	adds	r3, r7, #4
 8006b82:	1d3a      	adds	r2, r7, #4
 8006b84:	6812      	ldr	r2, [r2, #0]
 8006b86:	3280      	adds	r2, #128	; 0x80
 8006b88:	601a      	str	r2, [r3, #0]
                    out_pos        = 0;
 8006b8a:	2300      	movs	r3, #0
 8006b8c:	f8c7 31c4 	str.w	r3, [r7, #452]	; 0x1c4
                    memset(out_buf, 0x00, LZSS_OUT_BUF);
 8006b90:	f107 0320 	add.w	r3, r7, #32
 8006b94:	2280      	movs	r2, #128	; 0x80
 8006b96:	2100      	movs	r1, #0
 8006b98:	4618      	mov	r0, r3
 8006b9a:	f002 fbaf 	bl	80092fc <memset>
            for (uint32_t k = 0; k < length && total < original_size; k++)
 8006b9e:	f8d7 31b8 	ldr.w	r3, [r7, #440]	; 0x1b8
 8006ba2:	3301      	adds	r3, #1
 8006ba4:	f8c7 31b8 	str.w	r3, [r7, #440]	; 0x1b8
 8006ba8:	f8d7 21b8 	ldr.w	r2, [r7, #440]	; 0x1b8
 8006bac:	f8d7 31a8 	ldr.w	r3, [r7, #424]	; 0x1a8
 8006bb0:	429a      	cmp	r2, r3
 8006bb2:	d206      	bcs.n	8006bc2 <Decrypt_DecomprToFlash+0x312>
 8006bb4:	f107 0308 	add.w	r3, r7, #8
 8006bb8:	f8d7 21c0 	ldr.w	r2, [r7, #448]	; 0x1c0
 8006bbc:	681b      	ldr	r3, [r3, #0]
 8006bbe:	429a      	cmp	r2, r3
 8006bc0:	d39d      	bcc.n	8006afe <Decrypt_DecomprToFlash+0x24e>
    while (total < original_size)
 8006bc2:	f107 0308 	add.w	r3, r7, #8
 8006bc6:	f8d7 21c0 	ldr.w	r2, [r7, #448]	; 0x1c0
 8006bca:	681b      	ldr	r3, [r3, #0]
 8006bcc:	429a      	cmp	r2, r3
 8006bce:	f4ff aec0 	bcc.w	8006952 <Decrypt_DecomprToFlash+0xa2>
 8006bd2:	e004      	b.n	8006bde <Decrypt_DecomprToFlash+0x32e>
            if (ret == -1) break;
 8006bd4:	bf00      	nop
 8006bd6:	e002      	b.n	8006bde <Decrypt_DecomprToFlash+0x32e>
            if (ret == -1) break;
 8006bd8:	bf00      	nop
 8006bda:	e000      	b.n	8006bde <Decrypt_DecomprToFlash+0x32e>
            if (ret == -1) break;
 8006bdc:	bf00      	nop
                }
            }
        }
    }
    if (!end_received)
 8006bde:	f897 31bf 	ldrb.w	r3, [r7, #447]	; 0x1bf
 8006be2:	2b00      	cmp	r3, #0
 8006be4:	d10c      	bne.n	8006c00 <Decrypt_DecomprToFlash+0x350>
    {
        Boot_SendAck(huart);               // ACK last chunk
 8006be6:	f107 030c 	add.w	r3, r7, #12
 8006bea:	6818      	ldr	r0, [r3, #0]
 8006bec:	f7ff fc60 	bl	80064b0 <Boot_SendAck>
        uint8_t end_buf[2];
        UART_ReadExact(huart, end_buf, 2); // read END marker
 8006bf0:	f107 0114 	add.w	r1, r7, #20
 8006bf4:	f107 030c 	add.w	r3, r7, #12
 8006bf8:	2202      	movs	r2, #2
 8006bfa:	6818      	ldr	r0, [r3, #0]
 8006bfc:	f7ff fc36 	bl	800646c <UART_ReadExact>
        // NO ACK YET!
    }
    /* Flush remaining bytes FIRST — before unblocking Python */
    if (out_pos > 0)
 8006c00:	f8d7 31c4 	ldr.w	r3, [r7, #452]	; 0x1c4
 8006c04:	2b00      	cmp	r3, #0
 8006c06:	d032      	beq.n	8006c6e <Decrypt_DecomprToFlash+0x3be>
    {
        uint32_t aligned = (out_pos + 3U) & ~3U;
 8006c08:	f8d7 31c4 	ldr.w	r3, [r7, #452]	; 0x1c4
 8006c0c:	3303      	adds	r3, #3
 8006c0e:	f023 0303 	bic.w	r3, r3, #3
 8006c12:	f8c7 31a0 	str.w	r3, [r7, #416]	; 0x1a0
        for (uint32_t p = out_pos; p < aligned; p++)
 8006c16:	f8d7 31c4 	ldr.w	r3, [r7, #452]	; 0x1c4
 8006c1a:	f8c7 31b4 	str.w	r3, [r7, #436]	; 0x1b4
 8006c1e:	e013      	b.n	8006c48 <Decrypt_DecomprToFlash+0x398>
 8006c20:	2000016c 	.word	0x2000016c
 8006c24:	2000016e 	.word	0x2000016e
 8006c28:	20000170 	.word	0x20000170
 8006c2c:	080098f8 	.word	0x080098f8
            out_buf[p] = 0xFF;
 8006c30:	f107 0220 	add.w	r2, r7, #32
 8006c34:	f8d7 31b4 	ldr.w	r3, [r7, #436]	; 0x1b4
 8006c38:	4413      	add	r3, r2
 8006c3a:	22ff      	movs	r2, #255	; 0xff
 8006c3c:	701a      	strb	r2, [r3, #0]
        for (uint32_t p = out_pos; p < aligned; p++)
 8006c3e:	f8d7 31b4 	ldr.w	r3, [r7, #436]	; 0x1b4
 8006c42:	3301      	adds	r3, #1
 8006c44:	f8c7 31b4 	str.w	r3, [r7, #436]	; 0x1b4
 8006c48:	f8d7 21b4 	ldr.w	r2, [r7, #436]	; 0x1b4
 8006c4c:	f8d7 31a0 	ldr.w	r3, [r7, #416]	; 0x1a0
 8006c50:	429a      	cmp	r2, r3
 8006c52:	d3ed      	bcc.n	8006c30 <Decrypt_DecomprToFlash+0x380>
        if (Flash_Write(flash_address, out_buf, aligned) != FLASH_OK)
 8006c54:	f107 0120 	add.w	r1, r7, #32
 8006c58:	1d3b      	adds	r3, r7, #4
 8006c5a:	f8d7 21a0 	ldr.w	r2, [r7, #416]	; 0x1a0
 8006c5e:	6818      	ldr	r0, [r3, #0]
 8006c60:	f7ff fcff 	bl	8006662 <Flash_Write>
 8006c64:	4603      	mov	r3, r0
 8006c66:	2b00      	cmp	r3, #0
 8006c68:	d001      	beq.n	8006c6e <Decrypt_DecomprToFlash+0x3be>
            return 0;
 8006c6a:	2300      	movs	r3, #0
 8006c6c:	e01b      	b.n	8006ca6 <Decrypt_DecomprToFlash+0x3f6>
    }
    if (!end_received)
 8006c6e:	f897 31bf 	ldrb.w	r3, [r7, #447]	; 0x1bf
 8006c72:	2b00      	cmp	r3, #0
 8006c74:	d104      	bne.n	8006c80 <Decrypt_DecomprToFlash+0x3d0>
        Boot_SendAck(huart);
 8006c76:	f107 030c 	add.w	r3, r7, #12
 8006c7a:	6818      	ldr	r0, [r3, #0]
 8006c7c:	f7ff fc18 	bl	80064b0 <Boot_SendAck>

    int32_t tag_size = TAG_SIZE;
 8006c80:	f107 0318 	add.w	r3, r7, #24
 8006c84:	2210      	movs	r2, #16
 8006c86:	601a      	str	r2, [r3, #0]
    if (AES_GCM_Decrypt_Finish(&ctx, NULL, &tag_size) != AUTHENTICATION_SUCCESSFUL)
 8006c88:	f107 0318 	add.w	r3, r7, #24
 8006c8c:	461a      	mov	r2, r3
 8006c8e:	2100      	movs	r1, #0
 8006c90:	4807      	ldr	r0, [pc, #28]	; (8006cb0 <Decrypt_DecomprToFlash+0x400>)
 8006c92:	f002 faa9 	bl	80091e8 <AES_GCM_Decrypt_Finish>
 8006c96:	4603      	mov	r3, r0
 8006c98:	f240 32eb 	movw	r2, #1003	; 0x3eb
 8006c9c:	4293      	cmp	r3, r2
 8006c9e:	d001      	beq.n	8006ca4 <Decrypt_DecomprToFlash+0x3f4>
    {
    	return 0;
 8006ca0:	2300      	movs	r3, #0
 8006ca2:	e000      	b.n	8006ca6 <Decrypt_DecomprToFlash+0x3f6>
    }
    return 1;
 8006ca4:	2301      	movs	r3, #1
}
 8006ca6:	4618      	mov	r0, r3
 8006ca8:	f507 77ea 	add.w	r7, r7, #468	; 0x1d4
 8006cac:	46bd      	mov	sp, r7
 8006cae:	bd90      	pop	{r4, r7, pc}
 8006cb0:	20000170 	.word	0x20000170

08006cb4 <main>:
/**
  * @brief  The application entry point.
  * @retval int
  */
int main(void)
{
 8006cb4:	b580      	push	{r7, lr}
 8006cb6:	b082      	sub	sp, #8
 8006cb8:	af00      	add	r7, sp, #0
  /* USER CODE END 1 */

  /* MCU Configuration--------------------------------------------------------*/

  /* Reset of all peripherals, Initializes the Flash interface and the Systick. */
  HAL_Init();
 8006cba:	f000 facf 	bl	800725c <HAL_Init>
  /* USER CODE BEGIN Init */

  /* USER CODE END Init */

  /* Configure the system clock */
  SystemClock_Config();
 8006cbe:	f000 f827 	bl	8006d10 <SystemClock_Config>
  /* USER CODE BEGIN SysInit */

  /* USER CODE END SysInit */

  /* Initialize all configured peripherals */
  MX_GPIO_Init();
 8006cc2:	f000 f8cb 	bl	8006e5c <MX_GPIO_Init>
  MX_USART2_UART_Init();
 8006cc6:	f000 f89f 	bl	8006e08 <MX_USART2_UART_Init>
  MX_CRC_Init();
 8006cca:	f000 f889 	bl	8006de0 <MX_CRC_Init>
  /* USER CODE BEGIN 2 */
  uint8_t rx = 0 ;
 8006cce:	2300      	movs	r3, #0
 8006cd0:	71fb      	strb	r3, [r7, #7]

  /* Infinite loop */
  /* USER CODE BEGIN WHILE */
  while (1)
  {
	    if (HAL_UART_Receive(&huart2, &rx, 1, HAL_MAX_DELAY) == HAL_OK)
 8006cd2:	1df9      	adds	r1, r7, #7
 8006cd4:	f04f 33ff 	mov.w	r3, #4294967295
 8006cd8:	2201      	movs	r2, #1
 8006cda:	480b      	ldr	r0, [pc, #44]	; (8006d08 <main+0x54>)
 8006cdc:	f001 fed9 	bl	8008a92 <HAL_UART_Receive>
 8006ce0:	4603      	mov	r3, r0
 8006ce2:	2b00      	cmp	r3, #0
 8006ce4:	d1f5      	bne.n	8006cd2 <main+0x1e>
	    {
	        if (rx == 'J')
 8006ce6:	79fb      	ldrb	r3, [r7, #7]
 8006ce8:	2b4a      	cmp	r3, #74	; 0x4a
 8006cea:	d106      	bne.n	8006cfa <main+0x46>
	        {
	            Boot_SendAck(&huart2);
 8006cec:	4806      	ldr	r0, [pc, #24]	; (8006d08 <main+0x54>)
 8006cee:	f7ff fbdf 	bl	80064b0 <Boot_SendAck>
	            Boot_JumpToApplication(APP_ADDRESS);
 8006cf2:	4806      	ldr	r0, [pc, #24]	; (8006d0c <main+0x58>)
 8006cf4:	f7ff fd2c 	bl	8006750 <Boot_JumpToApplication>
 8006cf8:	e7eb      	b.n	8006cd2 <main+0x1e>
	        }
	        else if (rx == 'F')
 8006cfa:	79fb      	ldrb	r3, [r7, #7]
 8006cfc:	2b46      	cmp	r3, #70	; 0x46
 8006cfe:	d1e8      	bne.n	8006cd2 <main+0x1e>
	        {
	            Boot_HandleFlash(&huart2);
 8006d00:	4801      	ldr	r0, [pc, #4]	; (8006d08 <main+0x54>)
 8006d02:	f7ff fbf9 	bl	80064f8 <Boot_HandleFlash>
	    if (HAL_UART_Receive(&huart2, &rx, 1, HAL_MAX_DELAY) == HAL_OK)
 8006d06:	e7e4      	b.n	8006cd2 <main+0x1e>
 8006d08:	20000ec8 	.word	0x20000ec8
 8006d0c:	08020000 	.word	0x08020000

08006d10 <SystemClock_Config>:
/**
  * @brief System Clock Configuration
  * @retval None
  */
void SystemClock_Config(void)
{
 8006d10:	b580      	push	{r7, lr}
 8006d12:	b094      	sub	sp, #80	; 0x50
 8006d14:	af00      	add	r7, sp, #0
  RCC_OscInitTypeDef RCC_OscInitStruct = {0};
 8006d16:	f107 0320 	add.w	r3, r7, #32
 8006d1a:	2230      	movs	r2, #48	; 0x30
 8006d1c:	2100      	movs	r1, #0
 8006d1e:	4618      	mov	r0, r3
 8006d20:	f002 faec 	bl	80092fc <memset>
  RCC_ClkInitTypeDef RCC_ClkInitStruct = {0};
 8006d24:	f107 030c 	add.w	r3, r7, #12
 8006d28:	2200      	movs	r2, #0
 8006d2a:	601a      	str	r2, [r3, #0]
 8006d2c:	605a      	str	r2, [r3, #4]
 8006d2e:	609a      	str	r2, [r3, #8]
 8006d30:	60da      	str	r2, [r3, #12]
 8006d32:	611a      	str	r2, [r3, #16]

  /** Configure the main internal regulator output voltage
  */
  __HAL_RCC_PWR_CLK_ENABLE();
 8006d34:	2300      	movs	r3, #0
 8006d36:	60bb      	str	r3, [r7, #8]
 8006d38:	4b27      	ldr	r3, [pc, #156]	; (8006dd8 <SystemClock_Config+0xc8>)
 8006d3a:	6c1b      	ldr	r3, [r3, #64]	; 0x40
 8006d3c:	4a26      	ldr	r2, [pc, #152]	; (8006dd8 <SystemClock_Config+0xc8>)
 8006d3e:	f043 5380 	orr.w	r3, r3, #268435456	; 0x10000000
 8006d42:	6413      	str	r3, [r2, #64]	; 0x40
 8006d44:	4b24      	ldr	r3, [pc, #144]	; (8006dd8 <SystemClock_Config+0xc8>)
 8006d46:	6c1b      	ldr	r3, [r3, #64]	; 0x40
 8006d48:	f003 5380 	and.w	r3, r3, #268435456	; 0x10000000
 8006d4c:	60bb      	str	r3, [r7, #8]
 8006d4e:	68bb      	ldr	r3, [r7, #8]
  __HAL_PWR_VOLTAGESCALING_CONFIG(PWR_REGULATOR_VOLTAGE_SCALE1);
 8006d50:	2300      	movs	r3, #0
 8006d52:	607b      	str	r3, [r7, #4]
 8006d54:	4b21      	ldr	r3, [pc, #132]	; (8006ddc <SystemClock_Config+0xcc>)
 8006d56:	681b      	ldr	r3, [r3, #0]
 8006d58:	4a20      	ldr	r2, [pc, #128]	; (8006ddc <SystemClock_Config+0xcc>)
 8006d5a:	f443 4340 	orr.w	r3, r3, #49152	; 0xc000
 8006d5e:	6013      	str	r3, [r2, #0]
 8006d60:	4b1e      	ldr	r3, [pc, #120]	; (8006ddc <SystemClock_Config+0xcc>)
 8006d62:	681b      	ldr	r3, [r3, #0]
 8006d64:	f403 4340 	and.w	r3, r3, #49152	; 0xc000
 8006d68:	607b      	str	r3, [r7, #4]
 8006d6a:	687b      	ldr	r3, [r7, #4]
  /** Initializes the RCC Oscillators according to the specified parameters
  * in the RCC_OscInitTypeDef structure.
  */
  RCC_OscInitStruct.OscillatorType = RCC_OSCILLATORTYPE_HSE;
 8006d6c:	2301      	movs	r3, #1
 8006d6e:	623b      	str	r3, [r7, #32]
  RCC_OscInitStruct.HSEState = RCC_HSE_ON;
 8006d70:	f44f 3380 	mov.w	r3, #65536	; 0x10000
 8006d74:	627b      	str	r3, [r7, #36]	; 0x24
  RCC_OscInitStruct.PLL.PLLState = RCC_PLL_ON;
 8006d76:	2302      	movs	r3, #2
 8006d78:	63bb      	str	r3, [r7, #56]	; 0x38
  RCC_OscInitStruct.PLL.PLLSource = RCC_PLLSOURCE_HSE;
 8006d7a:	f44f 0380 	mov.w	r3, #4194304	; 0x400000
 8006d7e:	63fb      	str	r3, [r7, #60]	; 0x3c
  RCC_OscInitStruct.PLL.PLLM = 4;
 8006d80:	2304      	movs	r3, #4
 8006d82:	643b      	str	r3, [r7, #64]	; 0x40
  RCC_OscInitStruct.PLL.PLLN = 100;
 8006d84:	2364      	movs	r3, #100	; 0x64
 8006d86:	647b      	str	r3, [r7, #68]	; 0x44
  RCC_OscInitStruct.PLL.PLLP = RCC_PLLP_DIV2;
 8006d88:	2302      	movs	r3, #2
 8006d8a:	64bb      	str	r3, [r7, #72]	; 0x48
  RCC_OscInitStruct.PLL.PLLQ = 4;
 8006d8c:	2304      	movs	r3, #4
 8006d8e:	64fb      	str	r3, [r7, #76]	; 0x4c
  if (HAL_RCC_OscConfig(&RCC_OscInitStruct) != HAL_OK)
 8006d90:	f107 0320 	add.w	r3, r7, #32
 8006d94:	4618      	mov	r0, r3
 8006d96:	f001 f85b 	bl	8007e50 <HAL_RCC_OscConfig>
 8006d9a:	4603      	mov	r3, r0
 8006d9c:	2b00      	cmp	r3, #0
 8006d9e:	d001      	beq.n	8006da4 <SystemClock_Config+0x94>
  {
    Error_Handler();
 8006da0:	f000 f8ca 	bl	8006f38 <Error_Handler>
  }
  /** Initializes the CPU, AHB and APB buses clocks
  */
  RCC_ClkInitStruct.ClockType = RCC_CLOCKTYPE_HCLK|RCC_CLOCKTYPE_SYSCLK
 8006da4:	230f      	movs	r3, #15
 8006da6:	60fb      	str	r3, [r7, #12]
                              |RCC_CLOCKTYPE_PCLK1|RCC_CLOCKTYPE_PCLK2;
  RCC_ClkInitStruct.SYSCLKSource = RCC_SYSCLKSOURCE_PLLCLK;
 8006da8:	2302      	movs	r3, #2
 8006daa:	613b      	str	r3, [r7, #16]
  RCC_ClkInitStruct.AHBCLKDivider = RCC_SYSCLK_DIV1;
 8006dac:	2300      	movs	r3, #0
 8006dae:	617b      	str	r3, [r7, #20]
  RCC_ClkInitStruct.APB1CLKDivider = RCC_HCLK_DIV2;
 8006db0:	f44f 5380 	mov.w	r3, #4096	; 0x1000
 8006db4:	61bb      	str	r3, [r7, #24]
  RCC_ClkInitStruct.APB2CLKDivider = RCC_HCLK_DIV1;
 8006db6:	2300      	movs	r3, #0
 8006db8:	61fb      	str	r3, [r7, #28]

  if (HAL_RCC_ClockConfig(&RCC_ClkInitStruct, FLASH_LATENCY_3) != HAL_OK)
 8006dba:	f107 030c 	add.w	r3, r7, #12
 8006dbe:	2103      	movs	r1, #3
 8006dc0:	4618      	mov	r0, r3
 8006dc2:	f001 fabd 	bl	8008340 <HAL_RCC_ClockConfig>
 8006dc6:	4603      	mov	r3, r0
 8006dc8:	2b00      	cmp	r3, #0
 8006dca:	d001      	beq.n	8006dd0 <SystemClock_Config+0xc0>
  {
    Error_Handler();
 8006dcc:	f000 f8b4 	bl	8006f38 <Error_Handler>
  }
}
 8006dd0:	bf00      	nop
 8006dd2:	3750      	adds	r7, #80	; 0x50
 8006dd4:	46bd      	mov	sp, r7
 8006dd6:	bd80      	pop	{r7, pc}
 8006dd8:	40023800 	.word	0x40023800
 8006ddc:	40007000 	.word	0x40007000

08006de0 <MX_CRC_Init>:
  * @brief CRC Initialization Function
  * @param None
  * @retval None
  */
static void MX_CRC_Init(void)
{
 8006de0:	b580      	push	{r7, lr}
 8006de2:	af00      	add	r7, sp, #0
  /* USER CODE END CRC_Init 0 */

  /* USER CODE BEGIN CRC_Init 1 */

  /* USER CODE END CRC_Init 1 */
  hcrc.Instance = CRC;
 8006de4:	4b06      	ldr	r3, [pc, #24]	; (8006e00 <MX_CRC_Init+0x20>)
 8006de6:	4a07      	ldr	r2, [pc, #28]	; (8006e04 <MX_CRC_Init+0x24>)
 8006de8:	601a      	str	r2, [r3, #0]
  if (HAL_CRC_Init(&hcrc) != HAL_OK)
 8006dea:	4805      	ldr	r0, [pc, #20]	; (8006e00 <MX_CRC_Init+0x20>)
 8006dec:	f000 fb8d 	bl	800750a <HAL_CRC_Init>
 8006df0:	4603      	mov	r3, r0
 8006df2:	2b00      	cmp	r3, #0
 8006df4:	d001      	beq.n	8006dfa <MX_CRC_Init+0x1a>
  {
    Error_Handler();
 8006df6:	f000 f89f 	bl	8006f38 <Error_Handler>
  }
  /* USER CODE BEGIN CRC_Init 2 */

  /* USER CODE END CRC_Init 2 */

}
 8006dfa:	bf00      	nop
 8006dfc:	bd80      	pop	{r7, pc}
 8006dfe:	bf00      	nop
 8006e00:	20000ec0 	.word	0x20000ec0
 8006e04:	40023000 	.word	0x40023000

08006e08 <MX_USART2_UART_Init>:
  * @brief USART2 Initialization Function
  * @param None
  * @retval None
  */
static void MX_USART2_UART_Init(void)
{
 8006e08:	b580      	push	{r7, lr}
 8006e0a:	af00      	add	r7, sp, #0
  /* USER CODE END USART2_Init 0 */

  /* USER CODE BEGIN USART2_Init 1 */

  /* USER CODE END USART2_Init 1 */
  huart2.Instance = USART2;
 8006e0c:	4b11      	ldr	r3, [pc, #68]	; (8006e54 <MX_USART2_UART_Init+0x4c>)
 8006e0e:	4a12      	ldr	r2, [pc, #72]	; (8006e58 <MX_USART2_UART_Init+0x50>)
 8006e10:	601a      	str	r2, [r3, #0]
  huart2.Init.BaudRate = 115200;
 8006e12:	4b10      	ldr	r3, [pc, #64]	; (8006e54 <MX_USART2_UART_Init+0x4c>)
 8006e14:	f44f 32e1 	mov.w	r2, #115200	; 0x1c200
 8006e18:	605a      	str	r2, [r3, #4]
  huart2.Init.WordLength = UART_WORDLENGTH_8B;
 8006e1a:	4b0e      	ldr	r3, [pc, #56]	; (8006e54 <MX_USART2_UART_Init+0x4c>)
 8006e1c:	2200      	movs	r2, #0
 8006e1e:	609a      	str	r2, [r3, #8]
  huart2.Init.StopBits = UART_STOPBITS_1;
 8006e20:	4b0c      	ldr	r3, [pc, #48]	; (8006e54 <MX_USART2_UART_Init+0x4c>)
 8006e22:	2200      	movs	r2, #0
 8006e24:	60da      	str	r2, [r3, #12]
  huart2.Init.Parity = UART_PARITY_NONE;
 8006e26:	4b0b      	ldr	r3, [pc, #44]	; (8006e54 <MX_USART2_UART_Init+0x4c>)
 8006e28:	2200      	movs	r2, #0
 8006e2a:	611a      	str	r2, [r3, #16]
  huart2.Init.Mode = UART_MODE_TX_RX;
 8006e2c:	4b09      	ldr	r3, [pc, #36]	; (8006e54 <MX_USART2_UART_Init+0x4c>)
 8006e2e:	220c      	movs	r2, #12
 8006e30:	615a      	str	r2, [r3, #20]
  huart2.Init.HwFlowCtl = UART_HWCONTROL_NONE;
 8006e32:	4b08      	ldr	r3, [pc, #32]	; (8006e54 <MX_USART2_UART_Init+0x4c>)
 8006e34:	2200      	movs	r2, #0
 8006e36:	619a      	str	r2, [r3, #24]
  huart2.Init.OverSampling = UART_OVERSAMPLING_16;
 8006e38:	4b06      	ldr	r3, [pc, #24]	; (8006e54 <MX_USART2_UART_Init+0x4c>)
 8006e3a:	2200      	movs	r2, #0
 8006e3c:	61da      	str	r2, [r3, #28]
  if (HAL_UART_Init(&huart2) != HAL_OK)
 8006e3e:	4805      	ldr	r0, [pc, #20]	; (8006e54 <MX_USART2_UART_Init+0x4c>)
 8006e40:	f001 fd48 	bl	80088d4 <HAL_UART_Init>
 8006e44:	4603      	mov	r3, r0
 8006e46:	2b00      	cmp	r3, #0
 8006e48:	d001      	beq.n	8006e4e <MX_USART2_UART_Init+0x46>
  {
    Error_Handler();
 8006e4a:	f000 f875 	bl	8006f38 <Error_Handler>
  }
  /* USER CODE BEGIN USART2_Init 2 */

  /* USER CODE END USART2_Init 2 */

}
 8006e4e:	bf00      	nop
 8006e50:	bd80      	pop	{r7, pc}
 8006e52:	bf00      	nop
 8006e54:	20000ec8 	.word	0x20000ec8
 8006e58:	40004400 	.word	0x40004400

08006e5c <MX_GPIO_Init>:
  * @brief GPIO Initialization Function
  * @param None
  * @retval None
  */
static void MX_GPIO_Init(void)
{
 8006e5c:	b580      	push	{r7, lr}
 8006e5e:	b08a      	sub	sp, #40	; 0x28
 8006e60:	af00      	add	r7, sp, #0
  GPIO_InitTypeDef GPIO_InitStruct = {0};
 8006e62:	f107 0314 	add.w	r3, r7, #20
 8006e66:	2200      	movs	r2, #0
 8006e68:	601a      	str	r2, [r3, #0]
 8006e6a:	605a      	str	r2, [r3, #4]
 8006e6c:	609a      	str	r2, [r3, #8]
 8006e6e:	60da      	str	r2, [r3, #12]
 8006e70:	611a      	str	r2, [r3, #16]

  /* GPIO Ports Clock Enable */
  __HAL_RCC_GPIOC_CLK_ENABLE();
 8006e72:	2300      	movs	r3, #0
 8006e74:	613b      	str	r3, [r7, #16]
 8006e76:	4b2d      	ldr	r3, [pc, #180]	; (8006f2c <MX_GPIO_Init+0xd0>)
 8006e78:	6b1b      	ldr	r3, [r3, #48]	; 0x30
 8006e7a:	4a2c      	ldr	r2, [pc, #176]	; (8006f2c <MX_GPIO_Init+0xd0>)
 8006e7c:	f043 0304 	orr.w	r3, r3, #4
 8006e80:	6313      	str	r3, [r2, #48]	; 0x30
 8006e82:	4b2a      	ldr	r3, [pc, #168]	; (8006f2c <MX_GPIO_Init+0xd0>)
 8006e84:	6b1b      	ldr	r3, [r3, #48]	; 0x30
 8006e86:	f003 0304 	and.w	r3, r3, #4
 8006e8a:	613b      	str	r3, [r7, #16]
 8006e8c:	693b      	ldr	r3, [r7, #16]
  __HAL_RCC_GPIOH_CLK_ENABLE();
 8006e8e:	2300      	movs	r3, #0
 8006e90:	60fb      	str	r3, [r7, #12]
 8006e92:	4b26      	ldr	r3, [pc, #152]	; (8006f2c <MX_GPIO_Init+0xd0>)
 8006e94:	6b1b      	ldr	r3, [r3, #48]	; 0x30
 8006e96:	4a25      	ldr	r2, [pc, #148]	; (8006f2c <MX_GPIO_Init+0xd0>)
 8006e98:	f043 0380 	orr.w	r3, r3, #128	; 0x80
 8006e9c:	6313      	str	r3, [r2, #48]	; 0x30
 8006e9e:	4b23      	ldr	r3, [pc, #140]	; (8006f2c <MX_GPIO_Init+0xd0>)
 8006ea0:	6b1b      	ldr	r3, [r3, #48]	; 0x30
 8006ea2:	f003 0380 	and.w	r3, r3, #128	; 0x80
 8006ea6:	60fb      	str	r3, [r7, #12]
 8006ea8:	68fb      	ldr	r3, [r7, #12]
  __HAL_RCC_GPIOA_CLK_ENABLE();
 8006eaa:	2300      	movs	r3, #0
 8006eac:	60bb      	str	r3, [r7, #8]
 8006eae:	4b1f      	ldr	r3, [pc, #124]	; (8006f2c <MX_GPIO_Init+0xd0>)
 8006eb0:	6b1b      	ldr	r3, [r3, #48]	; 0x30
 8006eb2:	4a1e      	ldr	r2, [pc, #120]	; (8006f2c <MX_GPIO_Init+0xd0>)
 8006eb4:	f043 0301 	orr.w	r3, r3, #1
 8006eb8:	6313      	str	r3, [r2, #48]	; 0x30
 8006eba:	4b1c      	ldr	r3, [pc, #112]	; (8006f2c <MX_GPIO_Init+0xd0>)
 8006ebc:	6b1b      	ldr	r3, [r3, #48]	; 0x30
 8006ebe:	f003 0301 	and.w	r3, r3, #1
 8006ec2:	60bb      	str	r3, [r7, #8]
 8006ec4:	68bb      	ldr	r3, [r7, #8]
  __HAL_RCC_GPIOB_CLK_ENABLE();
 8006ec6:	2300      	movs	r3, #0
 8006ec8:	607b      	str	r3, [r7, #4]
 8006eca:	4b18      	ldr	r3, [pc, #96]	; (8006f2c <MX_GPIO_Init+0xd0>)
 8006ecc:	6b1b      	ldr	r3, [r3, #48]	; 0x30
 8006ece:	4a17      	ldr	r2, [pc, #92]	; (8006f2c <MX_GPIO_Init+0xd0>)
 8006ed0:	f043 0302 	orr.w	r3, r3, #2
 8006ed4:	6313      	str	r3, [r2, #48]	; 0x30
 8006ed6:	4b15      	ldr	r3, [pc, #84]	; (8006f2c <MX_GPIO_Init+0xd0>)
 8006ed8:	6b1b      	ldr	r3, [r3, #48]	; 0x30
 8006eda:	f003 0302 	and.w	r3, r3, #2
 8006ede:	607b      	str	r3, [r7, #4]
 8006ee0:	687b      	ldr	r3, [r7, #4]

  /*Configure GPIO pin Output Level */
  HAL_GPIO_WritePin(LD2_GPIO_Port, LD2_Pin, GPIO_PIN_RESET);
 8006ee2:	2200      	movs	r2, #0
 8006ee4:	2120      	movs	r1, #32
 8006ee6:	4812      	ldr	r0, [pc, #72]	; (8006f30 <MX_GPIO_Init+0xd4>)
 8006ee8:	f000 ff98 	bl	8007e1c <HAL_GPIO_WritePin>

  /*Configure GPIO pin : B1_Pin */
  GPIO_InitStruct.Pin = B1_Pin;
 8006eec:	f44f 5300 	mov.w	r3, #8192	; 0x2000
 8006ef0:	617b      	str	r3, [r7, #20]
  GPIO_InitStruct.Mode = GPIO_MODE_IT_FALLING;
 8006ef2:	f44f 1304 	mov.w	r3, #2162688	; 0x210000
 8006ef6:	61bb      	str	r3, [r7, #24]
  GPIO_InitStruct.Pull = GPIO_NOPULL;
 8006ef8:	2300      	movs	r3, #0
 8006efa:	61fb      	str	r3, [r7, #28]
  HAL_GPIO_Init(B1_GPIO_Port, &GPIO_InitStruct);
 8006efc:	f107 0314 	add.w	r3, r7, #20
 8006f00:	4619      	mov	r1, r3
 8006f02:	480c      	ldr	r0, [pc, #48]	; (8006f34 <MX_GPIO_Init+0xd8>)
 8006f04:	f000 fe06 	bl	8007b14 <HAL_GPIO_Init>

  /*Configure GPIO pin : LD2_Pin */
  GPIO_InitStruct.Pin = LD2_Pin;
 8006f08:	2320      	movs	r3, #32
 8006f0a:	617b      	str	r3, [r7, #20]
  GPIO_InitStruct.Mode = GPIO_MODE_OUTPUT_PP;
 8006f0c:	2301      	movs	r3, #1
 8006f0e:	61bb      	str	r3, [r7, #24]
  GPIO_InitStruct.Pull = GPIO_NOPULL;
 8006f10:	2300      	movs	r3, #0
 8006f12:	61fb      	str	r3, [r7, #28]
  GPIO_InitStruct.Speed = GPIO_SPEED_FREQ_LOW;
 8006f14:	2300      	movs	r3, #0
 8006f16:	623b      	str	r3, [r7, #32]
  HAL_GPIO_Init(LD2_GPIO_Port, &GPIO_InitStruct);
 8006f18:	f107 0314 	add.w	r3, r7, #20
 8006f1c:	4619      	mov	r1, r3
 8006f1e:	4804      	ldr	r0, [pc, #16]	; (8006f30 <MX_GPIO_Init+0xd4>)
 8006f20:	f000 fdf8 	bl	8007b14 <HAL_GPIO_Init>

}
 8006f24:	bf00      	nop
 8006f26:	3728      	adds	r7, #40	; 0x28
 8006f28:	46bd      	mov	sp, r7
 8006f2a:	bd80      	pop	{r7, pc}
 8006f2c:	40023800 	.word	0x40023800
 8006f30:	40020000 	.word	0x40020000
 8006f34:	40020800 	.word	0x40020800

08006f38 <Error_Handler>:
/**
  * @brief  This function is executed in case of error occurrence.
  * @retval None
  */
void Error_Handler(void)
{
 8006f38:	b480      	push	{r7}
 8006f3a:	af00      	add	r7, sp, #0
  __ASM volatile ("cpsid i" : : : "memory");
 8006f3c:	b672      	cpsid	i
}
 8006f3e:	bf00      	nop
  /* USER CODE BEGIN Error_Handler_Debug */
  /* User can add his own implementation to report the HAL error return state */
  __disable_irq();
  while (1)
 8006f40:	e7fe      	b.n	8006f40 <Error_Handler+0x8>
	...

08006f44 <HAL_MspInit>:
/* USER CODE END 0 */
/**
  * Initializes the Global MSP.
  */
void HAL_MspInit(void)
{
 8006f44:	b580      	push	{r7, lr}
 8006f46:	b082      	sub	sp, #8
 8006f48:	af00      	add	r7, sp, #0
  /* USER CODE BEGIN MspInit 0 */

  /* USER CODE END MspInit 0 */

  __HAL_RCC_SYSCFG_CLK_ENABLE();
 8006f4a:	2300      	movs	r3, #0
 8006f4c:	607b      	str	r3, [r7, #4]
 8006f4e:	4b10      	ldr	r3, [pc, #64]	; (8006f90 <HAL_MspInit+0x4c>)
 8006f50:	6c5b      	ldr	r3, [r3, #68]	; 0x44
 8006f52:	4a0f      	ldr	r2, [pc, #60]	; (8006f90 <HAL_MspInit+0x4c>)
 8006f54:	f443 4380 	orr.w	r3, r3, #16384	; 0x4000
 8006f58:	6453      	str	r3, [r2, #68]	; 0x44
 8006f5a:	4b0d      	ldr	r3, [pc, #52]	; (8006f90 <HAL_MspInit+0x4c>)
 8006f5c:	6c5b      	ldr	r3, [r3, #68]	; 0x44
 8006f5e:	f403 4380 	and.w	r3, r3, #16384	; 0x4000
 8006f62:	607b      	str	r3, [r7, #4]
 8006f64:	687b      	ldr	r3, [r7, #4]
  __HAL_RCC_PWR_CLK_ENABLE();
 8006f66:	2300      	movs	r3, #0
 8006f68:	603b      	str	r3, [r7, #0]
 8006f6a:	4b09      	ldr	r3, [pc, #36]	; (8006f90 <HAL_MspInit+0x4c>)
 8006f6c:	6c1b      	ldr	r3, [r3, #64]	; 0x40
 8006f6e:	4a08      	ldr	r2, [pc, #32]	; (8006f90 <HAL_MspInit+0x4c>)
 8006f70:	f043 5380 	orr.w	r3, r3, #268435456	; 0x10000000
 8006f74:	6413      	str	r3, [r2, #64]	; 0x40
 8006f76:	4b06      	ldr	r3, [pc, #24]	; (8006f90 <HAL_MspInit+0x4c>)
 8006f78:	6c1b      	ldr	r3, [r3, #64]	; 0x40
 8006f7a:	f003 5380 	and.w	r3, r3, #268435456	; 0x10000000
 8006f7e:	603b      	str	r3, [r7, #0]
 8006f80:	683b      	ldr	r3, [r7, #0]

  HAL_NVIC_SetPriorityGrouping(NVIC_PRIORITYGROUP_0);
 8006f82:	2007      	movs	r0, #7
 8006f84:	f000 fa8e 	bl	80074a4 <HAL_NVIC_SetPriorityGrouping>
  /* System interrupt init*/

  /* USER CODE BEGIN MspInit 1 */

  /* USER CODE END MspInit 1 */
}
 8006f88:	bf00      	nop
 8006f8a:	3708      	adds	r7, #8
 8006f8c:	46bd      	mov	sp, r7
 8006f8e:	bd80      	pop	{r7, pc}
 8006f90:	40023800 	.word	0x40023800

08006f94 <HAL_CRC_MspInit>:
* This function configures the hardware resources used in this example
* @param hcrc: CRC handle pointer
* @retval None
*/
void HAL_CRC_MspInit(CRC_HandleTypeDef* hcrc)
{
 8006f94:	b480      	push	{r7}
 8006f96:	b085      	sub	sp, #20
 8006f98:	af00      	add	r7, sp, #0
 8006f9a:	6078      	str	r0, [r7, #4]
  if(hcrc->Instance==CRC)
 8006f9c:	687b      	ldr	r3, [r7, #4]
 8006f9e:	681b      	ldr	r3, [r3, #0]
 8006fa0:	4a0b      	ldr	r2, [pc, #44]	; (8006fd0 <HAL_CRC_MspInit+0x3c>)
 8006fa2:	4293      	cmp	r3, r2
 8006fa4:	d10d      	bne.n	8006fc2 <HAL_CRC_MspInit+0x2e>
  {
  /* USER CODE BEGIN CRC_MspInit 0 */

  /* USER CODE END CRC_MspInit 0 */
    /* Peripheral clock enable */
    __HAL_RCC_CRC_CLK_ENABLE();
 8006fa6:	2300      	movs	r3, #0
 8006fa8:	60fb      	str	r3, [r7, #12]
 8006faa:	4b0a      	ldr	r3, [pc, #40]	; (8006fd4 <HAL_CRC_MspInit+0x40>)
 8006fac:	6b1b      	ldr	r3, [r3, #48]	; 0x30
 8006fae:	4a09      	ldr	r2, [pc, #36]	; (8006fd4 <HAL_CRC_MspInit+0x40>)
 8006fb0:	f443 5380 	orr.w	r3, r3, #4096	; 0x1000
 8006fb4:	6313      	str	r3, [r2, #48]	; 0x30
 8006fb6:	4b07      	ldr	r3, [pc, #28]	; (8006fd4 <HAL_CRC_MspInit+0x40>)
 8006fb8:	6b1b      	ldr	r3, [r3, #48]	; 0x30
 8006fba:	f403 5380 	and.w	r3, r3, #4096	; 0x1000
 8006fbe:	60fb      	str	r3, [r7, #12]
 8006fc0:	68fb      	ldr	r3, [r7, #12]
  /* USER CODE BEGIN CRC_MspInit 1 */

  /* USER CODE END CRC_MspInit 1 */
  }

}
 8006fc2:	bf00      	nop
 8006fc4:	3714      	adds	r7, #20
 8006fc6:	46bd      	mov	sp, r7
 8006fc8:	f85d 7b04 	ldr.w	r7, [sp], #4
 8006fcc:	4770      	bx	lr
 8006fce:	bf00      	nop
 8006fd0:	40023000 	.word	0x40023000
 8006fd4:	40023800 	.word	0x40023800

08006fd8 <HAL_UART_MspInit>:
* This function configures the hardware resources used in this example
* @param huart: UART handle pointer
* @retval None
*/
void HAL_UART_MspInit(UART_HandleTypeDef* huart)
{
 8006fd8:	b580      	push	{r7, lr}
 8006fda:	b08a      	sub	sp, #40	; 0x28
 8006fdc:	af00      	add	r7, sp, #0
 8006fde:	6078      	str	r0, [r7, #4]
  GPIO_InitTypeDef GPIO_InitStruct = {0};
 8006fe0:	f107 0314 	add.w	r3, r7, #20
 8006fe4:	2200      	movs	r2, #0
 8006fe6:	601a      	str	r2, [r3, #0]
 8006fe8:	605a      	str	r2, [r3, #4]
 8006fea:	609a      	str	r2, [r3, #8]
 8006fec:	60da      	str	r2, [r3, #12]
 8006fee:	611a      	str	r2, [r3, #16]
  if(huart->Instance==USART2)
 8006ff0:	687b      	ldr	r3, [r7, #4]
 8006ff2:	681b      	ldr	r3, [r3, #0]
 8006ff4:	4a19      	ldr	r2, [pc, #100]	; (800705c <HAL_UART_MspInit+0x84>)
 8006ff6:	4293      	cmp	r3, r2
 8006ff8:	d12b      	bne.n	8007052 <HAL_UART_MspInit+0x7a>
  {
  /* USER CODE BEGIN USART2_MspInit 0 */

  /* USER CODE END USART2_MspInit 0 */
    /* Peripheral clock enable */
    __HAL_RCC_USART2_CLK_ENABLE();
 8006ffa:	2300      	movs	r3, #0
 8006ffc:	613b      	str	r3, [r7, #16]
 8006ffe:	4b18      	ldr	r3, [pc, #96]	; (8007060 <HAL_UART_MspInit+0x88>)
 8007000:	6c1b      	ldr	r3, [r3, #64]	; 0x40
 8007002:	4a17      	ldr	r2, [pc, #92]	; (8007060 <HAL_UART_MspInit+0x88>)
 8007004:	f443 3300 	orr.w	r3, r3, #131072	; 0x20000
 8007008:	6413      	str	r3, [r2, #64]	; 0x40
 800700a:	4b15      	ldr	r3, [pc, #84]	; (8007060 <HAL_UART_MspInit+0x88>)
 800700c:	6c1b      	ldr	r3, [r3, #64]	; 0x40
 800700e:	f403 3300 	and.w	r3, r3, #131072	; 0x20000
 8007012:	613b      	str	r3, [r7, #16]
 8007014:	693b      	ldr	r3, [r7, #16]

    __HAL_RCC_GPIOA_CLK_ENABLE();
 8007016:	2300      	movs	r3, #0
 8007018:	60fb      	str	r3, [r7, #12]
 800701a:	4b11      	ldr	r3, [pc, #68]	; (8007060 <HAL_UART_MspInit+0x88>)
 800701c:	6b1b      	ldr	r3, [r3, #48]	; 0x30
 800701e:	4a10      	ldr	r2, [pc, #64]	; (8007060 <HAL_UART_MspInit+0x88>)
 8007020:	f043 0301 	orr.w	r3, r3, #1
 8007024:	6313      	str	r3, [r2, #48]	; 0x30
 8007026:	4b0e      	ldr	r3, [pc, #56]	; (8007060 <HAL_UART_MspInit+0x88>)
 8007028:	6b1b      	ldr	r3, [r3, #48]	; 0x30
 800702a:	f003 0301 	and.w	r3, r3, #1
 800702e:	60fb      	str	r3, [r7, #12]
 8007030:	68fb      	ldr	r3, [r7, #12]
    /**USART2 GPIO Configuration
    PA2     ------> USART2_TX
    PA3     ------> USART2_RX
    */
    GPIO_InitStruct.Pin = USART_TX_Pin|USART_RX_Pin;
 8007032:	230c      	movs	r3, #12
 8007034:	617b      	str	r3, [r7, #20]
    GPIO_InitStruct.Mode = GPIO_MODE_AF_PP;
 8007036:	2302      	movs	r3, #2
 8007038:	61bb      	str	r3, [r7, #24]
    GPIO_InitStruct.Pull = GPIO_NOPULL;
 800703a:	2300      	movs	r3, #0
 800703c:	61fb      	str	r3, [r7, #28]
    GPIO_InitStruct.Speed = GPIO_SPEED_FREQ_VERY_HIGH;
 800703e:	2303      	movs	r3, #3
 8007040:	623b      	str	r3, [r7, #32]
    GPIO_InitStruct.Alternate = GPIO_AF7_USART2;
 8007042:	2307      	movs	r3, #7
 8007044:	627b      	str	r3, [r7, #36]	; 0x24
    HAL_GPIO_Init(GPIOA, &GPIO_InitStruct);
 8007046:	f107 0314 	add.w	r3, r7, #20
 800704a:	4619      	mov	r1, r3
 800704c:	4805      	ldr	r0, [pc, #20]	; (8007064 <HAL_UART_MspInit+0x8c>)
 800704e:	f000 fd61 	bl	8007b14 <HAL_GPIO_Init>
  /* USER CODE BEGIN USART2_MspInit 1 */

  /* USER CODE END USART2_MspInit 1 */
  }

}
 8007052:	bf00      	nop
 8007054:	3728      	adds	r7, #40	; 0x28
 8007056:	46bd      	mov	sp, r7
 8007058:	bd80      	pop	{r7, pc}
 800705a:	bf00      	nop
 800705c:	40004400 	.word	0x40004400
 8007060:	40023800 	.word	0x40023800
 8007064:	40020000 	.word	0x40020000

08007068 <NMI_Handler>:
/******************************************************************************/
/**
  * @brief This function handles Non maskable interrupt.
  */
void NMI_Handler(void)
{
 8007068:	b480      	push	{r7}
 800706a:	af00      	add	r7, sp, #0
  /* USER CODE BEGIN NonMaskableInt_IRQn 0 */

  /* USER CODE END NonMaskableInt_IRQn 0 */
  /* USER CODE BEGIN NonMaskableInt_IRQn 1 */
  while (1)
 800706c:	e7fe      	b.n	800706c <NMI_Handler+0x4>

0800706e <HardFault_Handler>:

/**
  * @brief This function handles Hard fault interrupt.
  */
void HardFault_Handler(void)
{
 800706e:	b480      	push	{r7}
 8007070:	af00      	add	r7, sp, #0
  /* USER CODE BEGIN HardFault_IRQn 0 */

  /* USER CODE END HardFault_IRQn 0 */
  while (1)
 8007072:	e7fe      	b.n	8007072 <HardFault_Handler+0x4>

08007074 <MemManage_Handler>:

/**
  * @brief This function handles Memory management fault.
  */
void MemManage_Handler(void)
{
 8007074:	b480      	push	{r7}
 8007076:	af00      	add	r7, sp, #0
  /* USER CODE BEGIN MemoryManagement_IRQn 0 */

  /* USER CODE END MemoryManagement_IRQn 0 */
  while (1)
 8007078:	e7fe      	b.n	8007078 <MemManage_Handler+0x4>

0800707a <BusFault_Handler>:

/**
  * @brief This function handles Pre-fetch fault, memory access fault.
  */
void BusFault_Handler(void)
{
 800707a:	b480      	push	{r7}
 800707c:	af00      	add	r7, sp, #0
  /* USER CODE BEGIN BusFault_IRQn 0 */

  /* USER CODE END BusFault_IRQn 0 */
  while (1)
 800707e:	e7fe      	b.n	800707e <BusFault_Handler+0x4>

08007080 <UsageFault_Handler>:

/**
  * @brief This function handles Undefined instruction or illegal state.
  */
void UsageFault_Handler(void)
{
 8007080:	b480      	push	{r7}
 8007082:	af00      	add	r7, sp, #0
  /* USER CODE BEGIN UsageFault_IRQn 0 */

  /* USER CODE END UsageFault_IRQn 0 */
  while (1)
 8007084:	e7fe      	b.n	8007084 <UsageFault_Handler+0x4>

08007086 <SVC_Handler>:

/**
  * @brief This function handles System service call via SWI instruction.
  */
void SVC_Handler(void)
{
 8007086:	b480      	push	{r7}
 8007088:	af00      	add	r7, sp, #0

  /* USER CODE END SVCall_IRQn 0 */
  /* USER CODE BEGIN SVCall_IRQn 1 */

  /* USER CODE END SVCall_IRQn 1 */
}
 800708a:	bf00      	nop
 800708c:	46bd      	mov	sp, r7
 800708e:	f85d 7b04 	ldr.w	r7, [sp], #4
 8007092:	4770      	bx	lr

08007094 <DebugMon_Handler>:

/**
  * @brief This function handles Debug monitor.
  */
void DebugMon_Handler(void)
{
 8007094:	b480      	push	{r7}
 8007096:	af00      	add	r7, sp, #0

  /* USER CODE END DebugMonitor_IRQn 0 */
  /* USER CODE BEGIN DebugMonitor_IRQn 1 */

  /* USER CODE END DebugMonitor_IRQn 1 */
}
 8007098:	bf00      	nop
 800709a:	46bd      	mov	sp, r7
 800709c:	f85d 7b04 	ldr.w	r7, [sp], #4
 80070a0:	4770      	bx	lr

080070a2 <PendSV_Handler>:

/**
  * @brief This function handles Pendable request for system service.
  */
void PendSV_Handler(void)
{
 80070a2:	b480      	push	{r7}
 80070a4:	af00      	add	r7, sp, #0

  /* USER CODE END PendSV_IRQn 0 */
  /* USER CODE BEGIN PendSV_IRQn 1 */

  /* USER CODE END PendSV_IRQn 1 */
}
 80070a6:	bf00      	nop
 80070a8:	46bd      	mov	sp, r7
 80070aa:	f85d 7b04 	ldr.w	r7, [sp], #4
 80070ae:	4770      	bx	lr

080070b0 <SysTick_Handler>:

/**
  * @brief This function handles System tick timer.
  */
void SysTick_Handler(void)
{
 80070b0:	b580      	push	{r7, lr}
 80070b2:	af00      	add	r7, sp, #0
  /* USER CODE BEGIN SysTick_IRQn 0 */

  /* USER CODE END SysTick_IRQn 0 */
  HAL_IncTick();
 80070b4:	f000 f924 	bl	8007300 <HAL_IncTick>
  /* USER CODE BEGIN SysTick_IRQn 1 */

  /* USER CODE END SysTick_IRQn 1 */
}
 80070b8:	bf00      	nop
 80070ba:	bd80      	pop	{r7, pc}

080070bc <SystemInit>:
  *         configuration.
  * @param  None
  * @retval None
  */
void SystemInit(void)
{
 80070bc:	b480      	push	{r7}
 80070be:	af00      	add	r7, sp, #0
  /* FPU settings ------------------------------------------------------------*/
  #if (__FPU_PRESENT == 1) && (__FPU_USED == 1)
    SCB->CPACR |= ((3UL << 10*2)|(3UL << 11*2));  /* set CP10 and CP11 Full Access */
 80070c0:	4b06      	ldr	r3, [pc, #24]	; (80070dc <SystemInit+0x20>)
 80070c2:	f8d3 3088 	ldr.w	r3, [r3, #136]	; 0x88
 80070c6:	4a05      	ldr	r2, [pc, #20]	; (80070dc <SystemInit+0x20>)
 80070c8:	f443 0370 	orr.w	r3, r3, #15728640	; 0xf00000
 80070cc:	f8c2 3088 	str.w	r3, [r2, #136]	; 0x88

  /* Configure the Vector Table location -------------------------------------*/
#if defined(USER_VECT_TAB_ADDRESS)
  SCB->VTOR = VECT_TAB_BASE_ADDRESS | VECT_TAB_OFFSET; /* Vector Table Relocation in Internal SRAM */
#endif /* USER_VECT_TAB_ADDRESS */
}
 80070d0:	bf00      	nop
 80070d2:	46bd      	mov	sp, r7
 80070d4:	f85d 7b04 	ldr.w	r7, [sp], #4
 80070d8:	4770      	bx	lr
 80070da:	bf00      	nop
 80070dc:	e000ed00 	.word	0xe000ed00

080070e0 <Boot_VerifySignature>:
 */

#include "uECC.h"
/* ================= VERIFY SIGNATURE ================= */
uint8_t Boot_VerifySignature(uint32_t app_address, uint32_t app_size, const uint8_t *signature)
{
 80070e0:	b580      	push	{r7, lr}
 80070e2:	b0be      	sub	sp, #248	; 0xf8
 80070e4:	af06      	add	r7, sp, #24
 80070e6:	60f8      	str	r0, [r7, #12]
 80070e8:	60b9      	str	r1, [r7, #8]
 80070ea:	607a      	str	r2, [r7, #4]
    /* --- Step 1: SHA-256 of flashed app in-place --- */
    uint8_t digest[32];
    size_t  digest_len = 0;
 80070ec:	2300      	movs	r3, #0
 80070ee:	f8c7 30b4 	str.w	r3, [r7, #180]	; 0xb4

    cmox_sha256_handle_t sha_handle;
    cmox_hash_handle_t  *hash = cmox_sha256_construct(&sha_handle);
 80070f2:	f107 0330 	add.w	r3, r7, #48	; 0x30
 80070f6:	4618      	mov	r0, r3
 80070f8:	f7fd fc54 	bl	80049a4 <cmox_sha256_construct>
 80070fc:	f8c7 00dc 	str.w	r0, [r7, #220]	; 0xdc

    if (hash == NULL)                                          return 0;
 8007100:	f8d7 30dc 	ldr.w	r3, [r7, #220]	; 0xdc
 8007104:	2b00      	cmp	r3, #0
 8007106:	d101      	bne.n	800710c <Boot_VerifySignature+0x2c>
 8007108:	2300      	movs	r3, #0
 800710a:	e06e      	b.n	80071ea <Boot_VerifySignature+0x10a>
    if (cmox_hash_init(hash)           != CMOX_HASH_SUCCESS)  return 0;
 800710c:	f8d7 00dc 	ldr.w	r0, [r7, #220]	; 0xdc
 8007110:	f7fb feec 	bl	8002eec <cmox_hash_init>
 8007114:	4603      	mov	r3, r0
 8007116:	f5b3 3f00 	cmp.w	r3, #131072	; 0x20000
 800711a:	d001      	beq.n	8007120 <Boot_VerifySignature+0x40>
 800711c:	2300      	movs	r3, #0
 800711e:	e064      	b.n	80071ea <Boot_VerifySignature+0x10a>
    if (cmox_hash_setTagLen(hash, 32U) != CMOX_HASH_SUCCESS)  return 0;
 8007120:	2120      	movs	r1, #32
 8007122:	f8d7 00dc 	ldr.w	r0, [r7, #220]	; 0xdc
 8007126:	f7fb fef1 	bl	8002f0c <cmox_hash_setTagLen>
 800712a:	4603      	mov	r3, r0
 800712c:	f5b3 3f00 	cmp.w	r3, #131072	; 0x20000
 8007130:	d001      	beq.n	8007136 <Boot_VerifySignature+0x56>
 8007132:	2300      	movs	r3, #0
 8007134:	e059      	b.n	80071ea <Boot_VerifySignature+0x10a>

    /* Feed flash content directly — no copy needed, flash is memory-mapped */
    if (cmox_hash_append(hash, (const uint8_t *)app_address, (size_t)app_size)
 8007136:	68fb      	ldr	r3, [r7, #12]
 8007138:	68ba      	ldr	r2, [r7, #8]
 800713a:	4619      	mov	r1, r3
 800713c:	f8d7 00dc 	ldr.w	r0, [r7, #220]	; 0xdc
 8007140:	f7fb fef6 	bl	8002f30 <cmox_hash_append>
 8007144:	4603      	mov	r3, r0
 8007146:	f5b3 3f00 	cmp.w	r3, #131072	; 0x20000
 800714a:	d005      	beq.n	8007158 <Boot_VerifySignature+0x78>
        != CMOX_HASH_SUCCESS)
    {
        cmox_hash_cleanup(hash);
 800714c:	f8d7 00dc 	ldr.w	r0, [r7, #220]	; 0xdc
 8007150:	f7fb febc 	bl	8002ecc <cmox_hash_cleanup>
        return 0;
 8007154:	2300      	movs	r3, #0
 8007156:	e048      	b.n	80071ea <Boot_VerifySignature+0x10a>
    }

    if (cmox_hash_generateTag(hash, digest, &digest_len) != CMOX_HASH_SUCCESS)
 8007158:	f107 02b4 	add.w	r2, r7, #180	; 0xb4
 800715c:	f107 03b8 	add.w	r3, r7, #184	; 0xb8
 8007160:	4619      	mov	r1, r3
 8007162:	f8d7 00dc 	ldr.w	r0, [r7, #220]	; 0xdc
 8007166:	f7fb fef5 	bl	8002f54 <cmox_hash_generateTag>
 800716a:	4603      	mov	r3, r0
 800716c:	f5b3 3f00 	cmp.w	r3, #131072	; 0x20000
 8007170:	d005      	beq.n	800717e <Boot_VerifySignature+0x9e>
    {
        cmox_hash_cleanup(hash);
 8007172:	f8d7 00dc 	ldr.w	r0, [r7, #220]	; 0xdc
 8007176:	f7fb fea9 	bl	8002ecc <cmox_hash_cleanup>
        return 0;
 800717a:	2300      	movs	r3, #0
 800717c:	e035      	b.n	80071ea <Boot_VerifySignature+0x10a>
    }
    cmox_hash_cleanup(hash);
 800717e:	f8d7 00dc 	ldr.w	r0, [r7, #220]	; 0xdc
 8007182:	f7fb fea3 	bl	8002ecc <cmox_hash_cleanup>
    /* --- Step 2: ECDSA P-256 verify --- */
    /* Static working buffer — no heap needed */
    static uint8_t ecc_membuf[CMOX_ECC_MEMBUF_SIZE];

    cmox_ecc_handle_t ecc_ctx;
    cmox_ecc_construct(&ecc_ctx, CMOX_MATH_FUNCS_SMALL,
 8007186:	4b1b      	ldr	r3, [pc, #108]	; (80071f4 <Boot_VerifySignature+0x114>)
 8007188:	6819      	ldr	r1, [r3, #0]
 800718a:	f107 0018 	add.w	r0, r7, #24
 800718e:	f44f 6380 	mov.w	r3, #1024	; 0x400
 8007192:	4a19      	ldr	r2, [pc, #100]	; (80071f8 <Boot_VerifySignature+0x118>)
 8007194:	f7f9 faea 	bl	800076c <cmox_ecc_construct>
                       ecc_membuf, sizeof(ecc_membuf));

    uint32_t          fault_check = 0;
 8007198:	2300      	movs	r3, #0
 800719a:	617b      	str	r3, [r7, #20]
    cmox_ecc_retval_t rv;

    rv = cmox_ecdsa_verify(
 800719c:	4b17      	ldr	r3, [pc, #92]	; (80071fc <Boot_VerifySignature+0x11c>)
 800719e:	6819      	ldr	r1, [r3, #0]
 80071a0:	f107 0018 	add.w	r0, r7, #24
 80071a4:	f107 0314 	add.w	r3, r7, #20
 80071a8:	9304      	str	r3, [sp, #16]
 80071aa:	2340      	movs	r3, #64	; 0x40
 80071ac:	9303      	str	r3, [sp, #12]
 80071ae:	687b      	ldr	r3, [r7, #4]
 80071b0:	9302      	str	r3, [sp, #8]
 80071b2:	2320      	movs	r3, #32
 80071b4:	9301      	str	r3, [sp, #4]
 80071b6:	f107 03b8 	add.w	r3, r7, #184	; 0xb8
 80071ba:	9300      	str	r3, [sp, #0]
 80071bc:	2340      	movs	r3, #64	; 0x40
 80071be:	4a10      	ldr	r2, [pc, #64]	; (8007200 <Boot_VerifySignature+0x120>)
 80071c0:	f7fb f9c6 	bl	8002550 <cmox_ecdsa_verify>
 80071c4:	f8c7 00d8 	str.w	r0, [r7, #216]	; 0xd8
        digest,       32U,          /* SHA-256 of flashed app     */
        signature,    64U,          /* raw R || S from UART       */
        &fault_check
    );

    cmox_ecc_cleanup(&ecc_ctx);
 80071c8:	f107 0318 	add.w	r3, r7, #24
 80071cc:	4618      	mov	r0, r3
 80071ce:	f7f9 fae3 	bl	8000798 <cmox_ecc_cleanup>

    /* Both rv AND fault_check must equal AUTH_SUCCESS — double check against fault injection */
    if ((rv == CMOX_ECC_AUTH_SUCCESS) && (fault_check == CMOX_ECC_AUTH_SUCCESS))
 80071d2:	f8d7 30d8 	ldr.w	r3, [r7, #216]	; 0xd8
 80071d6:	4a0b      	ldr	r2, [pc, #44]	; (8007204 <Boot_VerifySignature+0x124>)
 80071d8:	4293      	cmp	r3, r2
 80071da:	d105      	bne.n	80071e8 <Boot_VerifySignature+0x108>
 80071dc:	697b      	ldr	r3, [r7, #20]
 80071de:	4a09      	ldr	r2, [pc, #36]	; (8007204 <Boot_VerifySignature+0x124>)
 80071e0:	4293      	cmp	r3, r2
 80071e2:	d101      	bne.n	80071e8 <Boot_VerifySignature+0x108>
        return 1;
 80071e4:	2301      	movs	r3, #1
 80071e6:	e000      	b.n	80071ea <Boot_VerifySignature+0x10a>

    return 0;
 80071e8:	2300      	movs	r3, #0
}
 80071ea:	4618      	mov	r0, r3
 80071ec:	37e0      	adds	r7, #224	; 0xe0
 80071ee:	46bd      	mov	sp, r7
 80071f0:	bd80      	pop	{r7, pc}
 80071f2:	bf00      	nop
 80071f4:	08009770 	.word	0x08009770
 80071f8:	20000ac0 	.word	0x20000ac0
 80071fc:	080094ec 	.word	0x080094ec
 8007200:	08009930 	.word	0x08009930
 8007204:	0006c726 	.word	0x0006c726

08007208 <Reset_Handler>:

    .section  .text.Reset_Handler
  .weak  Reset_Handler
  .type  Reset_Handler, %function
Reset_Handler:  
  ldr   sp, =_estack    		 /* set stack pointer */
 8007208:	f8df d034 	ldr.w	sp, [pc, #52]	; 8007240 <LoopFillZerobss+0x12>

/* Copy the data segment initializers from flash to SRAM */  
  ldr r0, =_sdata
 800720c:	480d      	ldr	r0, [pc, #52]	; (8007244 <LoopFillZerobss+0x16>)
  ldr r1, =_edata
 800720e:	490e      	ldr	r1, [pc, #56]	; (8007248 <LoopFillZerobss+0x1a>)
  ldr r2, =_sidata
 8007210:	4a0e      	ldr	r2, [pc, #56]	; (800724c <LoopFillZerobss+0x1e>)
  movs r3, #0
 8007212:	2300      	movs	r3, #0
  b LoopCopyDataInit
 8007214:	e002      	b.n	800721c <LoopCopyDataInit>

08007216 <CopyDataInit>:

CopyDataInit:
  ldr r4, [r2, r3]
 8007216:	58d4      	ldr	r4, [r2, r3]
  str r4, [r0, r3]
 8007218:	50c4      	str	r4, [r0, r3]
  adds r3, r3, #4
 800721a:	3304      	adds	r3, #4

0800721c <LoopCopyDataInit>:

LoopCopyDataInit:
  adds r4, r0, r3
 800721c:	18c4      	adds	r4, r0, r3
  cmp r4, r1
 800721e:	428c      	cmp	r4, r1
  bcc CopyDataInit
 8007220:	d3f9      	bcc.n	8007216 <CopyDataInit>
  
/* Zero fill the bss segment. */
  ldr r2, =_sbss
 8007222:	4a0b      	ldr	r2, [pc, #44]	; (8007250 <LoopFillZerobss+0x22>)
  ldr r4, =_ebss
 8007224:	4c0b      	ldr	r4, [pc, #44]	; (8007254 <LoopFillZerobss+0x26>)
  movs r3, #0
 8007226:	2300      	movs	r3, #0
  b LoopFillZerobss
 8007228:	e001      	b.n	800722e <LoopFillZerobss>

0800722a <FillZerobss>:

FillZerobss:
  str  r3, [r2]
 800722a:	6013      	str	r3, [r2, #0]
  adds r2, r2, #4
 800722c:	3204      	adds	r2, #4

0800722e <LoopFillZerobss>:

LoopFillZerobss:
  cmp r2, r4
 800722e:	42a2      	cmp	r2, r4
  bcc FillZerobss
 8007230:	d3fb      	bcc.n	800722a <FillZerobss>

/* Call the clock system intitialization function.*/
  bl  SystemInit   
 8007232:	f7ff ff43 	bl	80070bc <SystemInit>
/* Call static constructors */
    bl __libc_init_array
 8007236:	f002 f82f 	bl	8009298 <__libc_init_array>
/* Call the application's entry point.*/
  bl  main
 800723a:	f7ff fd3b 	bl	8006cb4 <main>
  bx  lr    
 800723e:	4770      	bx	lr
  ldr   sp, =_estack    		 /* set stack pointer */
 8007240:	20020000 	.word	0x20020000
  ldr r0, =_sdata
 8007244:	20000000 	.word	0x20000000
  ldr r1, =_edata
 8007248:	2000000c 	.word	0x2000000c
  ldr r2, =_sidata
 800724c:	0800a0e4 	.word	0x0800a0e4
  ldr r2, =_sbss
 8007250:	2000000c 	.word	0x2000000c
  ldr r4, =_ebss
 8007254:	20000f30 	.word	0x20000f30

08007258 <ADC_IRQHandler>:
 * @retval None       
*/
    .section  .text.Default_Handler,"ax",%progbits
Default_Handler:
Infinite_Loop:
  b  Infinite_Loop
 8007258:	e7fe      	b.n	8007258 <ADC_IRQHandler>
	...

0800725c <HAL_Init>:
  *         need to ensure that the SysTick time base is always set to 1 millisecond
  *         to have correct HAL operation.
  * @retval HAL status
  */
HAL_StatusTypeDef HAL_Init(void)
{
 800725c:	b580      	push	{r7, lr}
 800725e:	af00      	add	r7, sp, #0
  /* Configure Flash prefetch, Instruction cache, Data cache */ 
#if (INSTRUCTION_CACHE_ENABLE != 0U)
  __HAL_FLASH_INSTRUCTION_CACHE_ENABLE();
 8007260:	4b0e      	ldr	r3, [pc, #56]	; (800729c <HAL_Init+0x40>)
 8007262:	681b      	ldr	r3, [r3, #0]
 8007264:	4a0d      	ldr	r2, [pc, #52]	; (800729c <HAL_Init+0x40>)
 8007266:	f443 7300 	orr.w	r3, r3, #512	; 0x200
 800726a:	6013      	str	r3, [r2, #0]
#endif /* INSTRUCTION_CACHE_ENABLE */

#if (DATA_CACHE_ENABLE != 0U)
  __HAL_FLASH_DATA_CACHE_ENABLE();
 800726c:	4b0b      	ldr	r3, [pc, #44]	; (800729c <HAL_Init+0x40>)
 800726e:	681b      	ldr	r3, [r3, #0]
 8007270:	4a0a      	ldr	r2, [pc, #40]	; (800729c <HAL_Init+0x40>)
 8007272:	f443 6380 	orr.w	r3, r3, #1024	; 0x400
 8007276:	6013      	str	r3, [r2, #0]
#endif /* DATA_CACHE_ENABLE */

#if (PREFETCH_ENABLE != 0U)
  __HAL_FLASH_PREFETCH_BUFFER_ENABLE();
 8007278:	4b08      	ldr	r3, [pc, #32]	; (800729c <HAL_Init+0x40>)
 800727a:	681b      	ldr	r3, [r3, #0]
 800727c:	4a07      	ldr	r2, [pc, #28]	; (800729c <HAL_Init+0x40>)
 800727e:	f443 7380 	orr.w	r3, r3, #256	; 0x100
 8007282:	6013      	str	r3, [r2, #0]
#endif /* PREFETCH_ENABLE */

  /* Set Interrupt Group Priority */
  HAL_NVIC_SetPriorityGrouping(NVIC_PRIORITYGROUP_4);
 8007284:	2003      	movs	r0, #3
 8007286:	f000 f90d 	bl	80074a4 <HAL_NVIC_SetPriorityGrouping>

  /* Use systick as time base source and configure 1ms tick (default clock after Reset is HSI) */
  HAL_InitTick(TICK_INT_PRIORITY);
 800728a:	2000      	movs	r0, #0
 800728c:	f000 f808 	bl	80072a0 <HAL_InitTick>

  /* Init the low level hardware */
  HAL_MspInit();
 8007290:	f7ff fe58 	bl	8006f44 <HAL_MspInit>

  /* Return function status */
  return HAL_OK;
 8007294:	2300      	movs	r3, #0
}
 8007296:	4618      	mov	r0, r3
 8007298:	bd80      	pop	{r7, pc}
 800729a:	bf00      	nop
 800729c:	40023c00 	.word	0x40023c00

080072a0 <HAL_InitTick>:
  *       implementation  in user file.
  * @param TickPriority Tick interrupt priority.
  * @retval HAL status
  */
__weak HAL_StatusTypeDef HAL_InitTick(uint32_t TickPriority)
{
 80072a0:	b580      	push	{r7, lr}
 80072a2:	b082      	sub	sp, #8
 80072a4:	af00      	add	r7, sp, #0
 80072a6:	6078      	str	r0, [r7, #4]
  /* Configure the SysTick to have interrupt in 1ms time basis*/
  if (HAL_SYSTICK_Config(SystemCoreClock / (1000U / uwTickFreq)) > 0U)
 80072a8:	4b12      	ldr	r3, [pc, #72]	; (80072f4 <HAL_InitTick+0x54>)
 80072aa:	681a      	ldr	r2, [r3, #0]
 80072ac:	4b12      	ldr	r3, [pc, #72]	; (80072f8 <HAL_InitTick+0x58>)
 80072ae:	781b      	ldrb	r3, [r3, #0]
 80072b0:	4619      	mov	r1, r3
 80072b2:	f44f 737a 	mov.w	r3, #1000	; 0x3e8
 80072b6:	fbb3 f3f1 	udiv	r3, r3, r1
 80072ba:	fbb2 f3f3 	udiv	r3, r2, r3
 80072be:	4618      	mov	r0, r3
 80072c0:	f000 f917 	bl	80074f2 <HAL_SYSTICK_Config>
 80072c4:	4603      	mov	r3, r0
 80072c6:	2b00      	cmp	r3, #0
 80072c8:	d001      	beq.n	80072ce <HAL_InitTick+0x2e>
  {
    return HAL_ERROR;
 80072ca:	2301      	movs	r3, #1
 80072cc:	e00e      	b.n	80072ec <HAL_InitTick+0x4c>
  }

  /* Configure the SysTick IRQ priority */
  if (TickPriority < (1UL << __NVIC_PRIO_BITS))
 80072ce:	687b      	ldr	r3, [r7, #4]
 80072d0:	2b0f      	cmp	r3, #15
 80072d2:	d80a      	bhi.n	80072ea <HAL_InitTick+0x4a>
  {
    HAL_NVIC_SetPriority(SysTick_IRQn, TickPriority, 0U);
 80072d4:	2200      	movs	r2, #0
 80072d6:	6879      	ldr	r1, [r7, #4]
 80072d8:	f04f 30ff 	mov.w	r0, #4294967295
 80072dc:	f000 f8ed 	bl	80074ba <HAL_NVIC_SetPriority>
    uwTickPrio = TickPriority;
 80072e0:	4a06      	ldr	r2, [pc, #24]	; (80072fc <HAL_InitTick+0x5c>)
 80072e2:	687b      	ldr	r3, [r7, #4]
 80072e4:	6013      	str	r3, [r2, #0]
  {
    return HAL_ERROR;
  }

  /* Return function status */
  return HAL_OK;
 80072e6:	2300      	movs	r3, #0
 80072e8:	e000      	b.n	80072ec <HAL_InitTick+0x4c>
    return HAL_ERROR;
 80072ea:	2301      	movs	r3, #1
}
 80072ec:	4618      	mov	r0, r3
 80072ee:	3708      	adds	r7, #8
 80072f0:	46bd      	mov	sp, r7
 80072f2:	bd80      	pop	{r7, pc}
 80072f4:	20000000 	.word	0x20000000
 80072f8:	20000008 	.word	0x20000008
 80072fc:	20000004 	.word	0x20000004

08007300 <HAL_IncTick>:
 * @note This function is declared as __weak to be overwritten in case of other 
  *      implementations in user file.
  * @retval None
  */
__weak void HAL_IncTick(void)
{
 8007300:	b480      	push	{r7}
 8007302:	af00      	add	r7, sp, #0
  uwTick += uwTickFreq;
 8007304:	4b06      	ldr	r3, [pc, #24]	; (8007320 <HAL_IncTick+0x20>)
 8007306:	781b      	ldrb	r3, [r3, #0]
 8007308:	461a      	mov	r2, r3
 800730a:	4b06      	ldr	r3, [pc, #24]	; (8007324 <HAL_IncTick+0x24>)
 800730c:	681b      	ldr	r3, [r3, #0]
 800730e:	4413      	add	r3, r2
 8007310:	4a04      	ldr	r2, [pc, #16]	; (8007324 <HAL_IncTick+0x24>)
 8007312:	6013      	str	r3, [r2, #0]
}
 8007314:	bf00      	nop
 8007316:	46bd      	mov	sp, r7
 8007318:	f85d 7b04 	ldr.w	r7, [sp], #4
 800731c:	4770      	bx	lr
 800731e:	bf00      	nop
 8007320:	20000008 	.word	0x20000008
 8007324:	20000f0c 	.word	0x20000f0c

08007328 <HAL_GetTick>:
  * @note This function is declared as __weak to be overwritten in case of other 
  *       implementations in user file.
  * @retval tick value
  */
__weak uint32_t HAL_GetTick(void)
{
 8007328:	b480      	push	{r7}
 800732a:	af00      	add	r7, sp, #0
  return uwTick;
 800732c:	4b03      	ldr	r3, [pc, #12]	; (800733c <HAL_GetTick+0x14>)
 800732e:	681b      	ldr	r3, [r3, #0]
}
 8007330:	4618      	mov	r0, r3
 8007332:	46bd      	mov	sp, r7
 8007334:	f85d 7b04 	ldr.w	r7, [sp], #4
 8007338:	4770      	bx	lr
 800733a:	bf00      	nop
 800733c:	20000f0c 	.word	0x20000f0c

08007340 <__NVIC_SetPriorityGrouping>:
           In case of a conflict between priority grouping and available
           priority bits (__NVIC_PRIO_BITS), the smallest possible priority group is set.
  \param [in]      PriorityGroup  Priority grouping field.
 */
__STATIC_INLINE void __NVIC_SetPriorityGrouping(uint32_t PriorityGroup)
{
 8007340:	b480      	push	{r7}
 8007342:	b085      	sub	sp, #20
 8007344:	af00      	add	r7, sp, #0
 8007346:	6078      	str	r0, [r7, #4]
  uint32_t reg_value;
  uint32_t PriorityGroupTmp = (PriorityGroup & (uint32_t)0x07UL);             /* only values 0..7 are used          */
 8007348:	687b      	ldr	r3, [r7, #4]
 800734a:	f003 0307 	and.w	r3, r3, #7
 800734e:	60fb      	str	r3, [r7, #12]

  reg_value  =  SCB->AIRCR;                                                   /* read old register configuration    */
 8007350:	4b0c      	ldr	r3, [pc, #48]	; (8007384 <__NVIC_SetPriorityGrouping+0x44>)
 8007352:	68db      	ldr	r3, [r3, #12]
 8007354:	60bb      	str	r3, [r7, #8]
  reg_value &= ~((uint32_t)(SCB_AIRCR_VECTKEY_Msk | SCB_AIRCR_PRIGROUP_Msk)); /* clear bits to change               */
 8007356:	68ba      	ldr	r2, [r7, #8]
 8007358:	f64f 03ff 	movw	r3, #63743	; 0xf8ff
 800735c:	4013      	ands	r3, r2
 800735e:	60bb      	str	r3, [r7, #8]
  reg_value  =  (reg_value                                   |
                ((uint32_t)0x5FAUL << SCB_AIRCR_VECTKEY_Pos) |
                (PriorityGroupTmp << SCB_AIRCR_PRIGROUP_Pos)  );              /* Insert write key and priority group */
 8007360:	68fb      	ldr	r3, [r7, #12]
 8007362:	021a      	lsls	r2, r3, #8
                ((uint32_t)0x5FAUL << SCB_AIRCR_VECTKEY_Pos) |
 8007364:	68bb      	ldr	r3, [r7, #8]
 8007366:	4313      	orrs	r3, r2
  reg_value  =  (reg_value                                   |
 8007368:	f043 63bf 	orr.w	r3, r3, #100139008	; 0x5f80000
 800736c:	f443 3300 	orr.w	r3, r3, #131072	; 0x20000
 8007370:	60bb      	str	r3, [r7, #8]
  SCB->AIRCR =  reg_value;
 8007372:	4a04      	ldr	r2, [pc, #16]	; (8007384 <__NVIC_SetPriorityGrouping+0x44>)
 8007374:	68bb      	ldr	r3, [r7, #8]
 8007376:	60d3      	str	r3, [r2, #12]
}
 8007378:	bf00      	nop
 800737a:	3714      	adds	r7, #20
 800737c:	46bd      	mov	sp, r7
 800737e:	f85d 7b04 	ldr.w	r7, [sp], #4
 8007382:	4770      	bx	lr
 8007384:	e000ed00 	.word	0xe000ed00

08007388 <__NVIC_GetPriorityGrouping>:
  \brief   Get Priority Grouping
  \details Reads the priority grouping field from the NVIC Interrupt Controller.
  \return                Priority grouping field (SCB->AIRCR [10:8] PRIGROUP field).
 */
__STATIC_INLINE uint32_t __NVIC_GetPriorityGrouping(void)
{
 8007388:	b480      	push	{r7}
 800738a:	af00      	add	r7, sp, #0
  return ((uint32_t)((SCB->AIRCR & SCB_AIRCR_PRIGROUP_Msk) >> SCB_AIRCR_PRIGROUP_Pos));
 800738c:	4b04      	ldr	r3, [pc, #16]	; (80073a0 <__NVIC_GetPriorityGrouping+0x18>)
 800738e:	68db      	ldr	r3, [r3, #12]
 8007390:	0a1b      	lsrs	r3, r3, #8
 8007392:	f003 0307 	and.w	r3, r3, #7
}
 8007396:	4618      	mov	r0, r3
 8007398:	46bd      	mov	sp, r7
 800739a:	f85d 7b04 	ldr.w	r7, [sp], #4
 800739e:	4770      	bx	lr
 80073a0:	e000ed00 	.word	0xe000ed00

080073a4 <__NVIC_SetPriority>:
  \param [in]      IRQn  Interrupt number.
  \param [in]  priority  Priority to set.
  \note    The priority cannot be set for every processor exception.
 */
__STATIC_INLINE void __NVIC_SetPriority(IRQn_Type IRQn, uint32_t priority)
{
 80073a4:	b480      	push	{r7}
 80073a6:	b083      	sub	sp, #12
 80073a8:	af00      	add	r7, sp, #0
 80073aa:	4603      	mov	r3, r0
 80073ac:	6039      	str	r1, [r7, #0]
 80073ae:	71fb      	strb	r3, [r7, #7]
  if ((int32_t)(IRQn) >= 0)
 80073b0:	f997 3007 	ldrsb.w	r3, [r7, #7]
 80073b4:	2b00      	cmp	r3, #0
 80073b6:	db0a      	blt.n	80073ce <__NVIC_SetPriority+0x2a>
  {
    NVIC->IP[((uint32_t)IRQn)]               = (uint8_t)((priority << (8U - __NVIC_PRIO_BITS)) & (uint32_t)0xFFUL);
 80073b8:	683b      	ldr	r3, [r7, #0]
 80073ba:	b2da      	uxtb	r2, r3
 80073bc:	490c      	ldr	r1, [pc, #48]	; (80073f0 <__NVIC_SetPriority+0x4c>)
 80073be:	f997 3007 	ldrsb.w	r3, [r7, #7]
 80073c2:	0112      	lsls	r2, r2, #4
 80073c4:	b2d2      	uxtb	r2, r2
 80073c6:	440b      	add	r3, r1
 80073c8:	f883 2300 	strb.w	r2, [r3, #768]	; 0x300
  }
  else
  {
    SCB->SHP[(((uint32_t)IRQn) & 0xFUL)-4UL] = (uint8_t)((priority << (8U - __NVIC_PRIO_BITS)) & (uint32_t)0xFFUL);
  }
}
 80073cc:	e00a      	b.n	80073e4 <__NVIC_SetPriority+0x40>
    SCB->SHP[(((uint32_t)IRQn) & 0xFUL)-4UL] = (uint8_t)((priority << (8U - __NVIC_PRIO_BITS)) & (uint32_t)0xFFUL);
 80073ce:	683b      	ldr	r3, [r7, #0]
 80073d0:	b2da      	uxtb	r2, r3
 80073d2:	4908      	ldr	r1, [pc, #32]	; (80073f4 <__NVIC_SetPriority+0x50>)
 80073d4:	79fb      	ldrb	r3, [r7, #7]
 80073d6:	f003 030f 	and.w	r3, r3, #15
 80073da:	3b04      	subs	r3, #4
 80073dc:	0112      	lsls	r2, r2, #4
 80073de:	b2d2      	uxtb	r2, r2
 80073e0:	440b      	add	r3, r1
 80073e2:	761a      	strb	r2, [r3, #24]
}
 80073e4:	bf00      	nop
 80073e6:	370c      	adds	r7, #12
 80073e8:	46bd      	mov	sp, r7
 80073ea:	f85d 7b04 	ldr.w	r7, [sp], #4
 80073ee:	4770      	bx	lr
 80073f0:	e000e100 	.word	0xe000e100
 80073f4:	e000ed00 	.word	0xe000ed00

080073f8 <NVIC_EncodePriority>:
  \param [in]   PreemptPriority  Preemptive priority value (starting from 0).
  \param [in]       SubPriority  Subpriority value (starting from 0).
  \return                        Encoded priority. Value can be used in the function \ref NVIC_SetPriority().
 */
__STATIC_INLINE uint32_t NVIC_EncodePriority (uint32_t PriorityGroup, uint32_t PreemptPriority, uint32_t SubPriority)
{
 80073f8:	b480      	push	{r7}
 80073fa:	b089      	sub	sp, #36	; 0x24
 80073fc:	af00      	add	r7, sp, #0
 80073fe:	60f8      	str	r0, [r7, #12]
 8007400:	60b9      	str	r1, [r7, #8]
 8007402:	607a      	str	r2, [r7, #4]
  uint32_t PriorityGroupTmp = (PriorityGroup & (uint32_t)0x07UL);   /* only values 0..7 are used          */
 8007404:	68fb      	ldr	r3, [r7, #12]
 8007406:	f003 0307 	and.w	r3, r3, #7
 800740a:	61fb      	str	r3, [r7, #28]
  uint32_t PreemptPriorityBits;
  uint32_t SubPriorityBits;

  PreemptPriorityBits = ((7UL - PriorityGroupTmp) > (uint32_t)(__NVIC_PRIO_BITS)) ? (uint32_t)(__NVIC_PRIO_BITS) : (uint32_t)(7UL - PriorityGroupTmp);
 800740c:	69fb      	ldr	r3, [r7, #28]
 800740e:	f1c3 0307 	rsb	r3, r3, #7
 8007412:	2b04      	cmp	r3, #4
 8007414:	bf28      	it	cs
 8007416:	2304      	movcs	r3, #4
 8007418:	61bb      	str	r3, [r7, #24]
  SubPriorityBits     = ((PriorityGroupTmp + (uint32_t)(__NVIC_PRIO_BITS)) < (uint32_t)7UL) ? (uint32_t)0UL : (uint32_t)((PriorityGroupTmp - 7UL) + (uint32_t)(__NVIC_PRIO_BITS));
 800741a:	69fb      	ldr	r3, [r7, #28]
 800741c:	3304      	adds	r3, #4
 800741e:	2b06      	cmp	r3, #6
 8007420:	d902      	bls.n	8007428 <NVIC_EncodePriority+0x30>
 8007422:	69fb      	ldr	r3, [r7, #28]
 8007424:	3b03      	subs	r3, #3
 8007426:	e000      	b.n	800742a <NVIC_EncodePriority+0x32>
 8007428:	2300      	movs	r3, #0
 800742a:	617b      	str	r3, [r7, #20]

  return (
           ((PreemptPriority & (uint32_t)((1UL << (PreemptPriorityBits)) - 1UL)) << SubPriorityBits) |
 800742c:	f04f 32ff 	mov.w	r2, #4294967295
 8007430:	69bb      	ldr	r3, [r7, #24]
 8007432:	fa02 f303 	lsl.w	r3, r2, r3
 8007436:	43da      	mvns	r2, r3
 8007438:	68bb      	ldr	r3, [r7, #8]
 800743a:	401a      	ands	r2, r3
 800743c:	697b      	ldr	r3, [r7, #20]
 800743e:	409a      	lsls	r2, r3
           ((SubPriority     & (uint32_t)((1UL << (SubPriorityBits    )) - 1UL)))
 8007440:	f04f 31ff 	mov.w	r1, #4294967295
 8007444:	697b      	ldr	r3, [r7, #20]
 8007446:	fa01 f303 	lsl.w	r3, r1, r3
 800744a:	43d9      	mvns	r1, r3
 800744c:	687b      	ldr	r3, [r7, #4]
 800744e:	400b      	ands	r3, r1
           ((PreemptPriority & (uint32_t)((1UL << (PreemptPriorityBits)) - 1UL)) << SubPriorityBits) |
 8007450:	4313      	orrs	r3, r2
         );
}
 8007452:	4618      	mov	r0, r3
 8007454:	3724      	adds	r7, #36	; 0x24
 8007456:	46bd      	mov	sp, r7
 8007458:	f85d 7b04 	ldr.w	r7, [sp], #4
 800745c:	4770      	bx	lr
	...

08007460 <SysTick_Config>:
  \note    When the variable <b>__Vendor_SysTickConfig</b> is set to 1, then the
           function <b>SysTick_Config</b> is not included. In this case, the file <b><i>device</i>.h</b>
           must contain a vendor-specific implementation of this function.
 */
__STATIC_INLINE uint32_t SysTick_Config(uint32_t ticks)
{
 8007460:	b580      	push	{r7, lr}
 8007462:	b082      	sub	sp, #8
 8007464:	af00      	add	r7, sp, #0
 8007466:	6078      	str	r0, [r7, #4]
  if ((ticks - 1UL) > SysTick_LOAD_RELOAD_Msk)
 8007468:	687b      	ldr	r3, [r7, #4]
 800746a:	3b01      	subs	r3, #1
 800746c:	f1b3 7f80 	cmp.w	r3, #16777216	; 0x1000000
 8007470:	d301      	bcc.n	8007476 <SysTick_Config+0x16>
  {
    return (1UL);                                                   /* Reload value impossible */
 8007472:	2301      	movs	r3, #1
 8007474:	e00f      	b.n	8007496 <SysTick_Config+0x36>
  }

  SysTick->LOAD  = (uint32_t)(ticks - 1UL);                         /* set reload register */
 8007476:	4a0a      	ldr	r2, [pc, #40]	; (80074a0 <SysTick_Config+0x40>)
 8007478:	687b      	ldr	r3, [r7, #4]
 800747a:	3b01      	subs	r3, #1
 800747c:	6053      	str	r3, [r2, #4]
  NVIC_SetPriority (SysTick_IRQn, (1UL << __NVIC_PRIO_BITS) - 1UL); /* set Priority for Systick Interrupt */
 800747e:	210f      	movs	r1, #15
 8007480:	f04f 30ff 	mov.w	r0, #4294967295
 8007484:	f7ff ff8e 	bl	80073a4 <__NVIC_SetPriority>
  SysTick->VAL   = 0UL;                                             /* Load the SysTick Counter Value */
 8007488:	4b05      	ldr	r3, [pc, #20]	; (80074a0 <SysTick_Config+0x40>)
 800748a:	2200      	movs	r2, #0
 800748c:	609a      	str	r2, [r3, #8]
  SysTick->CTRL  = SysTick_CTRL_CLKSOURCE_Msk |
 800748e:	4b04      	ldr	r3, [pc, #16]	; (80074a0 <SysTick_Config+0x40>)
 8007490:	2207      	movs	r2, #7
 8007492:	601a      	str	r2, [r3, #0]
                   SysTick_CTRL_TICKINT_Msk   |
                   SysTick_CTRL_ENABLE_Msk;                         /* Enable SysTick IRQ and SysTick Timer */
  return (0UL);                                                     /* Function successful */
 8007494:	2300      	movs	r3, #0
}
 8007496:	4618      	mov	r0, r3
 8007498:	3708      	adds	r7, #8
 800749a:	46bd      	mov	sp, r7
 800749c:	bd80      	pop	{r7, pc}
 800749e:	bf00      	nop
 80074a0:	e000e010 	.word	0xe000e010

080074a4 <HAL_NVIC_SetPriorityGrouping>:
  * @note   When the NVIC_PriorityGroup_0 is selected, IRQ preemption is no more possible. 
  *         The pending IRQ priority will be managed only by the subpriority. 
  * @retval None
  */
void HAL_NVIC_SetPriorityGrouping(uint32_t PriorityGroup)
{
 80074a4:	b580      	push	{r7, lr}
 80074a6:	b082      	sub	sp, #8
 80074a8:	af00      	add	r7, sp, #0
 80074aa:	6078      	str	r0, [r7, #4]
  /* Check the parameters */
  assert_param(IS_NVIC_PRIORITY_GROUP(PriorityGroup));
  
  /* Set the PRIGROUP[10:8] bits according to the PriorityGroup parameter value */
  NVIC_SetPriorityGrouping(PriorityGroup);
 80074ac:	6878      	ldr	r0, [r7, #4]
 80074ae:	f7ff ff47 	bl	8007340 <__NVIC_SetPriorityGrouping>
}
 80074b2:	bf00      	nop
 80074b4:	3708      	adds	r7, #8
 80074b6:	46bd      	mov	sp, r7
 80074b8:	bd80      	pop	{r7, pc}

080074ba <HAL_NVIC_SetPriority>:
  *         This parameter can be a value between 0 and 15
  *         A lower priority value indicates a higher priority.          
  * @retval None
  */
void HAL_NVIC_SetPriority(IRQn_Type IRQn, uint32_t PreemptPriority, uint32_t SubPriority)
{ 
 80074ba:	b580      	push	{r7, lr}
 80074bc:	b086      	sub	sp, #24
 80074be:	af00      	add	r7, sp, #0
 80074c0:	4603      	mov	r3, r0
 80074c2:	60b9      	str	r1, [r7, #8]
 80074c4:	607a      	str	r2, [r7, #4]
 80074c6:	73fb      	strb	r3, [r7, #15]
  uint32_t prioritygroup = 0x00U;
 80074c8:	2300      	movs	r3, #0
 80074ca:	617b      	str	r3, [r7, #20]
  
  /* Check the parameters */
  assert_param(IS_NVIC_SUB_PRIORITY(SubPriority));
  assert_param(IS_NVIC_PREEMPTION_PRIORITY(PreemptPriority));
  
  prioritygroup = NVIC_GetPriorityGrouping();
 80074cc:	f7ff ff5c 	bl	8007388 <__NVIC_GetPriorityGrouping>
 80074d0:	6178      	str	r0, [r7, #20]
  
  NVIC_SetPriority(IRQn, NVIC_EncodePriority(prioritygroup, PreemptPriority, SubPriority));
 80074d2:	687a      	ldr	r2, [r7, #4]
 80074d4:	68b9      	ldr	r1, [r7, #8]
 80074d6:	6978      	ldr	r0, [r7, #20]
 80074d8:	f7ff ff8e 	bl	80073f8 <NVIC_EncodePriority>
 80074dc:	4602      	mov	r2, r0
 80074de:	f997 300f 	ldrsb.w	r3, [r7, #15]
 80074e2:	4611      	mov	r1, r2
 80074e4:	4618      	mov	r0, r3
 80074e6:	f7ff ff5d 	bl	80073a4 <__NVIC_SetPriority>
}
 80074ea:	bf00      	nop
 80074ec:	3718      	adds	r7, #24
 80074ee:	46bd      	mov	sp, r7
 80074f0:	bd80      	pop	{r7, pc}

080074f2 <HAL_SYSTICK_Config>:
  * @param  TicksNumb Specifies the ticks Number of ticks between two interrupts.
  * @retval status:  - 0  Function succeeded.
  *                  - 1  Function failed.
  */
uint32_t HAL_SYSTICK_Config(uint32_t TicksNumb)
{
 80074f2:	b580      	push	{r7, lr}
 80074f4:	b082      	sub	sp, #8
 80074f6:	af00      	add	r7, sp, #0
 80074f8:	6078      	str	r0, [r7, #4]
   return SysTick_Config(TicksNumb);
 80074fa:	6878      	ldr	r0, [r7, #4]
 80074fc:	f7ff ffb0 	bl	8007460 <SysTick_Config>
 8007500:	4603      	mov	r3, r0
}
 8007502:	4618      	mov	r0, r3
 8007504:	3708      	adds	r7, #8
 8007506:	46bd      	mov	sp, r7
 8007508:	bd80      	pop	{r7, pc}

0800750a <HAL_CRC_Init>:
  *         parameters in the CRC_InitTypeDef and create the associated handle.
  * @param  hcrc CRC handle
  * @retval HAL status
  */
HAL_StatusTypeDef HAL_CRC_Init(CRC_HandleTypeDef *hcrc)
{
 800750a:	b580      	push	{r7, lr}
 800750c:	b082      	sub	sp, #8
 800750e:	af00      	add	r7, sp, #0
 8007510:	6078      	str	r0, [r7, #4]
  /* Check the CRC handle allocation */
  if (hcrc == NULL)
 8007512:	687b      	ldr	r3, [r7, #4]
 8007514:	2b00      	cmp	r3, #0
 8007516:	d101      	bne.n	800751c <HAL_CRC_Init+0x12>
  {
    return HAL_ERROR;
 8007518:	2301      	movs	r3, #1
 800751a:	e00e      	b.n	800753a <HAL_CRC_Init+0x30>
  }

  /* Check the parameters */
  assert_param(IS_CRC_ALL_INSTANCE(hcrc->Instance));

  if (hcrc->State == HAL_CRC_STATE_RESET)
 800751c:	687b      	ldr	r3, [r7, #4]
 800751e:	795b      	ldrb	r3, [r3, #5]
 8007520:	b2db      	uxtb	r3, r3
 8007522:	2b00      	cmp	r3, #0
 8007524:	d105      	bne.n	8007532 <HAL_CRC_Init+0x28>
  {
    /* Allocate lock resource and initialize it */
    hcrc->Lock = HAL_UNLOCKED;
 8007526:	687b      	ldr	r3, [r7, #4]
 8007528:	2200      	movs	r2, #0
 800752a:	711a      	strb	r2, [r3, #4]
    /* Init the low level hardware */
    HAL_CRC_MspInit(hcrc);
 800752c:	6878      	ldr	r0, [r7, #4]
 800752e:	f7ff fd31 	bl	8006f94 <HAL_CRC_MspInit>
  }

  /* Change CRC peripheral state */
  hcrc->State = HAL_CRC_STATE_READY;
 8007532:	687b      	ldr	r3, [r7, #4]
 8007534:	2201      	movs	r2, #1
 8007536:	715a      	strb	r2, [r3, #5]

  /* Return function status */
  return HAL_OK;
 8007538:	2300      	movs	r3, #0
}
 800753a:	4618      	mov	r0, r3
 800753c:	3708      	adds	r7, #8
 800753e:	46bd      	mov	sp, r7
 8007540:	bd80      	pop	{r7, pc}
	...

08007544 <HAL_FLASH_Program>:
  * @param  Data specifies the data to be programmed
  * 
  * @retval HAL_StatusTypeDef HAL Status
  */
HAL_StatusTypeDef HAL_FLASH_Program(uint32_t TypeProgram, uint32_t Address, uint64_t Data)
{
 8007544:	b580      	push	{r7, lr}
 8007546:	b086      	sub	sp, #24
 8007548:	af00      	add	r7, sp, #0
 800754a:	60f8      	str	r0, [r7, #12]
 800754c:	60b9      	str	r1, [r7, #8]
 800754e:	e9c7 2300 	strd	r2, r3, [r7]
  HAL_StatusTypeDef status = HAL_ERROR;
 8007552:	2301      	movs	r3, #1
 8007554:	75fb      	strb	r3, [r7, #23]
  
  /* Process Locked */
  __HAL_LOCK(&pFlash);
 8007556:	4b23      	ldr	r3, [pc, #140]	; (80075e4 <HAL_FLASH_Program+0xa0>)
 8007558:	7e1b      	ldrb	r3, [r3, #24]
 800755a:	2b01      	cmp	r3, #1
 800755c:	d101      	bne.n	8007562 <HAL_FLASH_Program+0x1e>
 800755e:	2302      	movs	r3, #2
 8007560:	e03b      	b.n	80075da <HAL_FLASH_Program+0x96>
 8007562:	4b20      	ldr	r3, [pc, #128]	; (80075e4 <HAL_FLASH_Program+0xa0>)
 8007564:	2201      	movs	r2, #1
 8007566:	761a      	strb	r2, [r3, #24]
  
  /* Check the parameters */
  assert_param(IS_FLASH_TYPEPROGRAM(TypeProgram));
  
  /* Wait for last operation to be completed */
  status = FLASH_WaitForLastOperation((uint32_t)FLASH_TIMEOUT_VALUE);
 8007568:	f24c 3050 	movw	r0, #50000	; 0xc350
 800756c:	f000 f870 	bl	8007650 <FLASH_WaitForLastOperation>
 8007570:	4603      	mov	r3, r0
 8007572:	75fb      	strb	r3, [r7, #23]
  
  if(status == HAL_OK)
 8007574:	7dfb      	ldrb	r3, [r7, #23]
 8007576:	2b00      	cmp	r3, #0
 8007578:	d12b      	bne.n	80075d2 <HAL_FLASH_Program+0x8e>
  {
    if(TypeProgram == FLASH_TYPEPROGRAM_BYTE)
 800757a:	68fb      	ldr	r3, [r7, #12]
 800757c:	2b00      	cmp	r3, #0
 800757e:	d105      	bne.n	800758c <HAL_FLASH_Program+0x48>
    {
      /*Program byte (8-bit) at a specified address.*/
      FLASH_Program_Byte(Address, (uint8_t) Data);
 8007580:	783b      	ldrb	r3, [r7, #0]
 8007582:	4619      	mov	r1, r3
 8007584:	68b8      	ldr	r0, [r7, #8]
 8007586:	f000 f91b 	bl	80077c0 <FLASH_Program_Byte>
 800758a:	e016      	b.n	80075ba <HAL_FLASH_Program+0x76>
    }
    else if(TypeProgram == FLASH_TYPEPROGRAM_HALFWORD)
 800758c:	68fb      	ldr	r3, [r7, #12]
 800758e:	2b01      	cmp	r3, #1
 8007590:	d105      	bne.n	800759e <HAL_FLASH_Program+0x5a>
    {
      /*Program halfword (16-bit) at a specified address.*/
      FLASH_Program_HalfWord(Address, (uint16_t) Data);
 8007592:	883b      	ldrh	r3, [r7, #0]
 8007594:	4619      	mov	r1, r3
 8007596:	68b8      	ldr	r0, [r7, #8]
 8007598:	f000 f8ee 	bl	8007778 <FLASH_Program_HalfWord>
 800759c:	e00d      	b.n	80075ba <HAL_FLASH_Program+0x76>
    }
    else if(TypeProgram == FLASH_TYPEPROGRAM_WORD)
 800759e:	68fb      	ldr	r3, [r7, #12]
 80075a0:	2b02      	cmp	r3, #2
 80075a2:	d105      	bne.n	80075b0 <HAL_FLASH_Program+0x6c>
    {
      /*Program word (32-bit) at a specified address.*/
      FLASH_Program_Word(Address, (uint32_t) Data);
 80075a4:	683b      	ldr	r3, [r7, #0]
 80075a6:	4619      	mov	r1, r3
 80075a8:	68b8      	ldr	r0, [r7, #8]
 80075aa:	f000 f8c3 	bl	8007734 <FLASH_Program_Word>
 80075ae:	e004      	b.n	80075ba <HAL_FLASH_Program+0x76>
    }
    else
    {
      /*Program double word (64-bit) at a specified address.*/
      FLASH_Program_DoubleWord(Address, Data);
 80075b0:	e9d7 2300 	ldrd	r2, r3, [r7]
 80075b4:	68b8      	ldr	r0, [r7, #8]
 80075b6:	f000 f88b 	bl	80076d0 <FLASH_Program_DoubleWord>
    }
    
    /* Wait for last operation to be completed */
    status = FLASH_WaitForLastOperation((uint32_t)FLASH_TIMEOUT_VALUE);
 80075ba:	f24c 3050 	movw	r0, #50000	; 0xc350
 80075be:	f000 f847 	bl	8007650 <FLASH_WaitForLastOperation>
 80075c2:	4603      	mov	r3, r0
 80075c4:	75fb      	strb	r3, [r7, #23]
    
    /* If the program operation is completed, disable the PG Bit */
    FLASH->CR &= (~FLASH_CR_PG);  
 80075c6:	4b08      	ldr	r3, [pc, #32]	; (80075e8 <HAL_FLASH_Program+0xa4>)
 80075c8:	691b      	ldr	r3, [r3, #16]
 80075ca:	4a07      	ldr	r2, [pc, #28]	; (80075e8 <HAL_FLASH_Program+0xa4>)
 80075cc:	f023 0301 	bic.w	r3, r3, #1
 80075d0:	6113      	str	r3, [r2, #16]
  }
  
  /* Process Unlocked */
  __HAL_UNLOCK(&pFlash);
 80075d2:	4b04      	ldr	r3, [pc, #16]	; (80075e4 <HAL_FLASH_Program+0xa0>)
 80075d4:	2200      	movs	r2, #0
 80075d6:	761a      	strb	r2, [r3, #24]
  
  return status;
 80075d8:	7dfb      	ldrb	r3, [r7, #23]
}
 80075da:	4618      	mov	r0, r3
 80075dc:	3718      	adds	r7, #24
 80075de:	46bd      	mov	sp, r7
 80075e0:	bd80      	pop	{r7, pc}
 80075e2:	bf00      	nop
 80075e4:	20000f10 	.word	0x20000f10
 80075e8:	40023c00 	.word	0x40023c00

080075ec <HAL_FLASH_Unlock>:
/**
  * @brief  Unlock the FLASH control register access
  * @retval HAL Status
  */
HAL_StatusTypeDef HAL_FLASH_Unlock(void)
{
 80075ec:	b480      	push	{r7}
 80075ee:	b083      	sub	sp, #12
 80075f0:	af00      	add	r7, sp, #0
  HAL_StatusTypeDef status = HAL_OK;
 80075f2:	2300      	movs	r3, #0
 80075f4:	71fb      	strb	r3, [r7, #7]

  if(READ_BIT(FLASH->CR, FLASH_CR_LOCK) != RESET)
 80075f6:	4b0b      	ldr	r3, [pc, #44]	; (8007624 <HAL_FLASH_Unlock+0x38>)
 80075f8:	691b      	ldr	r3, [r3, #16]
 80075fa:	2b00      	cmp	r3, #0
 80075fc:	da0b      	bge.n	8007616 <HAL_FLASH_Unlock+0x2a>
  {
    /* Authorize the FLASH Registers access */
    WRITE_REG(FLASH->KEYR, FLASH_KEY1);
 80075fe:	4b09      	ldr	r3, [pc, #36]	; (8007624 <HAL_FLASH_Unlock+0x38>)
 8007600:	4a09      	ldr	r2, [pc, #36]	; (8007628 <HAL_FLASH_Unlock+0x3c>)
 8007602:	605a      	str	r2, [r3, #4]
    WRITE_REG(FLASH->KEYR, FLASH_KEY2);
 8007604:	4b07      	ldr	r3, [pc, #28]	; (8007624 <HAL_FLASH_Unlock+0x38>)
 8007606:	4a09      	ldr	r2, [pc, #36]	; (800762c <HAL_FLASH_Unlock+0x40>)
 8007608:	605a      	str	r2, [r3, #4]

    /* Verify Flash is unlocked */
    if(READ_BIT(FLASH->CR, FLASH_CR_LOCK) != RESET)
 800760a:	4b06      	ldr	r3, [pc, #24]	; (8007624 <HAL_FLASH_Unlock+0x38>)
 800760c:	691b      	ldr	r3, [r3, #16]
 800760e:	2b00      	cmp	r3, #0
 8007610:	da01      	bge.n	8007616 <HAL_FLASH_Unlock+0x2a>
    {
      status = HAL_ERROR;
 8007612:	2301      	movs	r3, #1
 8007614:	71fb      	strb	r3, [r7, #7]
    }
  }

  return status;
 8007616:	79fb      	ldrb	r3, [r7, #7]
}
 8007618:	4618      	mov	r0, r3
 800761a:	370c      	adds	r7, #12
 800761c:	46bd      	mov	sp, r7
 800761e:	f85d 7b04 	ldr.w	r7, [sp], #4
 8007622:	4770      	bx	lr
 8007624:	40023c00 	.word	0x40023c00
 8007628:	45670123 	.word	0x45670123
 800762c:	cdef89ab 	.word	0xcdef89ab

08007630 <HAL_FLASH_Lock>:
/**
  * @brief  Locks the FLASH control register access
  * @retval HAL Status
  */
HAL_StatusTypeDef HAL_FLASH_Lock(void)
{
 8007630:	b480      	push	{r7}
 8007632:	af00      	add	r7, sp, #0
  /* Set the LOCK Bit to lock the FLASH Registers access */
  FLASH->CR |= FLASH_CR_LOCK;
 8007634:	4b05      	ldr	r3, [pc, #20]	; (800764c <HAL_FLASH_Lock+0x1c>)
 8007636:	691b      	ldr	r3, [r3, #16]
 8007638:	4a04      	ldr	r2, [pc, #16]	; (800764c <HAL_FLASH_Lock+0x1c>)
 800763a:	f043 4300 	orr.w	r3, r3, #2147483648	; 0x80000000
 800763e:	6113      	str	r3, [r2, #16]
  
  return HAL_OK;  
 8007640:	2300      	movs	r3, #0
}
 8007642:	4618      	mov	r0, r3
 8007644:	46bd      	mov	sp, r7
 8007646:	f85d 7b04 	ldr.w	r7, [sp], #4
 800764a:	4770      	bx	lr
 800764c:	40023c00 	.word	0x40023c00

08007650 <FLASH_WaitForLastOperation>:
  * @brief  Wait for a FLASH operation to complete.
  * @param  Timeout maximum flash operationtimeout
  * @retval HAL Status
  */
HAL_StatusTypeDef FLASH_WaitForLastOperation(uint32_t Timeout)
{ 
 8007650:	b580      	push	{r7, lr}
 8007652:	b084      	sub	sp, #16
 8007654:	af00      	add	r7, sp, #0
 8007656:	6078      	str	r0, [r7, #4]
  uint32_t tickstart = 0U;
 8007658:	2300      	movs	r3, #0
 800765a:	60fb      	str	r3, [r7, #12]
  
  /* Clear Error Code */
  pFlash.ErrorCode = HAL_FLASH_ERROR_NONE;
 800765c:	4b1a      	ldr	r3, [pc, #104]	; (80076c8 <FLASH_WaitForLastOperation+0x78>)
 800765e:	2200      	movs	r2, #0
 8007660:	61da      	str	r2, [r3, #28]
  
  /* Wait for the FLASH operation to complete by polling on BUSY flag to be reset.
     Even if the FLASH operation fails, the BUSY flag will be reset and an error
     flag will be set */
  /* Get tick */
  tickstart = HAL_GetTick();
 8007662:	f7ff fe61 	bl	8007328 <HAL_GetTick>
 8007666:	60f8      	str	r0, [r7, #12]

  while(__HAL_FLASH_GET_FLAG(FLASH_FLAG_BSY) != RESET) 
 8007668:	e010      	b.n	800768c <FLASH_WaitForLastOperation+0x3c>
  { 
    if(Timeout != HAL_MAX_DELAY)
 800766a:	687b      	ldr	r3, [r7, #4]
 800766c:	f1b3 3fff 	cmp.w	r3, #4294967295
 8007670:	d00c      	beq.n	800768c <FLASH_WaitForLastOperation+0x3c>
    {
      if((Timeout == 0U)||((HAL_GetTick() - tickstart ) > Timeout))
 8007672:	687b      	ldr	r3, [r7, #4]
 8007674:	2b00      	cmp	r3, #0
 8007676:	d007      	beq.n	8007688 <FLASH_WaitForLastOperation+0x38>
 8007678:	f7ff fe56 	bl	8007328 <HAL_GetTick>
 800767c:	4602      	mov	r2, r0
 800767e:	68fb      	ldr	r3, [r7, #12]
 8007680:	1ad3      	subs	r3, r2, r3
 8007682:	687a      	ldr	r2, [r7, #4]
 8007684:	429a      	cmp	r2, r3
 8007686:	d201      	bcs.n	800768c <FLASH_WaitForLastOperation+0x3c>
      {
        return HAL_TIMEOUT;
 8007688:	2303      	movs	r3, #3
 800768a:	e019      	b.n	80076c0 <FLASH_WaitForLastOperation+0x70>
  while(__HAL_FLASH_GET_FLAG(FLASH_FLAG_BSY) != RESET) 
 800768c:	4b0f      	ldr	r3, [pc, #60]	; (80076cc <FLASH_WaitForLastOperation+0x7c>)
 800768e:	68db      	ldr	r3, [r3, #12]
 8007690:	f403 3380 	and.w	r3, r3, #65536	; 0x10000
 8007694:	2b00      	cmp	r3, #0
 8007696:	d1e8      	bne.n	800766a <FLASH_WaitForLastOperation+0x1a>
      }
    } 
  }

  /* Check FLASH End of Operation flag  */
  if (__HAL_FLASH_GET_FLAG(FLASH_FLAG_EOP) != RESET)
 8007698:	4b0c      	ldr	r3, [pc, #48]	; (80076cc <FLASH_WaitForLastOperation+0x7c>)
 800769a:	68db      	ldr	r3, [r3, #12]
 800769c:	f003 0301 	and.w	r3, r3, #1
 80076a0:	2b00      	cmp	r3, #0
 80076a2:	d002      	beq.n	80076aa <FLASH_WaitForLastOperation+0x5a>
  {
    /* Clear FLASH End of Operation pending bit */
    __HAL_FLASH_CLEAR_FLAG(FLASH_FLAG_EOP);
 80076a4:	4b09      	ldr	r3, [pc, #36]	; (80076cc <FLASH_WaitForLastOperation+0x7c>)
 80076a6:	2201      	movs	r2, #1
 80076a8:	60da      	str	r2, [r3, #12]
  }
#if defined(FLASH_SR_RDERR)  
  if(__HAL_FLASH_GET_FLAG((FLASH_FLAG_OPERR | FLASH_FLAG_WRPERR | FLASH_FLAG_PGAERR | \
 80076aa:	4b08      	ldr	r3, [pc, #32]	; (80076cc <FLASH_WaitForLastOperation+0x7c>)
 80076ac:	68db      	ldr	r3, [r3, #12]
 80076ae:	f403 73f9 	and.w	r3, r3, #498	; 0x1f2
 80076b2:	2b00      	cmp	r3, #0
 80076b4:	d003      	beq.n	80076be <FLASH_WaitForLastOperation+0x6e>
  if(__HAL_FLASH_GET_FLAG((FLASH_FLAG_OPERR | FLASH_FLAG_WRPERR | FLASH_FLAG_PGAERR | \
                           FLASH_FLAG_PGPERR | FLASH_FLAG_PGSERR)) != RESET)
#endif /* FLASH_SR_RDERR */
  {
    /*Save the error code*/
    FLASH_SetErrorCode();
 80076b6:	f000 f8a5 	bl	8007804 <FLASH_SetErrorCode>
    return HAL_ERROR;
 80076ba:	2301      	movs	r3, #1
 80076bc:	e000      	b.n	80076c0 <FLASH_WaitForLastOperation+0x70>
  }

  /* If there is no error flag set */
  return HAL_OK;
 80076be:	2300      	movs	r3, #0
  
}  
 80076c0:	4618      	mov	r0, r3
 80076c2:	3710      	adds	r7, #16
 80076c4:	46bd      	mov	sp, r7
 80076c6:	bd80      	pop	{r7, pc}
 80076c8:	20000f10 	.word	0x20000f10
 80076cc:	40023c00 	.word	0x40023c00

080076d0 <FLASH_Program_DoubleWord>:
  * @param  Address specifies the address to be programmed.
  * @param  Data specifies the data to be programmed.
  * @retval None
  */
static void FLASH_Program_DoubleWord(uint32_t Address, uint64_t Data)
{
 80076d0:	b480      	push	{r7}
 80076d2:	b085      	sub	sp, #20
 80076d4:	af00      	add	r7, sp, #0
 80076d6:	60f8      	str	r0, [r7, #12]
 80076d8:	e9c7 2300 	strd	r2, r3, [r7]
  /* Check the parameters */
  assert_param(IS_FLASH_ADDRESS(Address));
  
  /* If the previous operation is completed, proceed to program the new data */
  CLEAR_BIT(FLASH->CR, FLASH_CR_PSIZE);
 80076dc:	4b14      	ldr	r3, [pc, #80]	; (8007730 <FLASH_Program_DoubleWord+0x60>)
 80076de:	691b      	ldr	r3, [r3, #16]
 80076e0:	4a13      	ldr	r2, [pc, #76]	; (8007730 <FLASH_Program_DoubleWord+0x60>)
 80076e2:	f423 7340 	bic.w	r3, r3, #768	; 0x300
 80076e6:	6113      	str	r3, [r2, #16]
  FLASH->CR |= FLASH_PSIZE_DOUBLE_WORD;
 80076e8:	4b11      	ldr	r3, [pc, #68]	; (8007730 <FLASH_Program_DoubleWord+0x60>)
 80076ea:	691b      	ldr	r3, [r3, #16]
 80076ec:	4a10      	ldr	r2, [pc, #64]	; (8007730 <FLASH_Program_DoubleWord+0x60>)
 80076ee:	f443 7340 	orr.w	r3, r3, #768	; 0x300
 80076f2:	6113      	str	r3, [r2, #16]
  FLASH->CR |= FLASH_CR_PG;
 80076f4:	4b0e      	ldr	r3, [pc, #56]	; (8007730 <FLASH_Program_DoubleWord+0x60>)
 80076f6:	691b      	ldr	r3, [r3, #16]
 80076f8:	4a0d      	ldr	r2, [pc, #52]	; (8007730 <FLASH_Program_DoubleWord+0x60>)
 80076fa:	f043 0301 	orr.w	r3, r3, #1
 80076fe:	6113      	str	r3, [r2, #16]

  /* Program first word */
  *(__IO uint32_t*)Address = (uint32_t)Data;
 8007700:	68fb      	ldr	r3, [r7, #12]
 8007702:	683a      	ldr	r2, [r7, #0]
 8007704:	601a      	str	r2, [r3, #0]
           so that all instructions following the ISB are fetched from cache or memory,
           after the instruction has been completed.
 */
__STATIC_FORCEINLINE void __ISB(void)
{
  __ASM volatile ("isb 0xF":::"memory");
 8007706:	f3bf 8f6f 	isb	sy
}
 800770a:	bf00      	nop
  /* Barrier to ensure programming is performed in 2 steps, in right order
    (independently of compiler optimization behavior) */
  __ISB();

  /* Program second word */
  *(__IO uint32_t*)(Address+4) = (uint32_t)(Data >> 32);
 800770c:	e9d7 0100 	ldrd	r0, r1, [r7]
 8007710:	f04f 0200 	mov.w	r2, #0
 8007714:	f04f 0300 	mov.w	r3, #0
 8007718:	000a      	movs	r2, r1
 800771a:	2300      	movs	r3, #0
 800771c:	68f9      	ldr	r1, [r7, #12]
 800771e:	3104      	adds	r1, #4
 8007720:	4613      	mov	r3, r2
 8007722:	600b      	str	r3, [r1, #0]
}
 8007724:	bf00      	nop
 8007726:	3714      	adds	r7, #20
 8007728:	46bd      	mov	sp, r7
 800772a:	f85d 7b04 	ldr.w	r7, [sp], #4
 800772e:	4770      	bx	lr
 8007730:	40023c00 	.word	0x40023c00

08007734 <FLASH_Program_Word>:
  * @param  Address specifies the address to be programmed.
  * @param  Data specifies the data to be programmed.
  * @retval None
  */
static void FLASH_Program_Word(uint32_t Address, uint32_t Data)
{
 8007734:	b480      	push	{r7}
 8007736:	b083      	sub	sp, #12
 8007738:	af00      	add	r7, sp, #0
 800773a:	6078      	str	r0, [r7, #4]
 800773c:	6039      	str	r1, [r7, #0]
  /* Check the parameters */
  assert_param(IS_FLASH_ADDRESS(Address));
  
  /* If the previous operation is completed, proceed to program the new data */
  CLEAR_BIT(FLASH->CR, FLASH_CR_PSIZE);
 800773e:	4b0d      	ldr	r3, [pc, #52]	; (8007774 <FLASH_Program_Word+0x40>)
 8007740:	691b      	ldr	r3, [r3, #16]
 8007742:	4a0c      	ldr	r2, [pc, #48]	; (8007774 <FLASH_Program_Word+0x40>)
 8007744:	f423 7340 	bic.w	r3, r3, #768	; 0x300
 8007748:	6113      	str	r3, [r2, #16]
  FLASH->CR |= FLASH_PSIZE_WORD;
 800774a:	4b0a      	ldr	r3, [pc, #40]	; (8007774 <FLASH_Program_Word+0x40>)
 800774c:	691b      	ldr	r3, [r3, #16]
 800774e:	4a09      	ldr	r2, [pc, #36]	; (8007774 <FLASH_Program_Word+0x40>)
 8007750:	f443 7300 	orr.w	r3, r3, #512	; 0x200
 8007754:	6113      	str	r3, [r2, #16]
  FLASH->CR |= FLASH_CR_PG;
 8007756:	4b07      	ldr	r3, [pc, #28]	; (8007774 <FLASH_Program_Word+0x40>)
 8007758:	691b      	ldr	r3, [r3, #16]
 800775a:	4a06      	ldr	r2, [pc, #24]	; (8007774 <FLASH_Program_Word+0x40>)
 800775c:	f043 0301 	orr.w	r3, r3, #1
 8007760:	6113      	str	r3, [r2, #16]

  *(__IO uint32_t*)Address = Data;
 8007762:	687b      	ldr	r3, [r7, #4]
 8007764:	683a      	ldr	r2, [r7, #0]
 8007766:	601a      	str	r2, [r3, #0]
}
 8007768:	bf00      	nop
 800776a:	370c      	adds	r7, #12
 800776c:	46bd      	mov	sp, r7
 800776e:	f85d 7b04 	ldr.w	r7, [sp], #4
 8007772:	4770      	bx	lr
 8007774:	40023c00 	.word	0x40023c00

08007778 <FLASH_Program_HalfWord>:
  * @param  Address specifies the address to be programmed.
  * @param  Data specifies the data to be programmed.
  * @retval None
  */
static void FLASH_Program_HalfWord(uint32_t Address, uint16_t Data)
{
 8007778:	b480      	push	{r7}
 800777a:	b083      	sub	sp, #12
 800777c:	af00      	add	r7, sp, #0
 800777e:	6078      	str	r0, [r7, #4]
 8007780:	460b      	mov	r3, r1
 8007782:	807b      	strh	r3, [r7, #2]
  /* Check the parameters */
  assert_param(IS_FLASH_ADDRESS(Address));
  
  /* If the previous operation is completed, proceed to program the new data */
  CLEAR_BIT(FLASH->CR, FLASH_CR_PSIZE);
 8007784:	4b0d      	ldr	r3, [pc, #52]	; (80077bc <FLASH_Program_HalfWord+0x44>)
 8007786:	691b      	ldr	r3, [r3, #16]
 8007788:	4a0c      	ldr	r2, [pc, #48]	; (80077bc <FLASH_Program_HalfWord+0x44>)
 800778a:	f423 7340 	bic.w	r3, r3, #768	; 0x300
 800778e:	6113      	str	r3, [r2, #16]
  FLASH->CR |= FLASH_PSIZE_HALF_WORD;
 8007790:	4b0a      	ldr	r3, [pc, #40]	; (80077bc <FLASH_Program_HalfWord+0x44>)
 8007792:	691b      	ldr	r3, [r3, #16]
 8007794:	4a09      	ldr	r2, [pc, #36]	; (80077bc <FLASH_Program_HalfWord+0x44>)
 8007796:	f443 7380 	orr.w	r3, r3, #256	; 0x100
 800779a:	6113      	str	r3, [r2, #16]
  FLASH->CR |= FLASH_CR_PG;
 800779c:	4b07      	ldr	r3, [pc, #28]	; (80077bc <FLASH_Program_HalfWord+0x44>)
 800779e:	691b      	ldr	r3, [r3, #16]
 80077a0:	4a06      	ldr	r2, [pc, #24]	; (80077bc <FLASH_Program_HalfWord+0x44>)
 80077a2:	f043 0301 	orr.w	r3, r3, #1
 80077a6:	6113      	str	r3, [r2, #16]

  *(__IO uint16_t*)Address = Data;
 80077a8:	687b      	ldr	r3, [r7, #4]
 80077aa:	887a      	ldrh	r2, [r7, #2]
 80077ac:	801a      	strh	r2, [r3, #0]
}
 80077ae:	bf00      	nop
 80077b0:	370c      	adds	r7, #12
 80077b2:	46bd      	mov	sp, r7
 80077b4:	f85d 7b04 	ldr.w	r7, [sp], #4
 80077b8:	4770      	bx	lr
 80077ba:	bf00      	nop
 80077bc:	40023c00 	.word	0x40023c00

080077c0 <FLASH_Program_Byte>:
  * @param  Address specifies the address to be programmed.
  * @param  Data specifies the data to be programmed.
  * @retval None
  */
static void FLASH_Program_Byte(uint32_t Address, uint8_t Data)
{
 80077c0:	b480      	push	{r7}
 80077c2:	b083      	sub	sp, #12
 80077c4:	af00      	add	r7, sp, #0
 80077c6:	6078      	str	r0, [r7, #4]
 80077c8:	460b      	mov	r3, r1
 80077ca:	70fb      	strb	r3, [r7, #3]
  /* Check the parameters */
  assert_param(IS_FLASH_ADDRESS(Address));
  
  /* If the previous operation is completed, proceed to program the new data */
  CLEAR_BIT(FLASH->CR, FLASH_CR_PSIZE);
 80077cc:	4b0c      	ldr	r3, [pc, #48]	; (8007800 <FLASH_Program_Byte+0x40>)
 80077ce:	691b      	ldr	r3, [r3, #16]
 80077d0:	4a0b      	ldr	r2, [pc, #44]	; (8007800 <FLASH_Program_Byte+0x40>)
 80077d2:	f423 7340 	bic.w	r3, r3, #768	; 0x300
 80077d6:	6113      	str	r3, [r2, #16]
  FLASH->CR |= FLASH_PSIZE_BYTE;
 80077d8:	4b09      	ldr	r3, [pc, #36]	; (8007800 <FLASH_Program_Byte+0x40>)
 80077da:	4a09      	ldr	r2, [pc, #36]	; (8007800 <FLASH_Program_Byte+0x40>)
 80077dc:	691b      	ldr	r3, [r3, #16]
 80077de:	6113      	str	r3, [r2, #16]
  FLASH->CR |= FLASH_CR_PG;
 80077e0:	4b07      	ldr	r3, [pc, #28]	; (8007800 <FLASH_Program_Byte+0x40>)
 80077e2:	691b      	ldr	r3, [r3, #16]
 80077e4:	4a06      	ldr	r2, [pc, #24]	; (8007800 <FLASH_Program_Byte+0x40>)
 80077e6:	f043 0301 	orr.w	r3, r3, #1
 80077ea:	6113      	str	r3, [r2, #16]

  *(__IO uint8_t*)Address = Data;
 80077ec:	687b      	ldr	r3, [r7, #4]
 80077ee:	78fa      	ldrb	r2, [r7, #3]
 80077f0:	701a      	strb	r2, [r3, #0]
}
 80077f2:	bf00      	nop
 80077f4:	370c      	adds	r7, #12
 80077f6:	46bd      	mov	sp, r7
 80077f8:	f85d 7b04 	ldr.w	r7, [sp], #4
 80077fc:	4770      	bx	lr
 80077fe:	bf00      	nop
 8007800:	40023c00 	.word	0x40023c00

08007804 <FLASH_SetErrorCode>:
/**
  * @brief  Set the specific FLASH error flag.
  * @retval None
  */
static void FLASH_SetErrorCode(void)
{ 
 8007804:	b480      	push	{r7}
 8007806:	af00      	add	r7, sp, #0
  if(__HAL_FLASH_GET_FLAG(FLASH_FLAG_WRPERR) != RESET)
 8007808:	4b2f      	ldr	r3, [pc, #188]	; (80078c8 <FLASH_SetErrorCode+0xc4>)
 800780a:	68db      	ldr	r3, [r3, #12]
 800780c:	f003 0310 	and.w	r3, r3, #16
 8007810:	2b00      	cmp	r3, #0
 8007812:	d008      	beq.n	8007826 <FLASH_SetErrorCode+0x22>
  {
   pFlash.ErrorCode |= HAL_FLASH_ERROR_WRP;
 8007814:	4b2d      	ldr	r3, [pc, #180]	; (80078cc <FLASH_SetErrorCode+0xc8>)
 8007816:	69db      	ldr	r3, [r3, #28]
 8007818:	f043 0310 	orr.w	r3, r3, #16
 800781c:	4a2b      	ldr	r2, [pc, #172]	; (80078cc <FLASH_SetErrorCode+0xc8>)
 800781e:	61d3      	str	r3, [r2, #28]
   
   /* Clear FLASH write protection error pending bit */
   __HAL_FLASH_CLEAR_FLAG(FLASH_FLAG_WRPERR);
 8007820:	4b29      	ldr	r3, [pc, #164]	; (80078c8 <FLASH_SetErrorCode+0xc4>)
 8007822:	2210      	movs	r2, #16
 8007824:	60da      	str	r2, [r3, #12]
  }
  
  if(__HAL_FLASH_GET_FLAG(FLASH_FLAG_PGAERR) != RESET)
 8007826:	4b28      	ldr	r3, [pc, #160]	; (80078c8 <FLASH_SetErrorCode+0xc4>)
 8007828:	68db      	ldr	r3, [r3, #12]
 800782a:	f003 0320 	and.w	r3, r3, #32
 800782e:	2b00      	cmp	r3, #0
 8007830:	d008      	beq.n	8007844 <FLASH_SetErrorCode+0x40>
  {
   pFlash.ErrorCode |= HAL_FLASH_ERROR_PGA;
 8007832:	4b26      	ldr	r3, [pc, #152]	; (80078cc <FLASH_SetErrorCode+0xc8>)
 8007834:	69db      	ldr	r3, [r3, #28]
 8007836:	f043 0308 	orr.w	r3, r3, #8
 800783a:	4a24      	ldr	r2, [pc, #144]	; (80078cc <FLASH_SetErrorCode+0xc8>)
 800783c:	61d3      	str	r3, [r2, #28]
   
   /* Clear FLASH Programming alignment error pending bit */
   __HAL_FLASH_CLEAR_FLAG(FLASH_FLAG_PGAERR);
 800783e:	4b22      	ldr	r3, [pc, #136]	; (80078c8 <FLASH_SetErrorCode+0xc4>)
 8007840:	2220      	movs	r2, #32
 8007842:	60da      	str	r2, [r3, #12]
  }
  
  if(__HAL_FLASH_GET_FLAG(FLASH_FLAG_PGPERR) != RESET)
 8007844:	4b20      	ldr	r3, [pc, #128]	; (80078c8 <FLASH_SetErrorCode+0xc4>)
 8007846:	68db      	ldr	r3, [r3, #12]
 8007848:	f003 0340 	and.w	r3, r3, #64	; 0x40
 800784c:	2b00      	cmp	r3, #0
 800784e:	d008      	beq.n	8007862 <FLASH_SetErrorCode+0x5e>
  {
    pFlash.ErrorCode |= HAL_FLASH_ERROR_PGP;
 8007850:	4b1e      	ldr	r3, [pc, #120]	; (80078cc <FLASH_SetErrorCode+0xc8>)
 8007852:	69db      	ldr	r3, [r3, #28]
 8007854:	f043 0304 	orr.w	r3, r3, #4
 8007858:	4a1c      	ldr	r2, [pc, #112]	; (80078cc <FLASH_SetErrorCode+0xc8>)
 800785a:	61d3      	str	r3, [r2, #28]
    
    /* Clear FLASH Programming parallelism error pending bit */
    __HAL_FLASH_CLEAR_FLAG(FLASH_FLAG_PGPERR);
 800785c:	4b1a      	ldr	r3, [pc, #104]	; (80078c8 <FLASH_SetErrorCode+0xc4>)
 800785e:	2240      	movs	r2, #64	; 0x40
 8007860:	60da      	str	r2, [r3, #12]
  }
  
  if(__HAL_FLASH_GET_FLAG(FLASH_FLAG_PGSERR) != RESET)
 8007862:	4b19      	ldr	r3, [pc, #100]	; (80078c8 <FLASH_SetErrorCode+0xc4>)
 8007864:	68db      	ldr	r3, [r3, #12]
 8007866:	f003 0380 	and.w	r3, r3, #128	; 0x80
 800786a:	2b00      	cmp	r3, #0
 800786c:	d008      	beq.n	8007880 <FLASH_SetErrorCode+0x7c>
  {
    pFlash.ErrorCode |= HAL_FLASH_ERROR_PGS;
 800786e:	4b17      	ldr	r3, [pc, #92]	; (80078cc <FLASH_SetErrorCode+0xc8>)
 8007870:	69db      	ldr	r3, [r3, #28]
 8007872:	f043 0302 	orr.w	r3, r3, #2
 8007876:	4a15      	ldr	r2, [pc, #84]	; (80078cc <FLASH_SetErrorCode+0xc8>)
 8007878:	61d3      	str	r3, [r2, #28]
    
    /* Clear FLASH Programming sequence error pending bit */
    __HAL_FLASH_CLEAR_FLAG(FLASH_FLAG_PGSERR);
 800787a:	4b13      	ldr	r3, [pc, #76]	; (80078c8 <FLASH_SetErrorCode+0xc4>)
 800787c:	2280      	movs	r2, #128	; 0x80
 800787e:	60da      	str	r2, [r3, #12]
  }
#if defined(FLASH_SR_RDERR) 
  if(__HAL_FLASH_GET_FLAG(FLASH_FLAG_RDERR) != RESET)
 8007880:	4b11      	ldr	r3, [pc, #68]	; (80078c8 <FLASH_SetErrorCode+0xc4>)
 8007882:	68db      	ldr	r3, [r3, #12]
 8007884:	f403 7380 	and.w	r3, r3, #256	; 0x100
 8007888:	2b00      	cmp	r3, #0
 800788a:	d009      	beq.n	80078a0 <FLASH_SetErrorCode+0x9c>
  {
    pFlash.ErrorCode |= HAL_FLASH_ERROR_RD;
 800788c:	4b0f      	ldr	r3, [pc, #60]	; (80078cc <FLASH_SetErrorCode+0xc8>)
 800788e:	69db      	ldr	r3, [r3, #28]
 8007890:	f043 0301 	orr.w	r3, r3, #1
 8007894:	4a0d      	ldr	r2, [pc, #52]	; (80078cc <FLASH_SetErrorCode+0xc8>)
 8007896:	61d3      	str	r3, [r2, #28]
    
    /* Clear FLASH Proprietary readout protection error pending bit */
    __HAL_FLASH_CLEAR_FLAG(FLASH_FLAG_RDERR);
 8007898:	4b0b      	ldr	r3, [pc, #44]	; (80078c8 <FLASH_SetErrorCode+0xc4>)
 800789a:	f44f 7280 	mov.w	r2, #256	; 0x100
 800789e:	60da      	str	r2, [r3, #12]
  }
#endif /* FLASH_SR_RDERR */  
  if(__HAL_FLASH_GET_FLAG(FLASH_FLAG_OPERR) != RESET)
 80078a0:	4b09      	ldr	r3, [pc, #36]	; (80078c8 <FLASH_SetErrorCode+0xc4>)
 80078a2:	68db      	ldr	r3, [r3, #12]
 80078a4:	f003 0302 	and.w	r3, r3, #2
 80078a8:	2b00      	cmp	r3, #0
 80078aa:	d008      	beq.n	80078be <FLASH_SetErrorCode+0xba>
  {
    pFlash.ErrorCode |= HAL_FLASH_ERROR_OPERATION;
 80078ac:	4b07      	ldr	r3, [pc, #28]	; (80078cc <FLASH_SetErrorCode+0xc8>)
 80078ae:	69db      	ldr	r3, [r3, #28]
 80078b0:	f043 0320 	orr.w	r3, r3, #32
 80078b4:	4a05      	ldr	r2, [pc, #20]	; (80078cc <FLASH_SetErrorCode+0xc8>)
 80078b6:	61d3      	str	r3, [r2, #28]
    
    /* Clear FLASH Operation error pending bit */
    __HAL_FLASH_CLEAR_FLAG(FLASH_FLAG_OPERR);
 80078b8:	4b03      	ldr	r3, [pc, #12]	; (80078c8 <FLASH_SetErrorCode+0xc4>)
 80078ba:	2202      	movs	r2, #2
 80078bc:	60da      	str	r2, [r3, #12]
  }
}
 80078be:	bf00      	nop
 80078c0:	46bd      	mov	sp, r7
 80078c2:	f85d 7b04 	ldr.w	r7, [sp], #4
 80078c6:	4770      	bx	lr
 80078c8:	40023c00 	.word	0x40023c00
 80078cc:	20000f10 	.word	0x20000f10

080078d0 <HAL_FLASHEx_Erase>:
  *         (0xFFFFFFFFU means that all the sectors have been correctly erased)
  *
  * @retval HAL Status
  */
HAL_StatusTypeDef HAL_FLASHEx_Erase(FLASH_EraseInitTypeDef *pEraseInit, uint32_t *SectorError)
{
 80078d0:	b580      	push	{r7, lr}
 80078d2:	b084      	sub	sp, #16
 80078d4:	af00      	add	r7, sp, #0
 80078d6:	6078      	str	r0, [r7, #4]
 80078d8:	6039      	str	r1, [r7, #0]
  HAL_StatusTypeDef status = HAL_ERROR;
 80078da:	2301      	movs	r3, #1
 80078dc:	73fb      	strb	r3, [r7, #15]
  uint32_t index = 0U;
 80078de:	2300      	movs	r3, #0
 80078e0:	60bb      	str	r3, [r7, #8]

  /* Process Locked */
  __HAL_LOCK(&pFlash);
 80078e2:	4b31      	ldr	r3, [pc, #196]	; (80079a8 <HAL_FLASHEx_Erase+0xd8>)
 80078e4:	7e1b      	ldrb	r3, [r3, #24]
 80078e6:	2b01      	cmp	r3, #1
 80078e8:	d101      	bne.n	80078ee <HAL_FLASHEx_Erase+0x1e>
 80078ea:	2302      	movs	r3, #2
 80078ec:	e058      	b.n	80079a0 <HAL_FLASHEx_Erase+0xd0>
 80078ee:	4b2e      	ldr	r3, [pc, #184]	; (80079a8 <HAL_FLASHEx_Erase+0xd8>)
 80078f0:	2201      	movs	r2, #1
 80078f2:	761a      	strb	r2, [r3, #24]

  /* Check the parameters */
  assert_param(IS_FLASH_TYPEERASE(pEraseInit->TypeErase));

  /* Wait for last operation to be completed */
  status = FLASH_WaitForLastOperation((uint32_t)FLASH_TIMEOUT_VALUE);
 80078f4:	f24c 3050 	movw	r0, #50000	; 0xc350
 80078f8:	f7ff feaa 	bl	8007650 <FLASH_WaitForLastOperation>
 80078fc:	4603      	mov	r3, r0
 80078fe:	73fb      	strb	r3, [r7, #15]

  if (status == HAL_OK)
 8007900:	7bfb      	ldrb	r3, [r7, #15]
 8007902:	2b00      	cmp	r3, #0
 8007904:	d148      	bne.n	8007998 <HAL_FLASHEx_Erase+0xc8>
  {
    /*Initialization of SectorError variable*/
    *SectorError = 0xFFFFFFFFU;
 8007906:	683b      	ldr	r3, [r7, #0]
 8007908:	f04f 32ff 	mov.w	r2, #4294967295
 800790c:	601a      	str	r2, [r3, #0]

    if (pEraseInit->TypeErase == FLASH_TYPEERASE_MASSERASE)
 800790e:	687b      	ldr	r3, [r7, #4]
 8007910:	681b      	ldr	r3, [r3, #0]
 8007912:	2b01      	cmp	r3, #1
 8007914:	d115      	bne.n	8007942 <HAL_FLASHEx_Erase+0x72>
    {
      /*Mass erase to be done*/
      FLASH_MassErase((uint8_t) pEraseInit->VoltageRange, pEraseInit->Banks);
 8007916:	687b      	ldr	r3, [r7, #4]
 8007918:	691b      	ldr	r3, [r3, #16]
 800791a:	b2da      	uxtb	r2, r3
 800791c:	687b      	ldr	r3, [r7, #4]
 800791e:	685b      	ldr	r3, [r3, #4]
 8007920:	4619      	mov	r1, r3
 8007922:	4610      	mov	r0, r2
 8007924:	f000 f844 	bl	80079b0 <FLASH_MassErase>

      /* Wait for last operation to be completed */
      status = FLASH_WaitForLastOperation((uint32_t)FLASH_TIMEOUT_VALUE);
 8007928:	f24c 3050 	movw	r0, #50000	; 0xc350
 800792c:	f7ff fe90 	bl	8007650 <FLASH_WaitForLastOperation>
 8007930:	4603      	mov	r3, r0
 8007932:	73fb      	strb	r3, [r7, #15]

      /* if the erase operation is completed, disable the MER Bit */
      FLASH->CR &= (~FLASH_MER_BIT);
 8007934:	4b1d      	ldr	r3, [pc, #116]	; (80079ac <HAL_FLASHEx_Erase+0xdc>)
 8007936:	691b      	ldr	r3, [r3, #16]
 8007938:	4a1c      	ldr	r2, [pc, #112]	; (80079ac <HAL_FLASHEx_Erase+0xdc>)
 800793a:	f023 0304 	bic.w	r3, r3, #4
 800793e:	6113      	str	r3, [r2, #16]
 8007940:	e028      	b.n	8007994 <HAL_FLASHEx_Erase+0xc4>
    {
      /* Check the parameters */
      assert_param(IS_FLASH_NBSECTORS(pEraseInit->NbSectors + pEraseInit->Sector));

      /* Erase by sector by sector to be done*/
      for (index = pEraseInit->Sector; index < (pEraseInit->NbSectors + pEraseInit->Sector); index++)
 8007942:	687b      	ldr	r3, [r7, #4]
 8007944:	689b      	ldr	r3, [r3, #8]
 8007946:	60bb      	str	r3, [r7, #8]
 8007948:	e01c      	b.n	8007984 <HAL_FLASHEx_Erase+0xb4>
      {
        FLASH_Erase_Sector(index, (uint8_t) pEraseInit->VoltageRange);
 800794a:	687b      	ldr	r3, [r7, #4]
 800794c:	691b      	ldr	r3, [r3, #16]
 800794e:	b2db      	uxtb	r3, r3
 8007950:	4619      	mov	r1, r3
 8007952:	68b8      	ldr	r0, [r7, #8]
 8007954:	f000 f850 	bl	80079f8 <FLASH_Erase_Sector>

        /* Wait for last operation to be completed */
        status = FLASH_WaitForLastOperation((uint32_t)FLASH_TIMEOUT_VALUE);
 8007958:	f24c 3050 	movw	r0, #50000	; 0xc350
 800795c:	f7ff fe78 	bl	8007650 <FLASH_WaitForLastOperation>
 8007960:	4603      	mov	r3, r0
 8007962:	73fb      	strb	r3, [r7, #15]

        /* If the erase operation is completed, disable the SER and SNB Bits */
        CLEAR_BIT(FLASH->CR, (FLASH_CR_SER | FLASH_CR_SNB));
 8007964:	4b11      	ldr	r3, [pc, #68]	; (80079ac <HAL_FLASHEx_Erase+0xdc>)
 8007966:	691b      	ldr	r3, [r3, #16]
 8007968:	4a10      	ldr	r2, [pc, #64]	; (80079ac <HAL_FLASHEx_Erase+0xdc>)
 800796a:	f023 03fa 	bic.w	r3, r3, #250	; 0xfa
 800796e:	6113      	str	r3, [r2, #16]

        if (status != HAL_OK)
 8007970:	7bfb      	ldrb	r3, [r7, #15]
 8007972:	2b00      	cmp	r3, #0
 8007974:	d003      	beq.n	800797e <HAL_FLASHEx_Erase+0xae>
        {
          /* In case of error, stop erase procedure and return the faulty sector*/
          *SectorError = index;
 8007976:	683b      	ldr	r3, [r7, #0]
 8007978:	68ba      	ldr	r2, [r7, #8]
 800797a:	601a      	str	r2, [r3, #0]
          break;
 800797c:	e00a      	b.n	8007994 <HAL_FLASHEx_Erase+0xc4>
      for (index = pEraseInit->Sector; index < (pEraseInit->NbSectors + pEraseInit->Sector); index++)
 800797e:	68bb      	ldr	r3, [r7, #8]
 8007980:	3301      	adds	r3, #1
 8007982:	60bb      	str	r3, [r7, #8]
 8007984:	687b      	ldr	r3, [r7, #4]
 8007986:	68da      	ldr	r2, [r3, #12]
 8007988:	687b      	ldr	r3, [r7, #4]
 800798a:	689b      	ldr	r3, [r3, #8]
 800798c:	4413      	add	r3, r2
 800798e:	68ba      	ldr	r2, [r7, #8]
 8007990:	429a      	cmp	r2, r3
 8007992:	d3da      	bcc.n	800794a <HAL_FLASHEx_Erase+0x7a>
        }
      }
    }
    /* Flush the caches to be sure of the data consistency */
    FLASH_FlushCaches();
 8007994:	f000 f878 	bl	8007a88 <FLASH_FlushCaches>
  }

  /* Process Unlocked */
  __HAL_UNLOCK(&pFlash);
 8007998:	4b03      	ldr	r3, [pc, #12]	; (80079a8 <HAL_FLASHEx_Erase+0xd8>)
 800799a:	2200      	movs	r2, #0
 800799c:	761a      	strb	r2, [r3, #24]

  return status;
 800799e:	7bfb      	ldrb	r3, [r7, #15]
}
 80079a0:	4618      	mov	r0, r3
 80079a2:	3710      	adds	r7, #16
 80079a4:	46bd      	mov	sp, r7
 80079a6:	bd80      	pop	{r7, pc}
 80079a8:	20000f10 	.word	0x20000f10
 80079ac:	40023c00 	.word	0x40023c00

080079b0 <FLASH_MassErase>:
  *            @arg FLASH_BANK_1: Bank1 to be erased
  *
  * @retval None
  */
static void FLASH_MassErase(uint8_t VoltageRange, uint32_t Banks)
{
 80079b0:	b480      	push	{r7}
 80079b2:	b083      	sub	sp, #12
 80079b4:	af00      	add	r7, sp, #0
 80079b6:	4603      	mov	r3, r0
 80079b8:	6039      	str	r1, [r7, #0]
 80079ba:	71fb      	strb	r3, [r7, #7]
  /* Check the parameters */
  assert_param(IS_VOLTAGERANGE(VoltageRange));
  assert_param(IS_FLASH_BANK(Banks));

  /* If the previous operation is completed, proceed to erase all sectors */
  CLEAR_BIT(FLASH->CR, FLASH_CR_PSIZE);
 80079bc:	4b0d      	ldr	r3, [pc, #52]	; (80079f4 <FLASH_MassErase+0x44>)
 80079be:	691b      	ldr	r3, [r3, #16]
 80079c0:	4a0c      	ldr	r2, [pc, #48]	; (80079f4 <FLASH_MassErase+0x44>)
 80079c2:	f423 7340 	bic.w	r3, r3, #768	; 0x300
 80079c6:	6113      	str	r3, [r2, #16]
  FLASH->CR |= FLASH_CR_MER;
 80079c8:	4b0a      	ldr	r3, [pc, #40]	; (80079f4 <FLASH_MassErase+0x44>)
 80079ca:	691b      	ldr	r3, [r3, #16]
 80079cc:	4a09      	ldr	r2, [pc, #36]	; (80079f4 <FLASH_MassErase+0x44>)
 80079ce:	f043 0304 	orr.w	r3, r3, #4
 80079d2:	6113      	str	r3, [r2, #16]
  FLASH->CR |= FLASH_CR_STRT | ((uint32_t)VoltageRange << 8U);
 80079d4:	4b07      	ldr	r3, [pc, #28]	; (80079f4 <FLASH_MassErase+0x44>)
 80079d6:	691a      	ldr	r2, [r3, #16]
 80079d8:	79fb      	ldrb	r3, [r7, #7]
 80079da:	021b      	lsls	r3, r3, #8
 80079dc:	4313      	orrs	r3, r2
 80079de:	4a05      	ldr	r2, [pc, #20]	; (80079f4 <FLASH_MassErase+0x44>)
 80079e0:	f443 3380 	orr.w	r3, r3, #65536	; 0x10000
 80079e4:	6113      	str	r3, [r2, #16]
}
 80079e6:	bf00      	nop
 80079e8:	370c      	adds	r7, #12
 80079ea:	46bd      	mov	sp, r7
 80079ec:	f85d 7b04 	ldr.w	r7, [sp], #4
 80079f0:	4770      	bx	lr
 80079f2:	bf00      	nop
 80079f4:	40023c00 	.word	0x40023c00

080079f8 <FLASH_Erase_Sector>:
  *                                  the operation will be done by double word (64-bit)
  *
  * @retval None
  */
void FLASH_Erase_Sector(uint32_t Sector, uint8_t VoltageRange)
{
 80079f8:	b480      	push	{r7}
 80079fa:	b085      	sub	sp, #20
 80079fc:	af00      	add	r7, sp, #0
 80079fe:	6078      	str	r0, [r7, #4]
 8007a00:	460b      	mov	r3, r1
 8007a02:	70fb      	strb	r3, [r7, #3]
  uint32_t tmp_psize = 0U;
 8007a04:	2300      	movs	r3, #0
 8007a06:	60fb      	str	r3, [r7, #12]

  /* Check the parameters */
  assert_param(IS_FLASH_SECTOR(Sector));
  assert_param(IS_VOLTAGERANGE(VoltageRange));

  if (VoltageRange == FLASH_VOLTAGE_RANGE_1)
 8007a08:	78fb      	ldrb	r3, [r7, #3]
 8007a0a:	2b00      	cmp	r3, #0
 8007a0c:	d102      	bne.n	8007a14 <FLASH_Erase_Sector+0x1c>
  {
    tmp_psize = FLASH_PSIZE_BYTE;
 8007a0e:	2300      	movs	r3, #0
 8007a10:	60fb      	str	r3, [r7, #12]
 8007a12:	e010      	b.n	8007a36 <FLASH_Erase_Sector+0x3e>
  }
  else if (VoltageRange == FLASH_VOLTAGE_RANGE_2)
 8007a14:	78fb      	ldrb	r3, [r7, #3]
 8007a16:	2b01      	cmp	r3, #1
 8007a18:	d103      	bne.n	8007a22 <FLASH_Erase_Sector+0x2a>
  {
    tmp_psize = FLASH_PSIZE_HALF_WORD;
 8007a1a:	f44f 7380 	mov.w	r3, #256	; 0x100
 8007a1e:	60fb      	str	r3, [r7, #12]
 8007a20:	e009      	b.n	8007a36 <FLASH_Erase_Sector+0x3e>
  }
  else if (VoltageRange == FLASH_VOLTAGE_RANGE_3)
 8007a22:	78fb      	ldrb	r3, [r7, #3]
 8007a24:	2b02      	cmp	r3, #2
 8007a26:	d103      	bne.n	8007a30 <FLASH_Erase_Sector+0x38>
  {
    tmp_psize = FLASH_PSIZE_WORD;
 8007a28:	f44f 7300 	mov.w	r3, #512	; 0x200
 8007a2c:	60fb      	str	r3, [r7, #12]
 8007a2e:	e002      	b.n	8007a36 <FLASH_Erase_Sector+0x3e>
  }
  else
  {
    tmp_psize = FLASH_PSIZE_DOUBLE_WORD;
 8007a30:	f44f 7340 	mov.w	r3, #768	; 0x300
 8007a34:	60fb      	str	r3, [r7, #12]
  }

  /* If the previous operation is completed, proceed to erase the sector */
  CLEAR_BIT(FLASH->CR, FLASH_CR_PSIZE);
 8007a36:	4b13      	ldr	r3, [pc, #76]	; (8007a84 <FLASH_Erase_Sector+0x8c>)
 8007a38:	691b      	ldr	r3, [r3, #16]
 8007a3a:	4a12      	ldr	r2, [pc, #72]	; (8007a84 <FLASH_Erase_Sector+0x8c>)
 8007a3c:	f423 7340 	bic.w	r3, r3, #768	; 0x300
 8007a40:	6113      	str	r3, [r2, #16]
  FLASH->CR |= tmp_psize;
 8007a42:	4b10      	ldr	r3, [pc, #64]	; (8007a84 <FLASH_Erase_Sector+0x8c>)
 8007a44:	691a      	ldr	r2, [r3, #16]
 8007a46:	490f      	ldr	r1, [pc, #60]	; (8007a84 <FLASH_Erase_Sector+0x8c>)
 8007a48:	68fb      	ldr	r3, [r7, #12]
 8007a4a:	4313      	orrs	r3, r2
 8007a4c:	610b      	str	r3, [r1, #16]
  CLEAR_BIT(FLASH->CR, FLASH_CR_SNB);
 8007a4e:	4b0d      	ldr	r3, [pc, #52]	; (8007a84 <FLASH_Erase_Sector+0x8c>)
 8007a50:	691b      	ldr	r3, [r3, #16]
 8007a52:	4a0c      	ldr	r2, [pc, #48]	; (8007a84 <FLASH_Erase_Sector+0x8c>)
 8007a54:	f023 03f8 	bic.w	r3, r3, #248	; 0xf8
 8007a58:	6113      	str	r3, [r2, #16]
  FLASH->CR |= FLASH_CR_SER | (Sector << FLASH_CR_SNB_Pos);
 8007a5a:	4b0a      	ldr	r3, [pc, #40]	; (8007a84 <FLASH_Erase_Sector+0x8c>)
 8007a5c:	691a      	ldr	r2, [r3, #16]
 8007a5e:	687b      	ldr	r3, [r7, #4]
 8007a60:	00db      	lsls	r3, r3, #3
 8007a62:	4313      	orrs	r3, r2
 8007a64:	4a07      	ldr	r2, [pc, #28]	; (8007a84 <FLASH_Erase_Sector+0x8c>)
 8007a66:	f043 0302 	orr.w	r3, r3, #2
 8007a6a:	6113      	str	r3, [r2, #16]
  FLASH->CR |= FLASH_CR_STRT;
 8007a6c:	4b05      	ldr	r3, [pc, #20]	; (8007a84 <FLASH_Erase_Sector+0x8c>)
 8007a6e:	691b      	ldr	r3, [r3, #16]
 8007a70:	4a04      	ldr	r2, [pc, #16]	; (8007a84 <FLASH_Erase_Sector+0x8c>)
 8007a72:	f443 3380 	orr.w	r3, r3, #65536	; 0x10000
 8007a76:	6113      	str	r3, [r2, #16]
}
 8007a78:	bf00      	nop
 8007a7a:	3714      	adds	r7, #20
 8007a7c:	46bd      	mov	sp, r7
 8007a7e:	f85d 7b04 	ldr.w	r7, [sp], #4
 8007a82:	4770      	bx	lr
 8007a84:	40023c00 	.word	0x40023c00

08007a88 <FLASH_FlushCaches>:
/**
  * @brief  Flush the instruction and data caches
  * @retval None
  */
void FLASH_FlushCaches(void)
{
 8007a88:	b480      	push	{r7}
 8007a8a:	af00      	add	r7, sp, #0
  /* Flush instruction cache  */
  if (READ_BIT(FLASH->ACR, FLASH_ACR_ICEN) != RESET)
 8007a8c:	4b20      	ldr	r3, [pc, #128]	; (8007b10 <FLASH_FlushCaches+0x88>)
 8007a8e:	681b      	ldr	r3, [r3, #0]
 8007a90:	f403 7300 	and.w	r3, r3, #512	; 0x200
 8007a94:	2b00      	cmp	r3, #0
 8007a96:	d017      	beq.n	8007ac8 <FLASH_FlushCaches+0x40>
  {
    /* Disable instruction cache  */
    __HAL_FLASH_INSTRUCTION_CACHE_DISABLE();
 8007a98:	4b1d      	ldr	r3, [pc, #116]	; (8007b10 <FLASH_FlushCaches+0x88>)
 8007a9a:	681b      	ldr	r3, [r3, #0]
 8007a9c:	4a1c      	ldr	r2, [pc, #112]	; (8007b10 <FLASH_FlushCaches+0x88>)
 8007a9e:	f423 7300 	bic.w	r3, r3, #512	; 0x200
 8007aa2:	6013      	str	r3, [r2, #0]
    /* Reset instruction cache */
    __HAL_FLASH_INSTRUCTION_CACHE_RESET();
 8007aa4:	4b1a      	ldr	r3, [pc, #104]	; (8007b10 <FLASH_FlushCaches+0x88>)
 8007aa6:	681b      	ldr	r3, [r3, #0]
 8007aa8:	4a19      	ldr	r2, [pc, #100]	; (8007b10 <FLASH_FlushCaches+0x88>)
 8007aaa:	f443 6300 	orr.w	r3, r3, #2048	; 0x800
 8007aae:	6013      	str	r3, [r2, #0]
 8007ab0:	4b17      	ldr	r3, [pc, #92]	; (8007b10 <FLASH_FlushCaches+0x88>)
 8007ab2:	681b      	ldr	r3, [r3, #0]
 8007ab4:	4a16      	ldr	r2, [pc, #88]	; (8007b10 <FLASH_FlushCaches+0x88>)
 8007ab6:	f423 6300 	bic.w	r3, r3, #2048	; 0x800
 8007aba:	6013      	str	r3, [r2, #0]
    /* Enable instruction cache */
    __HAL_FLASH_INSTRUCTION_CACHE_ENABLE();
 8007abc:	4b14      	ldr	r3, [pc, #80]	; (8007b10 <FLASH_FlushCaches+0x88>)
 8007abe:	681b      	ldr	r3, [r3, #0]
 8007ac0:	4a13      	ldr	r2, [pc, #76]	; (8007b10 <FLASH_FlushCaches+0x88>)
 8007ac2:	f443 7300 	orr.w	r3, r3, #512	; 0x200
 8007ac6:	6013      	str	r3, [r2, #0]
  }

  /* Flush data cache */
  if (READ_BIT(FLASH->ACR, FLASH_ACR_DCEN) != RESET)
 8007ac8:	4b11      	ldr	r3, [pc, #68]	; (8007b10 <FLASH_FlushCaches+0x88>)
 8007aca:	681b      	ldr	r3, [r3, #0]
 8007acc:	f403 6380 	and.w	r3, r3, #1024	; 0x400
 8007ad0:	2b00      	cmp	r3, #0
 8007ad2:	d017      	beq.n	8007b04 <FLASH_FlushCaches+0x7c>
  {
    /* Disable data cache  */
    __HAL_FLASH_DATA_CACHE_DISABLE();
 8007ad4:	4b0e      	ldr	r3, [pc, #56]	; (8007b10 <FLASH_FlushCaches+0x88>)
 8007ad6:	681b      	ldr	r3, [r3, #0]
 8007ad8:	4a0d      	ldr	r2, [pc, #52]	; (8007b10 <FLASH_FlushCaches+0x88>)
 8007ada:	f423 6380 	bic.w	r3, r3, #1024	; 0x400
 8007ade:	6013      	str	r3, [r2, #0]
    /* Reset data cache */
    __HAL_FLASH_DATA_CACHE_RESET();
 8007ae0:	4b0b      	ldr	r3, [pc, #44]	; (8007b10 <FLASH_FlushCaches+0x88>)
 8007ae2:	681b      	ldr	r3, [r3, #0]
 8007ae4:	4a0a      	ldr	r2, [pc, #40]	; (8007b10 <FLASH_FlushCaches+0x88>)
 8007ae6:	f443 5380 	orr.w	r3, r3, #4096	; 0x1000
 8007aea:	6013      	str	r3, [r2, #0]
 8007aec:	4b08      	ldr	r3, [pc, #32]	; (8007b10 <FLASH_FlushCaches+0x88>)
 8007aee:	681b      	ldr	r3, [r3, #0]
 8007af0:	4a07      	ldr	r2, [pc, #28]	; (8007b10 <FLASH_FlushCaches+0x88>)
 8007af2:	f423 5380 	bic.w	r3, r3, #4096	; 0x1000
 8007af6:	6013      	str	r3, [r2, #0]
    /* Enable data cache */
    __HAL_FLASH_DATA_CACHE_ENABLE();
 8007af8:	4b05      	ldr	r3, [pc, #20]	; (8007b10 <FLASH_FlushCaches+0x88>)
 8007afa:	681b      	ldr	r3, [r3, #0]
 8007afc:	4a04      	ldr	r2, [pc, #16]	; (8007b10 <FLASH_FlushCaches+0x88>)
 8007afe:	f443 6380 	orr.w	r3, r3, #1024	; 0x400
 8007b02:	6013      	str	r3, [r2, #0]
  }
}
 8007b04:	bf00      	nop
 8007b06:	46bd      	mov	sp, r7
 8007b08:	f85d 7b04 	ldr.w	r7, [sp], #4
 8007b0c:	4770      	bx	lr
 8007b0e:	bf00      	nop
 8007b10:	40023c00 	.word	0x40023c00

08007b14 <HAL_GPIO_Init>:
  * @param  GPIO_Init pointer to a GPIO_InitTypeDef structure that contains
  *         the configuration information for the specified GPIO peripheral.
  * @retval None
  */
void HAL_GPIO_Init(GPIO_TypeDef  *GPIOx, GPIO_InitTypeDef *GPIO_Init)
{
 8007b14:	b480      	push	{r7}
 8007b16:	b089      	sub	sp, #36	; 0x24
 8007b18:	af00      	add	r7, sp, #0
 8007b1a:	6078      	str	r0, [r7, #4]
 8007b1c:	6039      	str	r1, [r7, #0]
  uint32_t position;
  uint32_t ioposition = 0x00U;
 8007b1e:	2300      	movs	r3, #0
 8007b20:	617b      	str	r3, [r7, #20]
  uint32_t iocurrent = 0x00U;
 8007b22:	2300      	movs	r3, #0
 8007b24:	613b      	str	r3, [r7, #16]
  uint32_t temp = 0x00U;
 8007b26:	2300      	movs	r3, #0
 8007b28:	61bb      	str	r3, [r7, #24]
  assert_param(IS_GPIO_ALL_INSTANCE(GPIOx));
  assert_param(IS_GPIO_PIN(GPIO_Init->Pin));
  assert_param(IS_GPIO_MODE(GPIO_Init->Mode));

  /* Configure the port pins */
  for(position = 0U; position < GPIO_NUMBER; position++)
 8007b2a:	2300      	movs	r3, #0
 8007b2c:	61fb      	str	r3, [r7, #28]
 8007b2e:	e159      	b.n	8007de4 <HAL_GPIO_Init+0x2d0>
  {
    /* Get the IO position */
    ioposition = 0x01U << position;
 8007b30:	2201      	movs	r2, #1
 8007b32:	69fb      	ldr	r3, [r7, #28]
 8007b34:	fa02 f303 	lsl.w	r3, r2, r3
 8007b38:	617b      	str	r3, [r7, #20]
    /* Get the current IO position */
    iocurrent = (uint32_t)(GPIO_Init->Pin) & ioposition;
 8007b3a:	683b      	ldr	r3, [r7, #0]
 8007b3c:	681b      	ldr	r3, [r3, #0]
 8007b3e:	697a      	ldr	r2, [r7, #20]
 8007b40:	4013      	ands	r3, r2
 8007b42:	613b      	str	r3, [r7, #16]

    if(iocurrent == ioposition)
 8007b44:	693a      	ldr	r2, [r7, #16]
 8007b46:	697b      	ldr	r3, [r7, #20]
 8007b48:	429a      	cmp	r2, r3
 8007b4a:	f040 8148 	bne.w	8007dde <HAL_GPIO_Init+0x2ca>
    {
      /*--------------------- GPIO Mode Configuration ------------------------*/
      /* In case of Output or Alternate function mode selection */
      if(((GPIO_Init->Mode & GPIO_MODE) == MODE_OUTPUT) || \
 8007b4e:	683b      	ldr	r3, [r7, #0]
 8007b50:	685b      	ldr	r3, [r3, #4]
 8007b52:	f003 0303 	and.w	r3, r3, #3
 8007b56:	2b01      	cmp	r3, #1
 8007b58:	d005      	beq.n	8007b66 <HAL_GPIO_Init+0x52>
          (GPIO_Init->Mode & GPIO_MODE) == MODE_AF)
 8007b5a:	683b      	ldr	r3, [r7, #0]
 8007b5c:	685b      	ldr	r3, [r3, #4]
 8007b5e:	f003 0303 	and.w	r3, r3, #3
      if(((GPIO_Init->Mode & GPIO_MODE) == MODE_OUTPUT) || \
 8007b62:	2b02      	cmp	r3, #2
 8007b64:	d130      	bne.n	8007bc8 <HAL_GPIO_Init+0xb4>
      {
        /* Check the Speed parameter */
        assert_param(IS_GPIO_SPEED(GPIO_Init->Speed));
        /* Configure the IO Speed */
        temp = GPIOx->OSPEEDR; 
 8007b66:	687b      	ldr	r3, [r7, #4]
 8007b68:	689b      	ldr	r3, [r3, #8]
 8007b6a:	61bb      	str	r3, [r7, #24]
        temp &= ~(GPIO_OSPEEDER_OSPEEDR0 << (position * 2U));
 8007b6c:	69fb      	ldr	r3, [r7, #28]
 8007b6e:	005b      	lsls	r3, r3, #1
 8007b70:	2203      	movs	r2, #3
 8007b72:	fa02 f303 	lsl.w	r3, r2, r3
 8007b76:	43db      	mvns	r3, r3
 8007b78:	69ba      	ldr	r2, [r7, #24]
 8007b7a:	4013      	ands	r3, r2
 8007b7c:	61bb      	str	r3, [r7, #24]
        temp |= (GPIO_Init->Speed << (position * 2U));
 8007b7e:	683b      	ldr	r3, [r7, #0]
 8007b80:	68da      	ldr	r2, [r3, #12]
 8007b82:	69fb      	ldr	r3, [r7, #28]
 8007b84:	005b      	lsls	r3, r3, #1
 8007b86:	fa02 f303 	lsl.w	r3, r2, r3
 8007b8a:	69ba      	ldr	r2, [r7, #24]
 8007b8c:	4313      	orrs	r3, r2
 8007b8e:	61bb      	str	r3, [r7, #24]
        GPIOx->OSPEEDR = temp;
 8007b90:	687b      	ldr	r3, [r7, #4]
 8007b92:	69ba      	ldr	r2, [r7, #24]
 8007b94:	609a      	str	r2, [r3, #8]

        /* Configure the IO Output Type */
        temp = GPIOx->OTYPER;
 8007b96:	687b      	ldr	r3, [r7, #4]
 8007b98:	685b      	ldr	r3, [r3, #4]
 8007b9a:	61bb      	str	r3, [r7, #24]
        temp &= ~(GPIO_OTYPER_OT_0 << position) ;
 8007b9c:	2201      	movs	r2, #1
 8007b9e:	69fb      	ldr	r3, [r7, #28]
 8007ba0:	fa02 f303 	lsl.w	r3, r2, r3
 8007ba4:	43db      	mvns	r3, r3
 8007ba6:	69ba      	ldr	r2, [r7, #24]
 8007ba8:	4013      	ands	r3, r2
 8007baa:	61bb      	str	r3, [r7, #24]
        temp |= (((GPIO_Init->Mode & OUTPUT_TYPE) >> OUTPUT_TYPE_Pos) << position);
 8007bac:	683b      	ldr	r3, [r7, #0]
 8007bae:	685b      	ldr	r3, [r3, #4]
 8007bb0:	091b      	lsrs	r3, r3, #4
 8007bb2:	f003 0201 	and.w	r2, r3, #1
 8007bb6:	69fb      	ldr	r3, [r7, #28]
 8007bb8:	fa02 f303 	lsl.w	r3, r2, r3
 8007bbc:	69ba      	ldr	r2, [r7, #24]
 8007bbe:	4313      	orrs	r3, r2
 8007bc0:	61bb      	str	r3, [r7, #24]
        GPIOx->OTYPER = temp;
 8007bc2:	687b      	ldr	r3, [r7, #4]
 8007bc4:	69ba      	ldr	r2, [r7, #24]
 8007bc6:	605a      	str	r2, [r3, #4]
       }

      if((GPIO_Init->Mode & GPIO_MODE) != MODE_ANALOG)
 8007bc8:	683b      	ldr	r3, [r7, #0]
 8007bca:	685b      	ldr	r3, [r3, #4]
 8007bcc:	f003 0303 	and.w	r3, r3, #3
 8007bd0:	2b03      	cmp	r3, #3
 8007bd2:	d017      	beq.n	8007c04 <HAL_GPIO_Init+0xf0>
      {
        /* Check the parameters */
        assert_param(IS_GPIO_PULL(GPIO_Init->Pull));
        
        /* Activate the Pull-up or Pull down resistor for the current IO */
        temp = GPIOx->PUPDR;
 8007bd4:	687b      	ldr	r3, [r7, #4]
 8007bd6:	68db      	ldr	r3, [r3, #12]
 8007bd8:	61bb      	str	r3, [r7, #24]
        temp &= ~(GPIO_PUPDR_PUPDR0 << (position * 2U));
 8007bda:	69fb      	ldr	r3, [r7, #28]
 8007bdc:	005b      	lsls	r3, r3, #1
 8007bde:	2203      	movs	r2, #3
 8007be0:	fa02 f303 	lsl.w	r3, r2, r3
 8007be4:	43db      	mvns	r3, r3
 8007be6:	69ba      	ldr	r2, [r7, #24]
 8007be8:	4013      	ands	r3, r2
 8007bea:	61bb      	str	r3, [r7, #24]
        temp |= ((GPIO_Init->Pull) << (position * 2U));
 8007bec:	683b      	ldr	r3, [r7, #0]
 8007bee:	689a      	ldr	r2, [r3, #8]
 8007bf0:	69fb      	ldr	r3, [r7, #28]
 8007bf2:	005b      	lsls	r3, r3, #1
 8007bf4:	fa02 f303 	lsl.w	r3, r2, r3
 8007bf8:	69ba      	ldr	r2, [r7, #24]
 8007bfa:	4313      	orrs	r3, r2
 8007bfc:	61bb      	str	r3, [r7, #24]
        GPIOx->PUPDR = temp;
 8007bfe:	687b      	ldr	r3, [r7, #4]
 8007c00:	69ba      	ldr	r2, [r7, #24]
 8007c02:	60da      	str	r2, [r3, #12]
      }

      /* In case of Alternate function mode selection */
      if((GPIO_Init->Mode & GPIO_MODE) == MODE_AF)
 8007c04:	683b      	ldr	r3, [r7, #0]
 8007c06:	685b      	ldr	r3, [r3, #4]
 8007c08:	f003 0303 	and.w	r3, r3, #3
 8007c0c:	2b02      	cmp	r3, #2
 8007c0e:	d123      	bne.n	8007c58 <HAL_GPIO_Init+0x144>
      {
        /* Check the Alternate function parameter */
        assert_param(IS_GPIO_AF(GPIO_Init->Alternate));
        /* Configure Alternate function mapped with the current IO */
        temp = GPIOx->AFR[position >> 3U];
 8007c10:	69fb      	ldr	r3, [r7, #28]
 8007c12:	08da      	lsrs	r2, r3, #3
 8007c14:	687b      	ldr	r3, [r7, #4]
 8007c16:	3208      	adds	r2, #8
 8007c18:	f853 3022 	ldr.w	r3, [r3, r2, lsl #2]
 8007c1c:	61bb      	str	r3, [r7, #24]
        temp &= ~(0xFU << ((uint32_t)(position & 0x07U) * 4U)) ;
 8007c1e:	69fb      	ldr	r3, [r7, #28]
 8007c20:	f003 0307 	and.w	r3, r3, #7
 8007c24:	009b      	lsls	r3, r3, #2
 8007c26:	220f      	movs	r2, #15
 8007c28:	fa02 f303 	lsl.w	r3, r2, r3
 8007c2c:	43db      	mvns	r3, r3
 8007c2e:	69ba      	ldr	r2, [r7, #24]
 8007c30:	4013      	ands	r3, r2
 8007c32:	61bb      	str	r3, [r7, #24]
        temp |= ((uint32_t)(GPIO_Init->Alternate) << (((uint32_t)position & 0x07U) * 4U));
 8007c34:	683b      	ldr	r3, [r7, #0]
 8007c36:	691a      	ldr	r2, [r3, #16]
 8007c38:	69fb      	ldr	r3, [r7, #28]
 8007c3a:	f003 0307 	and.w	r3, r3, #7
 8007c3e:	009b      	lsls	r3, r3, #2
 8007c40:	fa02 f303 	lsl.w	r3, r2, r3
 8007c44:	69ba      	ldr	r2, [r7, #24]
 8007c46:	4313      	orrs	r3, r2
 8007c48:	61bb      	str	r3, [r7, #24]
        GPIOx->AFR[position >> 3U] = temp;
 8007c4a:	69fb      	ldr	r3, [r7, #28]
 8007c4c:	08da      	lsrs	r2, r3, #3
 8007c4e:	687b      	ldr	r3, [r7, #4]
 8007c50:	3208      	adds	r2, #8
 8007c52:	69b9      	ldr	r1, [r7, #24]
 8007c54:	f843 1022 	str.w	r1, [r3, r2, lsl #2]
      }

      /* Configure IO Direction mode (Input, Output, Alternate or Analog) */
      temp = GPIOx->MODER;
 8007c58:	687b      	ldr	r3, [r7, #4]
 8007c5a:	681b      	ldr	r3, [r3, #0]
 8007c5c:	61bb      	str	r3, [r7, #24]
      temp &= ~(GPIO_MODER_MODER0 << (position * 2U));
 8007c5e:	69fb      	ldr	r3, [r7, #28]
 8007c60:	005b      	lsls	r3, r3, #1
 8007c62:	2203      	movs	r2, #3
 8007c64:	fa02 f303 	lsl.w	r3, r2, r3
 8007c68:	43db      	mvns	r3, r3
 8007c6a:	69ba      	ldr	r2, [r7, #24]
 8007c6c:	4013      	ands	r3, r2
 8007c6e:	61bb      	str	r3, [r7, #24]
      temp |= ((GPIO_Init->Mode & GPIO_MODE) << (position * 2U));
 8007c70:	683b      	ldr	r3, [r7, #0]
 8007c72:	685b      	ldr	r3, [r3, #4]
 8007c74:	f003 0203 	and.w	r2, r3, #3
 8007c78:	69fb      	ldr	r3, [r7, #28]
 8007c7a:	005b      	lsls	r3, r3, #1
 8007c7c:	fa02 f303 	lsl.w	r3, r2, r3
 8007c80:	69ba      	ldr	r2, [r7, #24]
 8007c82:	4313      	orrs	r3, r2
 8007c84:	61bb      	str	r3, [r7, #24]
      GPIOx->MODER = temp;
 8007c86:	687b      	ldr	r3, [r7, #4]
 8007c88:	69ba      	ldr	r2, [r7, #24]
 8007c8a:	601a      	str	r2, [r3, #0]

      /*--------------------- EXTI Mode Configuration ------------------------*/
      /* Configure the External Interrupt or event for the current IO */
      if((GPIO_Init->Mode & EXTI_MODE) != 0x00U)
 8007c8c:	683b      	ldr	r3, [r7, #0]
 8007c8e:	685b      	ldr	r3, [r3, #4]
 8007c90:	f403 3340 	and.w	r3, r3, #196608	; 0x30000
 8007c94:	2b00      	cmp	r3, #0
 8007c96:	f000 80a2 	beq.w	8007dde <HAL_GPIO_Init+0x2ca>
      {
        /* Enable SYSCFG Clock */
        __HAL_RCC_SYSCFG_CLK_ENABLE();
 8007c9a:	2300      	movs	r3, #0
 8007c9c:	60fb      	str	r3, [r7, #12]
 8007c9e:	4b57      	ldr	r3, [pc, #348]	; (8007dfc <HAL_GPIO_Init+0x2e8>)
 8007ca0:	6c5b      	ldr	r3, [r3, #68]	; 0x44
 8007ca2:	4a56      	ldr	r2, [pc, #344]	; (8007dfc <HAL_GPIO_Init+0x2e8>)
 8007ca4:	f443 4380 	orr.w	r3, r3, #16384	; 0x4000
 8007ca8:	6453      	str	r3, [r2, #68]	; 0x44
 8007caa:	4b54      	ldr	r3, [pc, #336]	; (8007dfc <HAL_GPIO_Init+0x2e8>)
 8007cac:	6c5b      	ldr	r3, [r3, #68]	; 0x44
 8007cae:	f403 4380 	and.w	r3, r3, #16384	; 0x4000
 8007cb2:	60fb      	str	r3, [r7, #12]
 8007cb4:	68fb      	ldr	r3, [r7, #12]

        temp = SYSCFG->EXTICR[position >> 2U];
 8007cb6:	4a52      	ldr	r2, [pc, #328]	; (8007e00 <HAL_GPIO_Init+0x2ec>)
 8007cb8:	69fb      	ldr	r3, [r7, #28]
 8007cba:	089b      	lsrs	r3, r3, #2
 8007cbc:	3302      	adds	r3, #2
 8007cbe:	f852 3023 	ldr.w	r3, [r2, r3, lsl #2]
 8007cc2:	61bb      	str	r3, [r7, #24]
        temp &= ~(0x0FU << (4U * (position & 0x03U)));
 8007cc4:	69fb      	ldr	r3, [r7, #28]
 8007cc6:	f003 0303 	and.w	r3, r3, #3
 8007cca:	009b      	lsls	r3, r3, #2
 8007ccc:	220f      	movs	r2, #15
 8007cce:	fa02 f303 	lsl.w	r3, r2, r3
 8007cd2:	43db      	mvns	r3, r3
 8007cd4:	69ba      	ldr	r2, [r7, #24]
 8007cd6:	4013      	ands	r3, r2
 8007cd8:	61bb      	str	r3, [r7, #24]
        temp |= ((uint32_t)(GPIO_GET_INDEX(GPIOx)) << (4U * (position & 0x03U)));
 8007cda:	687b      	ldr	r3, [r7, #4]
 8007cdc:	4a49      	ldr	r2, [pc, #292]	; (8007e04 <HAL_GPIO_Init+0x2f0>)
 8007cde:	4293      	cmp	r3, r2
 8007ce0:	d019      	beq.n	8007d16 <HAL_GPIO_Init+0x202>
 8007ce2:	687b      	ldr	r3, [r7, #4]
 8007ce4:	4a48      	ldr	r2, [pc, #288]	; (8007e08 <HAL_GPIO_Init+0x2f4>)
 8007ce6:	4293      	cmp	r3, r2
 8007ce8:	d013      	beq.n	8007d12 <HAL_GPIO_Init+0x1fe>
 8007cea:	687b      	ldr	r3, [r7, #4]
 8007cec:	4a47      	ldr	r2, [pc, #284]	; (8007e0c <HAL_GPIO_Init+0x2f8>)
 8007cee:	4293      	cmp	r3, r2
 8007cf0:	d00d      	beq.n	8007d0e <HAL_GPIO_Init+0x1fa>
 8007cf2:	687b      	ldr	r3, [r7, #4]
 8007cf4:	4a46      	ldr	r2, [pc, #280]	; (8007e10 <HAL_GPIO_Init+0x2fc>)
 8007cf6:	4293      	cmp	r3, r2
 8007cf8:	d007      	beq.n	8007d0a <HAL_GPIO_Init+0x1f6>
 8007cfa:	687b      	ldr	r3, [r7, #4]
 8007cfc:	4a45      	ldr	r2, [pc, #276]	; (8007e14 <HAL_GPIO_Init+0x300>)
 8007cfe:	4293      	cmp	r3, r2
 8007d00:	d101      	bne.n	8007d06 <HAL_GPIO_Init+0x1f2>
 8007d02:	2304      	movs	r3, #4
 8007d04:	e008      	b.n	8007d18 <HAL_GPIO_Init+0x204>
 8007d06:	2307      	movs	r3, #7
 8007d08:	e006      	b.n	8007d18 <HAL_GPIO_Init+0x204>
 8007d0a:	2303      	movs	r3, #3
 8007d0c:	e004      	b.n	8007d18 <HAL_GPIO_Init+0x204>
 8007d0e:	2302      	movs	r3, #2
 8007d10:	e002      	b.n	8007d18 <HAL_GPIO_Init+0x204>
 8007d12:	2301      	movs	r3, #1
 8007d14:	e000      	b.n	8007d18 <HAL_GPIO_Init+0x204>
 8007d16:	2300      	movs	r3, #0
 8007d18:	69fa      	ldr	r2, [r7, #28]
 8007d1a:	f002 0203 	and.w	r2, r2, #3
 8007d1e:	0092      	lsls	r2, r2, #2
 8007d20:	4093      	lsls	r3, r2
 8007d22:	69ba      	ldr	r2, [r7, #24]
 8007d24:	4313      	orrs	r3, r2
 8007d26:	61bb      	str	r3, [r7, #24]
        SYSCFG->EXTICR[position >> 2U] = temp;
 8007d28:	4935      	ldr	r1, [pc, #212]	; (8007e00 <HAL_GPIO_Init+0x2ec>)
 8007d2a:	69fb      	ldr	r3, [r7, #28]
 8007d2c:	089b      	lsrs	r3, r3, #2
 8007d2e:	3302      	adds	r3, #2
 8007d30:	69ba      	ldr	r2, [r7, #24]
 8007d32:	f841 2023 	str.w	r2, [r1, r3, lsl #2]

        /* Clear EXTI line configuration */
        temp = EXTI->IMR;
 8007d36:	4b38      	ldr	r3, [pc, #224]	; (8007e18 <HAL_GPIO_Init+0x304>)
 8007d38:	681b      	ldr	r3, [r3, #0]
 8007d3a:	61bb      	str	r3, [r7, #24]
        temp &= ~((uint32_t)iocurrent);
 8007d3c:	693b      	ldr	r3, [r7, #16]
 8007d3e:	43db      	mvns	r3, r3
 8007d40:	69ba      	ldr	r2, [r7, #24]
 8007d42:	4013      	ands	r3, r2
 8007d44:	61bb      	str	r3, [r7, #24]
        if((GPIO_Init->Mode & EXTI_IT) != 0x00U)
 8007d46:	683b      	ldr	r3, [r7, #0]
 8007d48:	685b      	ldr	r3, [r3, #4]
 8007d4a:	f403 3380 	and.w	r3, r3, #65536	; 0x10000
 8007d4e:	2b00      	cmp	r3, #0
 8007d50:	d003      	beq.n	8007d5a <HAL_GPIO_Init+0x246>
        {
          temp |= iocurrent;
 8007d52:	69ba      	ldr	r2, [r7, #24]
 8007d54:	693b      	ldr	r3, [r7, #16]
 8007d56:	4313      	orrs	r3, r2
 8007d58:	61bb      	str	r3, [r7, #24]
        }
        EXTI->IMR = temp;
 8007d5a:	4a2f      	ldr	r2, [pc, #188]	; (8007e18 <HAL_GPIO_Init+0x304>)
 8007d5c:	69bb      	ldr	r3, [r7, #24]
 8007d5e:	6013      	str	r3, [r2, #0]

        temp = EXTI->EMR;
 8007d60:	4b2d      	ldr	r3, [pc, #180]	; (8007e18 <HAL_GPIO_Init+0x304>)
 8007d62:	685b      	ldr	r3, [r3, #4]
 8007d64:	61bb      	str	r3, [r7, #24]
        temp &= ~((uint32_t)iocurrent);
 8007d66:	693b      	ldr	r3, [r7, #16]
 8007d68:	43db      	mvns	r3, r3
 8007d6a:	69ba      	ldr	r2, [r7, #24]
 8007d6c:	4013      	ands	r3, r2
 8007d6e:	61bb      	str	r3, [r7, #24]
        if((GPIO_Init->Mode & EXTI_EVT) != 0x00U)
 8007d70:	683b      	ldr	r3, [r7, #0]
 8007d72:	685b      	ldr	r3, [r3, #4]
 8007d74:	f403 3300 	and.w	r3, r3, #131072	; 0x20000
 8007d78:	2b00      	cmp	r3, #0
 8007d7a:	d003      	beq.n	8007d84 <HAL_GPIO_Init+0x270>
        {
          temp |= iocurrent;
 8007d7c:	69ba      	ldr	r2, [r7, #24]
 8007d7e:	693b      	ldr	r3, [r7, #16]
 8007d80:	4313      	orrs	r3, r2
 8007d82:	61bb      	str	r3, [r7, #24]
        }
        EXTI->EMR = temp;
 8007d84:	4a24      	ldr	r2, [pc, #144]	; (8007e18 <HAL_GPIO_Init+0x304>)
 8007d86:	69bb      	ldr	r3, [r7, #24]
 8007d88:	6053      	str	r3, [r2, #4]

        /* Clear Rising Falling edge configuration */
        temp = EXTI->RTSR;
 8007d8a:	4b23      	ldr	r3, [pc, #140]	; (8007e18 <HAL_GPIO_Init+0x304>)
 8007d8c:	689b      	ldr	r3, [r3, #8]
 8007d8e:	61bb      	str	r3, [r7, #24]
        temp &= ~((uint32_t)iocurrent);
 8007d90:	693b      	ldr	r3, [r7, #16]
 8007d92:	43db      	mvns	r3, r3
 8007d94:	69ba      	ldr	r2, [r7, #24]
 8007d96:	4013      	ands	r3, r2
 8007d98:	61bb      	str	r3, [r7, #24]
        if((GPIO_Init->Mode & TRIGGER_RISING) != 0x00U)
 8007d9a:	683b      	ldr	r3, [r7, #0]
 8007d9c:	685b      	ldr	r3, [r3, #4]
 8007d9e:	f403 1380 	and.w	r3, r3, #1048576	; 0x100000
 8007da2:	2b00      	cmp	r3, #0
 8007da4:	d003      	beq.n	8007dae <HAL_GPIO_Init+0x29a>
        {
          temp |= iocurrent;
 8007da6:	69ba      	ldr	r2, [r7, #24]
 8007da8:	693b      	ldr	r3, [r7, #16]
 8007daa:	4313      	orrs	r3, r2
 8007dac:	61bb      	str	r3, [r7, #24]
        }
        EXTI->RTSR = temp;
 8007dae:	4a1a      	ldr	r2, [pc, #104]	; (8007e18 <HAL_GPIO_Init+0x304>)
 8007db0:	69bb      	ldr	r3, [r7, #24]
 8007db2:	6093      	str	r3, [r2, #8]

        temp = EXTI->FTSR;
 8007db4:	4b18      	ldr	r3, [pc, #96]	; (8007e18 <HAL_GPIO_Init+0x304>)
 8007db6:	68db      	ldr	r3, [r3, #12]
 8007db8:	61bb      	str	r3, [r7, #24]
        temp &= ~((uint32_t)iocurrent);
 8007dba:	693b      	ldr	r3, [r7, #16]
 8007dbc:	43db      	mvns	r3, r3
 8007dbe:	69ba      	ldr	r2, [r7, #24]
 8007dc0:	4013      	ands	r3, r2
 8007dc2:	61bb      	str	r3, [r7, #24]
        if((GPIO_Init->Mode & TRIGGER_FALLING) != 0x00U)
 8007dc4:	683b      	ldr	r3, [r7, #0]
 8007dc6:	685b      	ldr	r3, [r3, #4]
 8007dc8:	f403 1300 	and.w	r3, r3, #2097152	; 0x200000
 8007dcc:	2b00      	cmp	r3, #0
 8007dce:	d003      	beq.n	8007dd8 <HAL_GPIO_Init+0x2c4>
        {
          temp |= iocurrent;
 8007dd0:	69ba      	ldr	r2, [r7, #24]
 8007dd2:	693b      	ldr	r3, [r7, #16]
 8007dd4:	4313      	orrs	r3, r2
 8007dd6:	61bb      	str	r3, [r7, #24]
        }
        EXTI->FTSR = temp;
 8007dd8:	4a0f      	ldr	r2, [pc, #60]	; (8007e18 <HAL_GPIO_Init+0x304>)
 8007dda:	69bb      	ldr	r3, [r7, #24]
 8007ddc:	60d3      	str	r3, [r2, #12]
  for(position = 0U; position < GPIO_NUMBER; position++)
 8007dde:	69fb      	ldr	r3, [r7, #28]
 8007de0:	3301      	adds	r3, #1
 8007de2:	61fb      	str	r3, [r7, #28]
 8007de4:	69fb      	ldr	r3, [r7, #28]
 8007de6:	2b0f      	cmp	r3, #15
 8007de8:	f67f aea2 	bls.w	8007b30 <HAL_GPIO_Init+0x1c>
      }
    }
  }
}
 8007dec:	bf00      	nop
 8007dee:	bf00      	nop
 8007df0:	3724      	adds	r7, #36	; 0x24
 8007df2:	46bd      	mov	sp, r7
 8007df4:	f85d 7b04 	ldr.w	r7, [sp], #4
 8007df8:	4770      	bx	lr
 8007dfa:	bf00      	nop
 8007dfc:	40023800 	.word	0x40023800
 8007e00:	40013800 	.word	0x40013800
 8007e04:	40020000 	.word	0x40020000
 8007e08:	40020400 	.word	0x40020400
 8007e0c:	40020800 	.word	0x40020800
 8007e10:	40020c00 	.word	0x40020c00
 8007e14:	40021000 	.word	0x40021000
 8007e18:	40013c00 	.word	0x40013c00

08007e1c <HAL_GPIO_WritePin>:
  *            @arg GPIO_PIN_RESET: to clear the port pin
  *            @arg GPIO_PIN_SET: to set the port pin
  * @retval None
  */
void HAL_GPIO_WritePin(GPIO_TypeDef* GPIOx, uint16_t GPIO_Pin, GPIO_PinState PinState)
{
 8007e1c:	b480      	push	{r7}
 8007e1e:	b083      	sub	sp, #12
 8007e20:	af00      	add	r7, sp, #0
 8007e22:	6078      	str	r0, [r7, #4]
 8007e24:	460b      	mov	r3, r1
 8007e26:	807b      	strh	r3, [r7, #2]
 8007e28:	4613      	mov	r3, r2
 8007e2a:	707b      	strb	r3, [r7, #1]
  /* Check the parameters */
  assert_param(IS_GPIO_PIN(GPIO_Pin));
  assert_param(IS_GPIO_PIN_ACTION(PinState));

  if(PinState != GPIO_PIN_RESET)
 8007e2c:	787b      	ldrb	r3, [r7, #1]
 8007e2e:	2b00      	cmp	r3, #0
 8007e30:	d003      	beq.n	8007e3a <HAL_GPIO_WritePin+0x1e>
  {
    GPIOx->BSRR = GPIO_Pin;
 8007e32:	887a      	ldrh	r2, [r7, #2]
 8007e34:	687b      	ldr	r3, [r7, #4]
 8007e36:	619a      	str	r2, [r3, #24]
  }
  else
  {
    GPIOx->BSRR = (uint32_t)GPIO_Pin << 16U;
  }
}
 8007e38:	e003      	b.n	8007e42 <HAL_GPIO_WritePin+0x26>
    GPIOx->BSRR = (uint32_t)GPIO_Pin << 16U;
 8007e3a:	887b      	ldrh	r3, [r7, #2]
 8007e3c:	041a      	lsls	r2, r3, #16
 8007e3e:	687b      	ldr	r3, [r7, #4]
 8007e40:	619a      	str	r2, [r3, #24]
}
 8007e42:	bf00      	nop
 8007e44:	370c      	adds	r7, #12
 8007e46:	46bd      	mov	sp, r7
 8007e48:	f85d 7b04 	ldr.w	r7, [sp], #4
 8007e4c:	4770      	bx	lr
	...

08007e50 <HAL_RCC_OscConfig>:
  *         supported by this API. User should request a transition to HSE Off
  *         first and then HSE On or HSE Bypass.
  * @retval HAL status
  */
__weak HAL_StatusTypeDef HAL_RCC_OscConfig(RCC_OscInitTypeDef  *RCC_OscInitStruct)
{
 8007e50:	b580      	push	{r7, lr}
 8007e52:	b086      	sub	sp, #24
 8007e54:	af00      	add	r7, sp, #0
 8007e56:	6078      	str	r0, [r7, #4]
  uint32_t tickstart, pll_config;

  /* Check Null pointer */
  if(RCC_OscInitStruct == NULL)
 8007e58:	687b      	ldr	r3, [r7, #4]
 8007e5a:	2b00      	cmp	r3, #0
 8007e5c:	d101      	bne.n	8007e62 <HAL_RCC_OscConfig+0x12>
  {
    return HAL_ERROR;
 8007e5e:	2301      	movs	r3, #1
 8007e60:	e264      	b.n	800832c <HAL_RCC_OscConfig+0x4dc>
  }

  /* Check the parameters */
  assert_param(IS_RCC_OSCILLATORTYPE(RCC_OscInitStruct->OscillatorType));
  /*------------------------------- HSE Configuration ------------------------*/
  if(((RCC_OscInitStruct->OscillatorType) & RCC_OSCILLATORTYPE_HSE) == RCC_OSCILLATORTYPE_HSE)
 8007e62:	687b      	ldr	r3, [r7, #4]
 8007e64:	681b      	ldr	r3, [r3, #0]
 8007e66:	f003 0301 	and.w	r3, r3, #1
 8007e6a:	2b00      	cmp	r3, #0
 8007e6c:	d075      	beq.n	8007f5a <HAL_RCC_OscConfig+0x10a>
  {
    /* Check the parameters */
    assert_param(IS_RCC_HSE(RCC_OscInitStruct->HSEState));
    /* When the HSE is used as system clock or clock source for PLL in these cases HSE will not disabled */
    if((__HAL_RCC_GET_SYSCLK_SOURCE() == RCC_CFGR_SWS_HSE) ||\
 8007e6e:	4ba3      	ldr	r3, [pc, #652]	; (80080fc <HAL_RCC_OscConfig+0x2ac>)
 8007e70:	689b      	ldr	r3, [r3, #8]
 8007e72:	f003 030c 	and.w	r3, r3, #12
 8007e76:	2b04      	cmp	r3, #4
 8007e78:	d00c      	beq.n	8007e94 <HAL_RCC_OscConfig+0x44>
      ((__HAL_RCC_GET_SYSCLK_SOURCE() == RCC_CFGR_SWS_PLL) && ((RCC->PLLCFGR & RCC_PLLCFGR_PLLSRC) == RCC_PLLCFGR_PLLSRC_HSE)))
 8007e7a:	4ba0      	ldr	r3, [pc, #640]	; (80080fc <HAL_RCC_OscConfig+0x2ac>)
 8007e7c:	689b      	ldr	r3, [r3, #8]
 8007e7e:	f003 030c 	and.w	r3, r3, #12
    if((__HAL_RCC_GET_SYSCLK_SOURCE() == RCC_CFGR_SWS_HSE) ||\
 8007e82:	2b08      	cmp	r3, #8
 8007e84:	d112      	bne.n	8007eac <HAL_RCC_OscConfig+0x5c>
      ((__HAL_RCC_GET_SYSCLK_SOURCE() == RCC_CFGR_SWS_PLL) && ((RCC->PLLCFGR & RCC_PLLCFGR_PLLSRC) == RCC_PLLCFGR_PLLSRC_HSE)))
 8007e86:	4b9d      	ldr	r3, [pc, #628]	; (80080fc <HAL_RCC_OscConfig+0x2ac>)
 8007e88:	685b      	ldr	r3, [r3, #4]
 8007e8a:	f403 0380 	and.w	r3, r3, #4194304	; 0x400000
 8007e8e:	f5b3 0f80 	cmp.w	r3, #4194304	; 0x400000
 8007e92:	d10b      	bne.n	8007eac <HAL_RCC_OscConfig+0x5c>
    {
      if((__HAL_RCC_GET_FLAG(RCC_FLAG_HSERDY) != RESET) && (RCC_OscInitStruct->HSEState == RCC_HSE_OFF))
 8007e94:	4b99      	ldr	r3, [pc, #612]	; (80080fc <HAL_RCC_OscConfig+0x2ac>)
 8007e96:	681b      	ldr	r3, [r3, #0]
 8007e98:	f403 3300 	and.w	r3, r3, #131072	; 0x20000
 8007e9c:	2b00      	cmp	r3, #0
 8007e9e:	d05b      	beq.n	8007f58 <HAL_RCC_OscConfig+0x108>
 8007ea0:	687b      	ldr	r3, [r7, #4]
 8007ea2:	685b      	ldr	r3, [r3, #4]
 8007ea4:	2b00      	cmp	r3, #0
 8007ea6:	d157      	bne.n	8007f58 <HAL_RCC_OscConfig+0x108>
      {
        return HAL_ERROR;
 8007ea8:	2301      	movs	r3, #1
 8007eaa:	e23f      	b.n	800832c <HAL_RCC_OscConfig+0x4dc>
      }
    }
    else
    {
      /* Set the new HSE configuration ---------------------------------------*/
      __HAL_RCC_HSE_CONFIG(RCC_OscInitStruct->HSEState);
 8007eac:	687b      	ldr	r3, [r7, #4]
 8007eae:	685b      	ldr	r3, [r3, #4]
 8007eb0:	f5b3 3f80 	cmp.w	r3, #65536	; 0x10000
 8007eb4:	d106      	bne.n	8007ec4 <HAL_RCC_OscConfig+0x74>
 8007eb6:	4b91      	ldr	r3, [pc, #580]	; (80080fc <HAL_RCC_OscConfig+0x2ac>)
 8007eb8:	681b      	ldr	r3, [r3, #0]
 8007eba:	4a90      	ldr	r2, [pc, #576]	; (80080fc <HAL_RCC_OscConfig+0x2ac>)
 8007ebc:	f443 3380 	orr.w	r3, r3, #65536	; 0x10000
 8007ec0:	6013      	str	r3, [r2, #0]
 8007ec2:	e01d      	b.n	8007f00 <HAL_RCC_OscConfig+0xb0>
 8007ec4:	687b      	ldr	r3, [r7, #4]
 8007ec6:	685b      	ldr	r3, [r3, #4]
 8007ec8:	f5b3 2fa0 	cmp.w	r3, #327680	; 0x50000
 8007ecc:	d10c      	bne.n	8007ee8 <HAL_RCC_OscConfig+0x98>
 8007ece:	4b8b      	ldr	r3, [pc, #556]	; (80080fc <HAL_RCC_OscConfig+0x2ac>)
 8007ed0:	681b      	ldr	r3, [r3, #0]
 8007ed2:	4a8a      	ldr	r2, [pc, #552]	; (80080fc <HAL_RCC_OscConfig+0x2ac>)
 8007ed4:	f443 2380 	orr.w	r3, r3, #262144	; 0x40000
 8007ed8:	6013      	str	r3, [r2, #0]
 8007eda:	4b88      	ldr	r3, [pc, #544]	; (80080fc <HAL_RCC_OscConfig+0x2ac>)
 8007edc:	681b      	ldr	r3, [r3, #0]
 8007ede:	4a87      	ldr	r2, [pc, #540]	; (80080fc <HAL_RCC_OscConfig+0x2ac>)
 8007ee0:	f443 3380 	orr.w	r3, r3, #65536	; 0x10000
 8007ee4:	6013      	str	r3, [r2, #0]
 8007ee6:	e00b      	b.n	8007f00 <HAL_RCC_OscConfig+0xb0>
 8007ee8:	4b84      	ldr	r3, [pc, #528]	; (80080fc <HAL_RCC_OscConfig+0x2ac>)
 8007eea:	681b      	ldr	r3, [r3, #0]
 8007eec:	4a83      	ldr	r2, [pc, #524]	; (80080fc <HAL_RCC_OscConfig+0x2ac>)
 8007eee:	f423 3380 	bic.w	r3, r3, #65536	; 0x10000
 8007ef2:	6013      	str	r3, [r2, #0]
 8007ef4:	4b81      	ldr	r3, [pc, #516]	; (80080fc <HAL_RCC_OscConfig+0x2ac>)
 8007ef6:	681b      	ldr	r3, [r3, #0]
 8007ef8:	4a80      	ldr	r2, [pc, #512]	; (80080fc <HAL_RCC_OscConfig+0x2ac>)
 8007efa:	f423 2380 	bic.w	r3, r3, #262144	; 0x40000
 8007efe:	6013      	str	r3, [r2, #0]

      /* Check the HSE State */
      if((RCC_OscInitStruct->HSEState) != RCC_HSE_OFF)
 8007f00:	687b      	ldr	r3, [r7, #4]
 8007f02:	685b      	ldr	r3, [r3, #4]
 8007f04:	2b00      	cmp	r3, #0
 8007f06:	d013      	beq.n	8007f30 <HAL_RCC_OscConfig+0xe0>
      {
        /* Get Start Tick */
        tickstart = HAL_GetTick();
 8007f08:	f7ff fa0e 	bl	8007328 <HAL_GetTick>
 8007f0c:	6138      	str	r0, [r7, #16]

        /* Wait till HSE is ready */
        while(__HAL_RCC_GET_FLAG(RCC_FLAG_HSERDY) == RESET)
 8007f0e:	e008      	b.n	8007f22 <HAL_RCC_OscConfig+0xd2>
        {
          if((HAL_GetTick() - tickstart ) > HSE_TIMEOUT_VALUE)
 8007f10:	f7ff fa0a 	bl	8007328 <HAL_GetTick>
 8007f14:	4602      	mov	r2, r0
 8007f16:	693b      	ldr	r3, [r7, #16]
 8007f18:	1ad3      	subs	r3, r2, r3
 8007f1a:	2b64      	cmp	r3, #100	; 0x64
 8007f1c:	d901      	bls.n	8007f22 <HAL_RCC_OscConfig+0xd2>
          {
            return HAL_TIMEOUT;
 8007f1e:	2303      	movs	r3, #3
 8007f20:	e204      	b.n	800832c <HAL_RCC_OscConfig+0x4dc>
        while(__HAL_RCC_GET_FLAG(RCC_FLAG_HSERDY) == RESET)
 8007f22:	4b76      	ldr	r3, [pc, #472]	; (80080fc <HAL_RCC_OscConfig+0x2ac>)
 8007f24:	681b      	ldr	r3, [r3, #0]
 8007f26:	f403 3300 	and.w	r3, r3, #131072	; 0x20000
 8007f2a:	2b00      	cmp	r3, #0
 8007f2c:	d0f0      	beq.n	8007f10 <HAL_RCC_OscConfig+0xc0>
 8007f2e:	e014      	b.n	8007f5a <HAL_RCC_OscConfig+0x10a>
        }
      }
      else
      {
        /* Get Start Tick */
        tickstart = HAL_GetTick();
 8007f30:	f7ff f9fa 	bl	8007328 <HAL_GetTick>
 8007f34:	6138      	str	r0, [r7, #16]

        /* Wait till HSE is bypassed or disabled */
        while(__HAL_RCC_GET_FLAG(RCC_FLAG_HSERDY) != RESET)
 8007f36:	e008      	b.n	8007f4a <HAL_RCC_OscConfig+0xfa>
        {
          if((HAL_GetTick() - tickstart ) > HSE_TIMEOUT_VALUE)
 8007f38:	f7ff f9f6 	bl	8007328 <HAL_GetTick>
 8007f3c:	4602      	mov	r2, r0
 8007f3e:	693b      	ldr	r3, [r7, #16]
 8007f40:	1ad3      	subs	r3, r2, r3
 8007f42:	2b64      	cmp	r3, #100	; 0x64
 8007f44:	d901      	bls.n	8007f4a <HAL_RCC_OscConfig+0xfa>
          {
            return HAL_TIMEOUT;
 8007f46:	2303      	movs	r3, #3
 8007f48:	e1f0      	b.n	800832c <HAL_RCC_OscConfig+0x4dc>
        while(__HAL_RCC_GET_FLAG(RCC_FLAG_HSERDY) != RESET)
 8007f4a:	4b6c      	ldr	r3, [pc, #432]	; (80080fc <HAL_RCC_OscConfig+0x2ac>)
 8007f4c:	681b      	ldr	r3, [r3, #0]
 8007f4e:	f403 3300 	and.w	r3, r3, #131072	; 0x20000
 8007f52:	2b00      	cmp	r3, #0
 8007f54:	d1f0      	bne.n	8007f38 <HAL_RCC_OscConfig+0xe8>
 8007f56:	e000      	b.n	8007f5a <HAL_RCC_OscConfig+0x10a>
      if((__HAL_RCC_GET_FLAG(RCC_FLAG_HSERDY) != RESET) && (RCC_OscInitStruct->HSEState == RCC_HSE_OFF))
 8007f58:	bf00      	nop
        }
      }
    }
  }
  /*----------------------------- HSI Configuration --------------------------*/
  if(((RCC_OscInitStruct->OscillatorType) & RCC_OSCILLATORTYPE_HSI) == RCC_OSCILLATORTYPE_HSI)
 8007f5a:	687b      	ldr	r3, [r7, #4]
 8007f5c:	681b      	ldr	r3, [r3, #0]
 8007f5e:	f003 0302 	and.w	r3, r3, #2
 8007f62:	2b00      	cmp	r3, #0
 8007f64:	d063      	beq.n	800802e <HAL_RCC_OscConfig+0x1de>
    /* Check the parameters */
    assert_param(IS_RCC_HSI(RCC_OscInitStruct->HSIState));
    assert_param(IS_RCC_CALIBRATION_VALUE(RCC_OscInitStruct->HSICalibrationValue));

    /* Check if HSI is used as system clock or as PLL source when PLL is selected as system clock */
    if((__HAL_RCC_GET_SYSCLK_SOURCE() == RCC_CFGR_SWS_HSI) ||\
 8007f66:	4b65      	ldr	r3, [pc, #404]	; (80080fc <HAL_RCC_OscConfig+0x2ac>)
 8007f68:	689b      	ldr	r3, [r3, #8]
 8007f6a:	f003 030c 	and.w	r3, r3, #12
 8007f6e:	2b00      	cmp	r3, #0
 8007f70:	d00b      	beq.n	8007f8a <HAL_RCC_OscConfig+0x13a>
      ((__HAL_RCC_GET_SYSCLK_SOURCE() == RCC_CFGR_SWS_PLL) && ((RCC->PLLCFGR & RCC_PLLCFGR_PLLSRC) == RCC_PLLCFGR_PLLSRC_HSI)))
 8007f72:	4b62      	ldr	r3, [pc, #392]	; (80080fc <HAL_RCC_OscConfig+0x2ac>)
 8007f74:	689b      	ldr	r3, [r3, #8]
 8007f76:	f003 030c 	and.w	r3, r3, #12
    if((__HAL_RCC_GET_SYSCLK_SOURCE() == RCC_CFGR_SWS_HSI) ||\
 8007f7a:	2b08      	cmp	r3, #8
 8007f7c:	d11c      	bne.n	8007fb8 <HAL_RCC_OscConfig+0x168>
      ((__HAL_RCC_GET_SYSCLK_SOURCE() == RCC_CFGR_SWS_PLL) && ((RCC->PLLCFGR & RCC_PLLCFGR_PLLSRC) == RCC_PLLCFGR_PLLSRC_HSI)))
 8007f7e:	4b5f      	ldr	r3, [pc, #380]	; (80080fc <HAL_RCC_OscConfig+0x2ac>)
 8007f80:	685b      	ldr	r3, [r3, #4]
 8007f82:	f403 0380 	and.w	r3, r3, #4194304	; 0x400000
 8007f86:	2b00      	cmp	r3, #0
 8007f88:	d116      	bne.n	8007fb8 <HAL_RCC_OscConfig+0x168>
    {
      /* When HSI is used as system clock it will not disabled */
      if((__HAL_RCC_GET_FLAG(RCC_FLAG_HSIRDY) != RESET) && (RCC_OscInitStruct->HSIState != RCC_HSI_ON))
 8007f8a:	4b5c      	ldr	r3, [pc, #368]	; (80080fc <HAL_RCC_OscConfig+0x2ac>)
 8007f8c:	681b      	ldr	r3, [r3, #0]
 8007f8e:	f003 0302 	and.w	r3, r3, #2
 8007f92:	2b00      	cmp	r3, #0
 8007f94:	d005      	beq.n	8007fa2 <HAL_RCC_OscConfig+0x152>
 8007f96:	687b      	ldr	r3, [r7, #4]
 8007f98:	68db      	ldr	r3, [r3, #12]
 8007f9a:	2b01      	cmp	r3, #1
 8007f9c:	d001      	beq.n	8007fa2 <HAL_RCC_OscConfig+0x152>
      {
        return HAL_ERROR;
 8007f9e:	2301      	movs	r3, #1
 8007fa0:	e1c4      	b.n	800832c <HAL_RCC_OscConfig+0x4dc>
      }
      /* Otherwise, just the calibration is allowed */
      else
      {
        /* Adjusts the Internal High Speed oscillator (HSI) calibration value.*/
        __HAL_RCC_HSI_CALIBRATIONVALUE_ADJUST(RCC_OscInitStruct->HSICalibrationValue);
 8007fa2:	4b56      	ldr	r3, [pc, #344]	; (80080fc <HAL_RCC_OscConfig+0x2ac>)
 8007fa4:	681b      	ldr	r3, [r3, #0]
 8007fa6:	f023 02f8 	bic.w	r2, r3, #248	; 0xf8
 8007faa:	687b      	ldr	r3, [r7, #4]
 8007fac:	691b      	ldr	r3, [r3, #16]
 8007fae:	00db      	lsls	r3, r3, #3
 8007fb0:	4952      	ldr	r1, [pc, #328]	; (80080fc <HAL_RCC_OscConfig+0x2ac>)
 8007fb2:	4313      	orrs	r3, r2
 8007fb4:	600b      	str	r3, [r1, #0]
      if((__HAL_RCC_GET_FLAG(RCC_FLAG_HSIRDY) != RESET) && (RCC_OscInitStruct->HSIState != RCC_HSI_ON))
 8007fb6:	e03a      	b.n	800802e <HAL_RCC_OscConfig+0x1de>
      }
    }
    else
    {
      /* Check the HSI State */
      if((RCC_OscInitStruct->HSIState)!= RCC_HSI_OFF)
 8007fb8:	687b      	ldr	r3, [r7, #4]
 8007fba:	68db      	ldr	r3, [r3, #12]
 8007fbc:	2b00      	cmp	r3, #0
 8007fbe:	d020      	beq.n	8008002 <HAL_RCC_OscConfig+0x1b2>
      {
        /* Enable the Internal High Speed oscillator (HSI). */
        __HAL_RCC_HSI_ENABLE();
 8007fc0:	4b4f      	ldr	r3, [pc, #316]	; (8008100 <HAL_RCC_OscConfig+0x2b0>)
 8007fc2:	2201      	movs	r2, #1
 8007fc4:	601a      	str	r2, [r3, #0]

        /* Get Start Tick*/
        tickstart = HAL_GetTick();
 8007fc6:	f7ff f9af 	bl	8007328 <HAL_GetTick>
 8007fca:	6138      	str	r0, [r7, #16]

        /* Wait till HSI is ready */
        while(__HAL_RCC_GET_FLAG(RCC_FLAG_HSIRDY) == RESET)
 8007fcc:	e008      	b.n	8007fe0 <HAL_RCC_OscConfig+0x190>
        {
          if((HAL_GetTick() - tickstart ) > HSI_TIMEOUT_VALUE)
 8007fce:	f7ff f9ab 	bl	8007328 <HAL_GetTick>
 8007fd2:	4602      	mov	r2, r0
 8007fd4:	693b      	ldr	r3, [r7, #16]
 8007fd6:	1ad3      	subs	r3, r2, r3
 8007fd8:	2b02      	cmp	r3, #2
 8007fda:	d901      	bls.n	8007fe0 <HAL_RCC_OscConfig+0x190>
          {
            return HAL_TIMEOUT;
 8007fdc:	2303      	movs	r3, #3
 8007fde:	e1a5      	b.n	800832c <HAL_RCC_OscConfig+0x4dc>
        while(__HAL_RCC_GET_FLAG(RCC_FLAG_HSIRDY) == RESET)
 8007fe0:	4b46      	ldr	r3, [pc, #280]	; (80080fc <HAL_RCC_OscConfig+0x2ac>)
 8007fe2:	681b      	ldr	r3, [r3, #0]
 8007fe4:	f003 0302 	and.w	r3, r3, #2
 8007fe8:	2b00      	cmp	r3, #0
 8007fea:	d0f0      	beq.n	8007fce <HAL_RCC_OscConfig+0x17e>
          }
        }

        /* Adjusts the Internal High Speed oscillator (HSI) calibration value. */
        __HAL_RCC_HSI_CALIBRATIONVALUE_ADJUST(RCC_OscInitStruct->HSICalibrationValue);
 8007fec:	4b43      	ldr	r3, [pc, #268]	; (80080fc <HAL_RCC_OscConfig+0x2ac>)
 8007fee:	681b      	ldr	r3, [r3, #0]
 8007ff0:	f023 02f8 	bic.w	r2, r3, #248	; 0xf8
 8007ff4:	687b      	ldr	r3, [r7, #4]
 8007ff6:	691b      	ldr	r3, [r3, #16]
 8007ff8:	00db      	lsls	r3, r3, #3
 8007ffa:	4940      	ldr	r1, [pc, #256]	; (80080fc <HAL_RCC_OscConfig+0x2ac>)
 8007ffc:	4313      	orrs	r3, r2
 8007ffe:	600b      	str	r3, [r1, #0]
 8008000:	e015      	b.n	800802e <HAL_RCC_OscConfig+0x1de>
      }
      else
      {
        /* Disable the Internal High Speed oscillator (HSI). */
        __HAL_RCC_HSI_DISABLE();
 8008002:	4b3f      	ldr	r3, [pc, #252]	; (8008100 <HAL_RCC_OscConfig+0x2b0>)
 8008004:	2200      	movs	r2, #0
 8008006:	601a      	str	r2, [r3, #0]

        /* Get Start Tick*/
        tickstart = HAL_GetTick();
 8008008:	f7ff f98e 	bl	8007328 <HAL_GetTick>
 800800c:	6138      	str	r0, [r7, #16]

        /* Wait till HSI is ready */
        while(__HAL_RCC_GET_FLAG(RCC_FLAG_HSIRDY) != RESET)
 800800e:	e008      	b.n	8008022 <HAL_RCC_OscConfig+0x1d2>
        {
          if((HAL_GetTick() - tickstart ) > HSI_TIMEOUT_VALUE)
 8008010:	f7ff f98a 	bl	8007328 <HAL_GetTick>
 8008014:	4602      	mov	r2, r0
 8008016:	693b      	ldr	r3, [r7, #16]
 8008018:	1ad3      	subs	r3, r2, r3
 800801a:	2b02      	cmp	r3, #2
 800801c:	d901      	bls.n	8008022 <HAL_RCC_OscConfig+0x1d2>
          {
            return HAL_TIMEOUT;
 800801e:	2303      	movs	r3, #3
 8008020:	e184      	b.n	800832c <HAL_RCC_OscConfig+0x4dc>
        while(__HAL_RCC_GET_FLAG(RCC_FLAG_HSIRDY) != RESET)
 8008022:	4b36      	ldr	r3, [pc, #216]	; (80080fc <HAL_RCC_OscConfig+0x2ac>)
 8008024:	681b      	ldr	r3, [r3, #0]
 8008026:	f003 0302 	and.w	r3, r3, #2
 800802a:	2b00      	cmp	r3, #0
 800802c:	d1f0      	bne.n	8008010 <HAL_RCC_OscConfig+0x1c0>
        }
      }
    }
  }
  /*------------------------------ LSI Configuration -------------------------*/
  if(((RCC_OscInitStruct->OscillatorType) & RCC_OSCILLATORTYPE_LSI) == RCC_OSCILLATORTYPE_LSI)
 800802e:	687b      	ldr	r3, [r7, #4]
 8008030:	681b      	ldr	r3, [r3, #0]
 8008032:	f003 0308 	and.w	r3, r3, #8
 8008036:	2b00      	cmp	r3, #0
 8008038:	d030      	beq.n	800809c <HAL_RCC_OscConfig+0x24c>
  {
    /* Check the parameters */
    assert_param(IS_RCC_LSI(RCC_OscInitStruct->LSIState));

    /* Check the LSI State */
    if((RCC_OscInitStruct->LSIState)!= RCC_LSI_OFF)
 800803a:	687b      	ldr	r3, [r7, #4]
 800803c:	695b      	ldr	r3, [r3, #20]
 800803e:	2b00      	cmp	r3, #0
 8008040:	d016      	beq.n	8008070 <HAL_RCC_OscConfig+0x220>
    {
      /* Enable the Internal Low Speed oscillator (LSI). */
      __HAL_RCC_LSI_ENABLE();
 8008042:	4b30      	ldr	r3, [pc, #192]	; (8008104 <HAL_RCC_OscConfig+0x2b4>)
 8008044:	2201      	movs	r2, #1
 8008046:	601a      	str	r2, [r3, #0]

      /* Get Start Tick*/
      tickstart = HAL_GetTick();
 8008048:	f7ff f96e 	bl	8007328 <HAL_GetTick>
 800804c:	6138      	str	r0, [r7, #16]

      /* Wait till LSI is ready */
      while(__HAL_RCC_GET_FLAG(RCC_FLAG_LSIRDY) == RESET)
 800804e:	e008      	b.n	8008062 <HAL_RCC_OscConfig+0x212>
      {
        if((HAL_GetTick() - tickstart ) > LSI_TIMEOUT_VALUE)
 8008050:	f7ff f96a 	bl	8007328 <HAL_GetTick>
 8008054:	4602      	mov	r2, r0
 8008056:	693b      	ldr	r3, [r7, #16]
 8008058:	1ad3      	subs	r3, r2, r3
 800805a:	2b02      	cmp	r3, #2
 800805c:	d901      	bls.n	8008062 <HAL_RCC_OscConfig+0x212>
        {
          return HAL_TIMEOUT;
 800805e:	2303      	movs	r3, #3
 8008060:	e164      	b.n	800832c <HAL_RCC_OscConfig+0x4dc>
      while(__HAL_RCC_GET_FLAG(RCC_FLAG_LSIRDY) == RESET)
 8008062:	4b26      	ldr	r3, [pc, #152]	; (80080fc <HAL_RCC_OscConfig+0x2ac>)
 8008064:	6f5b      	ldr	r3, [r3, #116]	; 0x74
 8008066:	f003 0302 	and.w	r3, r3, #2
 800806a:	2b00      	cmp	r3, #0
 800806c:	d0f0      	beq.n	8008050 <HAL_RCC_OscConfig+0x200>
 800806e:	e015      	b.n	800809c <HAL_RCC_OscConfig+0x24c>
      }
    }
    else
    {
      /* Disable the Internal Low Speed oscillator (LSI). */
      __HAL_RCC_LSI_DISABLE();
 8008070:	4b24      	ldr	r3, [pc, #144]	; (8008104 <HAL_RCC_OscConfig+0x2b4>)
 8008072:	2200      	movs	r2, #0
 8008074:	601a      	str	r2, [r3, #0]

      /* Get Start Tick */
      tickstart = HAL_GetTick();
 8008076:	f7ff f957 	bl	8007328 <HAL_GetTick>
 800807a:	6138      	str	r0, [r7, #16]

      /* Wait till LSI is ready */
      while(__HAL_RCC_GET_FLAG(RCC_FLAG_LSIRDY) != RESET)
 800807c:	e008      	b.n	8008090 <HAL_RCC_OscConfig+0x240>
      {
        if((HAL_GetTick() - tickstart ) > LSI_TIMEOUT_VALUE)
 800807e:	f7ff f953 	bl	8007328 <HAL_GetTick>
 8008082:	4602      	mov	r2, r0
 8008084:	693b      	ldr	r3, [r7, #16]
 8008086:	1ad3      	subs	r3, r2, r3
 8008088:	2b02      	cmp	r3, #2
 800808a:	d901      	bls.n	8008090 <HAL_RCC_OscConfig+0x240>
        {
          return HAL_TIMEOUT;
 800808c:	2303      	movs	r3, #3
 800808e:	e14d      	b.n	800832c <HAL_RCC_OscConfig+0x4dc>
      while(__HAL_RCC_GET_FLAG(RCC_FLAG_LSIRDY) != RESET)
 8008090:	4b1a      	ldr	r3, [pc, #104]	; (80080fc <HAL_RCC_OscConfig+0x2ac>)
 8008092:	6f5b      	ldr	r3, [r3, #116]	; 0x74
 8008094:	f003 0302 	and.w	r3, r3, #2
 8008098:	2b00      	cmp	r3, #0
 800809a:	d1f0      	bne.n	800807e <HAL_RCC_OscConfig+0x22e>
        }
      }
    }
  }
  /*------------------------------ LSE Configuration -------------------------*/
  if(((RCC_OscInitStruct->OscillatorType) & RCC_OSCILLATORTYPE_LSE) == RCC_OSCILLATORTYPE_LSE)
 800809c:	687b      	ldr	r3, [r7, #4]
 800809e:	681b      	ldr	r3, [r3, #0]
 80080a0:	f003 0304 	and.w	r3, r3, #4
 80080a4:	2b00      	cmp	r3, #0
 80080a6:	f000 80a0 	beq.w	80081ea <HAL_RCC_OscConfig+0x39a>
  {
    FlagStatus       pwrclkchanged = RESET;
 80080aa:	2300      	movs	r3, #0
 80080ac:	75fb      	strb	r3, [r7, #23]
    /* Check the parameters */
    assert_param(IS_RCC_LSE(RCC_OscInitStruct->LSEState));

    /* Update LSE configuration in Backup Domain control register    */
    /* Requires to enable write access to Backup Domain of necessary */
    if(__HAL_RCC_PWR_IS_CLK_DISABLED())
 80080ae:	4b13      	ldr	r3, [pc, #76]	; (80080fc <HAL_RCC_OscConfig+0x2ac>)
 80080b0:	6c1b      	ldr	r3, [r3, #64]	; 0x40
 80080b2:	f003 5380 	and.w	r3, r3, #268435456	; 0x10000000
 80080b6:	2b00      	cmp	r3, #0
 80080b8:	d10f      	bne.n	80080da <HAL_RCC_OscConfig+0x28a>
    {
      __HAL_RCC_PWR_CLK_ENABLE();
 80080ba:	2300      	movs	r3, #0
 80080bc:	60bb      	str	r3, [r7, #8]
 80080be:	4b0f      	ldr	r3, [pc, #60]	; (80080fc <HAL_RCC_OscConfig+0x2ac>)
 80080c0:	6c1b      	ldr	r3, [r3, #64]	; 0x40
 80080c2:	4a0e      	ldr	r2, [pc, #56]	; (80080fc <HAL_RCC_OscConfig+0x2ac>)
 80080c4:	f043 5380 	orr.w	r3, r3, #268435456	; 0x10000000
 80080c8:	6413      	str	r3, [r2, #64]	; 0x40
 80080ca:	4b0c      	ldr	r3, [pc, #48]	; (80080fc <HAL_RCC_OscConfig+0x2ac>)
 80080cc:	6c1b      	ldr	r3, [r3, #64]	; 0x40
 80080ce:	f003 5380 	and.w	r3, r3, #268435456	; 0x10000000
 80080d2:	60bb      	str	r3, [r7, #8]
 80080d4:	68bb      	ldr	r3, [r7, #8]
      pwrclkchanged = SET;
 80080d6:	2301      	movs	r3, #1
 80080d8:	75fb      	strb	r3, [r7, #23]
    }

    if(HAL_IS_BIT_CLR(PWR->CR, PWR_CR_DBP))
 80080da:	4b0b      	ldr	r3, [pc, #44]	; (8008108 <HAL_RCC_OscConfig+0x2b8>)
 80080dc:	681b      	ldr	r3, [r3, #0]
 80080de:	f403 7380 	and.w	r3, r3, #256	; 0x100
 80080e2:	2b00      	cmp	r3, #0
 80080e4:	d121      	bne.n	800812a <HAL_RCC_OscConfig+0x2da>
    {
      /* Enable write access to Backup domain */
      SET_BIT(PWR->CR, PWR_CR_DBP);
 80080e6:	4b08      	ldr	r3, [pc, #32]	; (8008108 <HAL_RCC_OscConfig+0x2b8>)
 80080e8:	681b      	ldr	r3, [r3, #0]
 80080ea:	4a07      	ldr	r2, [pc, #28]	; (8008108 <HAL_RCC_OscConfig+0x2b8>)
 80080ec:	f443 7380 	orr.w	r3, r3, #256	; 0x100
 80080f0:	6013      	str	r3, [r2, #0]

      /* Wait for Backup domain Write protection disable */
      tickstart = HAL_GetTick();
 80080f2:	f7ff f919 	bl	8007328 <HAL_GetTick>
 80080f6:	6138      	str	r0, [r7, #16]

      while(HAL_IS_BIT_CLR(PWR->CR, PWR_CR_DBP))
 80080f8:	e011      	b.n	800811e <HAL_RCC_OscConfig+0x2ce>
 80080fa:	bf00      	nop
 80080fc:	40023800 	.word	0x40023800
 8008100:	42470000 	.word	0x42470000
 8008104:	42470e80 	.word	0x42470e80
 8008108:	40007000 	.word	0x40007000
      {
        if((HAL_GetTick() - tickstart) > RCC_DBP_TIMEOUT_VALUE)
 800810c:	f7ff f90c 	bl	8007328 <HAL_GetTick>
 8008110:	4602      	mov	r2, r0
 8008112:	693b      	ldr	r3, [r7, #16]
 8008114:	1ad3      	subs	r3, r2, r3
 8008116:	2b02      	cmp	r3, #2
 8008118:	d901      	bls.n	800811e <HAL_RCC_OscConfig+0x2ce>
        {
          return HAL_TIMEOUT;
 800811a:	2303      	movs	r3, #3
 800811c:	e106      	b.n	800832c <HAL_RCC_OscConfig+0x4dc>
      while(HAL_IS_BIT_CLR(PWR->CR, PWR_CR_DBP))
 800811e:	4b85      	ldr	r3, [pc, #532]	; (8008334 <HAL_RCC_OscConfig+0x4e4>)
 8008120:	681b      	ldr	r3, [r3, #0]
 8008122:	f403 7380 	and.w	r3, r3, #256	; 0x100
 8008126:	2b00      	cmp	r3, #0
 8008128:	d0f0      	beq.n	800810c <HAL_RCC_OscConfig+0x2bc>
        }
      }
    }

    /* Set the new LSE configuration -----------------------------------------*/
    __HAL_RCC_LSE_CONFIG(RCC_OscInitStruct->LSEState);
 800812a:	687b      	ldr	r3, [r7, #4]
 800812c:	689b      	ldr	r3, [r3, #8]
 800812e:	2b01      	cmp	r3, #1
 8008130:	d106      	bne.n	8008140 <HAL_RCC_OscConfig+0x2f0>
 8008132:	4b81      	ldr	r3, [pc, #516]	; (8008338 <HAL_RCC_OscConfig+0x4e8>)
 8008134:	6f1b      	ldr	r3, [r3, #112]	; 0x70
 8008136:	4a80      	ldr	r2, [pc, #512]	; (8008338 <HAL_RCC_OscConfig+0x4e8>)
 8008138:	f043 0301 	orr.w	r3, r3, #1
 800813c:	6713      	str	r3, [r2, #112]	; 0x70
 800813e:	e01c      	b.n	800817a <HAL_RCC_OscConfig+0x32a>
 8008140:	687b      	ldr	r3, [r7, #4]
 8008142:	689b      	ldr	r3, [r3, #8]
 8008144:	2b05      	cmp	r3, #5
 8008146:	d10c      	bne.n	8008162 <HAL_RCC_OscConfig+0x312>
 8008148:	4b7b      	ldr	r3, [pc, #492]	; (8008338 <HAL_RCC_OscConfig+0x4e8>)
 800814a:	6f1b      	ldr	r3, [r3, #112]	; 0x70
 800814c:	4a7a      	ldr	r2, [pc, #488]	; (8008338 <HAL_RCC_OscConfig+0x4e8>)
 800814e:	f043 0304 	orr.w	r3, r3, #4
 8008152:	6713      	str	r3, [r2, #112]	; 0x70
 8008154:	4b78      	ldr	r3, [pc, #480]	; (8008338 <HAL_RCC_OscConfig+0x4e8>)
 8008156:	6f1b      	ldr	r3, [r3, #112]	; 0x70
 8008158:	4a77      	ldr	r2, [pc, #476]	; (8008338 <HAL_RCC_OscConfig+0x4e8>)
 800815a:	f043 0301 	orr.w	r3, r3, #1
 800815e:	6713      	str	r3, [r2, #112]	; 0x70
 8008160:	e00b      	b.n	800817a <HAL_RCC_OscConfig+0x32a>
 8008162:	4b75      	ldr	r3, [pc, #468]	; (8008338 <HAL_RCC_OscConfig+0x4e8>)
 8008164:	6f1b      	ldr	r3, [r3, #112]	; 0x70
 8008166:	4a74      	ldr	r2, [pc, #464]	; (8008338 <HAL_RCC_OscConfig+0x4e8>)
 8008168:	f023 0301 	bic.w	r3, r3, #1
 800816c:	6713      	str	r3, [r2, #112]	; 0x70
 800816e:	4b72      	ldr	r3, [pc, #456]	; (8008338 <HAL_RCC_OscConfig+0x4e8>)
 8008170:	6f1b      	ldr	r3, [r3, #112]	; 0x70
 8008172:	4a71      	ldr	r2, [pc, #452]	; (8008338 <HAL_RCC_OscConfig+0x4e8>)
 8008174:	f023 0304 	bic.w	r3, r3, #4
 8008178:	6713      	str	r3, [r2, #112]	; 0x70
    /* Check the LSE State */
    if((RCC_OscInitStruct->LSEState) != RCC_LSE_OFF)
 800817a:	687b      	ldr	r3, [r7, #4]
 800817c:	689b      	ldr	r3, [r3, #8]
 800817e:	2b00      	cmp	r3, #0
 8008180:	d015      	beq.n	80081ae <HAL_RCC_OscConfig+0x35e>
    {
      /* Get Start Tick*/
      tickstart = HAL_GetTick();
 8008182:	f7ff f8d1 	bl	8007328 <HAL_GetTick>
 8008186:	6138      	str	r0, [r7, #16]

      /* Wait till LSE is ready */
      while(__HAL_RCC_GET_FLAG(RCC_FLAG_LSERDY) == RESET)
 8008188:	e00a      	b.n	80081a0 <HAL_RCC_OscConfig+0x350>
      {
        if((HAL_GetTick() - tickstart ) > RCC_LSE_TIMEOUT_VALUE)
 800818a:	f7ff f8cd 	bl	8007328 <HAL_GetTick>
 800818e:	4602      	mov	r2, r0
 8008190:	693b      	ldr	r3, [r7, #16]
 8008192:	1ad3      	subs	r3, r2, r3
 8008194:	f241 3288 	movw	r2, #5000	; 0x1388
 8008198:	4293      	cmp	r3, r2
 800819a:	d901      	bls.n	80081a0 <HAL_RCC_OscConfig+0x350>
        {
          return HAL_TIMEOUT;
 800819c:	2303      	movs	r3, #3
 800819e:	e0c5      	b.n	800832c <HAL_RCC_OscConfig+0x4dc>
      while(__HAL_RCC_GET_FLAG(RCC_FLAG_LSERDY) == RESET)
 80081a0:	4b65      	ldr	r3, [pc, #404]	; (8008338 <HAL_RCC_OscConfig+0x4e8>)
 80081a2:	6f1b      	ldr	r3, [r3, #112]	; 0x70
 80081a4:	f003 0302 	and.w	r3, r3, #2
 80081a8:	2b00      	cmp	r3, #0
 80081aa:	d0ee      	beq.n	800818a <HAL_RCC_OscConfig+0x33a>
 80081ac:	e014      	b.n	80081d8 <HAL_RCC_OscConfig+0x388>
      }
    }
    else
    {
      /* Get Start Tick */
      tickstart = HAL_GetTick();
 80081ae:	f7ff f8bb 	bl	8007328 <HAL_GetTick>
 80081b2:	6138      	str	r0, [r7, #16]

      /* Wait till LSE is ready */
      while(__HAL_RCC_GET_FLAG(RCC_FLAG_LSERDY) != RESET)
 80081b4:	e00a      	b.n	80081cc <HAL_RCC_OscConfig+0x37c>
      {
        if((HAL_GetTick() - tickstart ) > RCC_LSE_TIMEOUT_VALUE)
 80081b6:	f7ff f8b7 	bl	8007328 <HAL_GetTick>
 80081ba:	4602      	mov	r2, r0
 80081bc:	693b      	ldr	r3, [r7, #16]
 80081be:	1ad3      	subs	r3, r2, r3
 80081c0:	f241 3288 	movw	r2, #5000	; 0x1388
 80081c4:	4293      	cmp	r3, r2
 80081c6:	d901      	bls.n	80081cc <HAL_RCC_OscConfig+0x37c>
        {
          return HAL_TIMEOUT;
 80081c8:	2303      	movs	r3, #3
 80081ca:	e0af      	b.n	800832c <HAL_RCC_OscConfig+0x4dc>
      while(__HAL_RCC_GET_FLAG(RCC_FLAG_LSERDY) != RESET)
 80081cc:	4b5a      	ldr	r3, [pc, #360]	; (8008338 <HAL_RCC_OscConfig+0x4e8>)
 80081ce:	6f1b      	ldr	r3, [r3, #112]	; 0x70
 80081d0:	f003 0302 	and.w	r3, r3, #2
 80081d4:	2b00      	cmp	r3, #0
 80081d6:	d1ee      	bne.n	80081b6 <HAL_RCC_OscConfig+0x366>
        }
      }
    }

    /* Restore clock configuration if changed */
    if(pwrclkchanged == SET)
 80081d8:	7dfb      	ldrb	r3, [r7, #23]
 80081da:	2b01      	cmp	r3, #1
 80081dc:	d105      	bne.n	80081ea <HAL_RCC_OscConfig+0x39a>
    {
      __HAL_RCC_PWR_CLK_DISABLE();
 80081de:	4b56      	ldr	r3, [pc, #344]	; (8008338 <HAL_RCC_OscConfig+0x4e8>)
 80081e0:	6c1b      	ldr	r3, [r3, #64]	; 0x40
 80081e2:	4a55      	ldr	r2, [pc, #340]	; (8008338 <HAL_RCC_OscConfig+0x4e8>)
 80081e4:	f023 5380 	bic.w	r3, r3, #268435456	; 0x10000000
 80081e8:	6413      	str	r3, [r2, #64]	; 0x40
    }
  }
  /*-------------------------------- PLL Configuration -----------------------*/
  /* Check the parameters */
  assert_param(IS_RCC_PLL(RCC_OscInitStruct->PLL.PLLState));
  if ((RCC_OscInitStruct->PLL.PLLState) != RCC_PLL_NONE)
 80081ea:	687b      	ldr	r3, [r7, #4]
 80081ec:	699b      	ldr	r3, [r3, #24]
 80081ee:	2b00      	cmp	r3, #0
 80081f0:	f000 809b 	beq.w	800832a <HAL_RCC_OscConfig+0x4da>
  {
    /* Check if the PLL is used as system clock or not */
    if(__HAL_RCC_GET_SYSCLK_SOURCE() != RCC_CFGR_SWS_PLL)
 80081f4:	4b50      	ldr	r3, [pc, #320]	; (8008338 <HAL_RCC_OscConfig+0x4e8>)
 80081f6:	689b      	ldr	r3, [r3, #8]
 80081f8:	f003 030c 	and.w	r3, r3, #12
 80081fc:	2b08      	cmp	r3, #8
 80081fe:	d05c      	beq.n	80082ba <HAL_RCC_OscConfig+0x46a>
    {
      if((RCC_OscInitStruct->PLL.PLLState) == RCC_PLL_ON)
 8008200:	687b      	ldr	r3, [r7, #4]
 8008202:	699b      	ldr	r3, [r3, #24]
 8008204:	2b02      	cmp	r3, #2
 8008206:	d141      	bne.n	800828c <HAL_RCC_OscConfig+0x43c>
        assert_param(IS_RCC_PLLN_VALUE(RCC_OscInitStruct->PLL.PLLN));
        assert_param(IS_RCC_PLLP_VALUE(RCC_OscInitStruct->PLL.PLLP));
        assert_param(IS_RCC_PLLQ_VALUE(RCC_OscInitStruct->PLL.PLLQ));

        /* Disable the main PLL. */
        __HAL_RCC_PLL_DISABLE();
 8008208:	4b4c      	ldr	r3, [pc, #304]	; (800833c <HAL_RCC_OscConfig+0x4ec>)
 800820a:	2200      	movs	r2, #0
 800820c:	601a      	str	r2, [r3, #0]

        /* Get Start Tick */
        tickstart = HAL_GetTick();
 800820e:	f7ff f88b 	bl	8007328 <HAL_GetTick>
 8008212:	6138      	str	r0, [r7, #16]

        /* Wait till PLL is ready */
        while(__HAL_RCC_GET_FLAG(RCC_FLAG_PLLRDY) != RESET)
 8008214:	e008      	b.n	8008228 <HAL_RCC_OscConfig+0x3d8>
        {
          if((HAL_GetTick() - tickstart ) > PLL_TIMEOUT_VALUE)
 8008216:	f7ff f887 	bl	8007328 <HAL_GetTick>
 800821a:	4602      	mov	r2, r0
 800821c:	693b      	ldr	r3, [r7, #16]
 800821e:	1ad3      	subs	r3, r2, r3
 8008220:	2b02      	cmp	r3, #2
 8008222:	d901      	bls.n	8008228 <HAL_RCC_OscConfig+0x3d8>
          {
            return HAL_TIMEOUT;
 8008224:	2303      	movs	r3, #3
 8008226:	e081      	b.n	800832c <HAL_RCC_OscConfig+0x4dc>
        while(__HAL_RCC_GET_FLAG(RCC_FLAG_PLLRDY) != RESET)
 8008228:	4b43      	ldr	r3, [pc, #268]	; (8008338 <HAL_RCC_OscConfig+0x4e8>)
 800822a:	681b      	ldr	r3, [r3, #0]
 800822c:	f003 7300 	and.w	r3, r3, #33554432	; 0x2000000
 8008230:	2b00      	cmp	r3, #0
 8008232:	d1f0      	bne.n	8008216 <HAL_RCC_OscConfig+0x3c6>
          }
        }

        /* Configure the main PLL clock source, multiplication and division factors. */
        WRITE_REG(RCC->PLLCFGR, (RCC_OscInitStruct->PLL.PLLSource                                            | \
 8008234:	687b      	ldr	r3, [r7, #4]
 8008236:	69da      	ldr	r2, [r3, #28]
 8008238:	687b      	ldr	r3, [r7, #4]
 800823a:	6a1b      	ldr	r3, [r3, #32]
 800823c:	431a      	orrs	r2, r3
 800823e:	687b      	ldr	r3, [r7, #4]
 8008240:	6a5b      	ldr	r3, [r3, #36]	; 0x24
 8008242:	019b      	lsls	r3, r3, #6
 8008244:	431a      	orrs	r2, r3
 8008246:	687b      	ldr	r3, [r7, #4]
 8008248:	6a9b      	ldr	r3, [r3, #40]	; 0x28
 800824a:	085b      	lsrs	r3, r3, #1
 800824c:	3b01      	subs	r3, #1
 800824e:	041b      	lsls	r3, r3, #16
 8008250:	431a      	orrs	r2, r3
 8008252:	687b      	ldr	r3, [r7, #4]
 8008254:	6adb      	ldr	r3, [r3, #44]	; 0x2c
 8008256:	061b      	lsls	r3, r3, #24
 8008258:	4937      	ldr	r1, [pc, #220]	; (8008338 <HAL_RCC_OscConfig+0x4e8>)
 800825a:	4313      	orrs	r3, r2
 800825c:	604b      	str	r3, [r1, #4]
                                 RCC_OscInitStruct->PLL.PLLM                                                 | \
                                 (RCC_OscInitStruct->PLL.PLLN << RCC_PLLCFGR_PLLN_Pos)             | \
                                 (((RCC_OscInitStruct->PLL.PLLP >> 1U) - 1U) << RCC_PLLCFGR_PLLP_Pos) | \
                                 (RCC_OscInitStruct->PLL.PLLQ << RCC_PLLCFGR_PLLQ_Pos)));
        /* Enable the main PLL. */
        __HAL_RCC_PLL_ENABLE();
 800825e:	4b37      	ldr	r3, [pc, #220]	; (800833c <HAL_RCC_OscConfig+0x4ec>)
 8008260:	2201      	movs	r2, #1
 8008262:	601a      	str	r2, [r3, #0]

        /* Get Start Tick */
        tickstart = HAL_GetTick();
 8008264:	f7ff f860 	bl	8007328 <HAL_GetTick>
 8008268:	6138      	str	r0, [r7, #16]

        /* Wait till PLL is ready */
        while(__HAL_RCC_GET_FLAG(RCC_FLAG_PLLRDY) == RESET)
 800826a:	e008      	b.n	800827e <HAL_RCC_OscConfig+0x42e>
        {
          if((HAL_GetTick() - tickstart ) > PLL_TIMEOUT_VALUE)
 800826c:	f7ff f85c 	bl	8007328 <HAL_GetTick>
 8008270:	4602      	mov	r2, r0
 8008272:	693b      	ldr	r3, [r7, #16]
 8008274:	1ad3      	subs	r3, r2, r3
 8008276:	2b02      	cmp	r3, #2
 8008278:	d901      	bls.n	800827e <HAL_RCC_OscConfig+0x42e>
          {
            return HAL_TIMEOUT;
 800827a:	2303      	movs	r3, #3
 800827c:	e056      	b.n	800832c <HAL_RCC_OscConfig+0x4dc>
        while(__HAL_RCC_GET_FLAG(RCC_FLAG_PLLRDY) == RESET)
 800827e:	4b2e      	ldr	r3, [pc, #184]	; (8008338 <HAL_RCC_OscConfig+0x4e8>)
 8008280:	681b      	ldr	r3, [r3, #0]
 8008282:	f003 7300 	and.w	r3, r3, #33554432	; 0x2000000
 8008286:	2b00      	cmp	r3, #0
 8008288:	d0f0      	beq.n	800826c <HAL_RCC_OscConfig+0x41c>
 800828a:	e04e      	b.n	800832a <HAL_RCC_OscConfig+0x4da>
        }
      }
      else
      {
        /* Disable the main PLL. */
        __HAL_RCC_PLL_DISABLE();
 800828c:	4b2b      	ldr	r3, [pc, #172]	; (800833c <HAL_RCC_OscConfig+0x4ec>)
 800828e:	2200      	movs	r2, #0
 8008290:	601a      	str	r2, [r3, #0]

        /* Get Start Tick */
        tickstart = HAL_GetTick();
 8008292:	f7ff f849 	bl	8007328 <HAL_GetTick>
 8008296:	6138      	str	r0, [r7, #16]

        /* Wait till PLL is ready */
        while(__HAL_RCC_GET_FLAG(RCC_FLAG_PLLRDY) != RESET)
 8008298:	e008      	b.n	80082ac <HAL_RCC_OscConfig+0x45c>
        {
          if((HAL_GetTick() - tickstart ) > PLL_TIMEOUT_VALUE)
 800829a:	f7ff f845 	bl	8007328 <HAL_GetTick>
 800829e:	4602      	mov	r2, r0
 80082a0:	693b      	ldr	r3, [r7, #16]
 80082a2:	1ad3      	subs	r3, r2, r3
 80082a4:	2b02      	cmp	r3, #2
 80082a6:	d901      	bls.n	80082ac <HAL_RCC_OscConfig+0x45c>
          {
            return HAL_TIMEOUT;
 80082a8:	2303      	movs	r3, #3
 80082aa:	e03f      	b.n	800832c <HAL_RCC_OscConfig+0x4dc>
        while(__HAL_RCC_GET_FLAG(RCC_FLAG_PLLRDY) != RESET)
 80082ac:	4b22      	ldr	r3, [pc, #136]	; (8008338 <HAL_RCC_OscConfig+0x4e8>)
 80082ae:	681b      	ldr	r3, [r3, #0]
 80082b0:	f003 7300 	and.w	r3, r3, #33554432	; 0x2000000
 80082b4:	2b00      	cmp	r3, #0
 80082b6:	d1f0      	bne.n	800829a <HAL_RCC_OscConfig+0x44a>
 80082b8:	e037      	b.n	800832a <HAL_RCC_OscConfig+0x4da>
      }
    }
    else
    {
      /* Check if there is a request to disable the PLL used as System clock source */
      if((RCC_OscInitStruct->PLL.PLLState) == RCC_PLL_OFF)
 80082ba:	687b      	ldr	r3, [r7, #4]
 80082bc:	699b      	ldr	r3, [r3, #24]
 80082be:	2b01      	cmp	r3, #1
 80082c0:	d101      	bne.n	80082c6 <HAL_RCC_OscConfig+0x476>
      {
        return HAL_ERROR;
 80082c2:	2301      	movs	r3, #1
 80082c4:	e032      	b.n	800832c <HAL_RCC_OscConfig+0x4dc>
      }
      else
      {
        /* Do not return HAL_ERROR if request repeats the current configuration */
        pll_config = RCC->PLLCFGR;
 80082c6:	4b1c      	ldr	r3, [pc, #112]	; (8008338 <HAL_RCC_OscConfig+0x4e8>)
 80082c8:	685b      	ldr	r3, [r3, #4]
 80082ca:	60fb      	str	r3, [r7, #12]
            (READ_BIT(pll_config, RCC_PLLCFGR_PLLN) != (RCC_OscInitStruct->PLL.PLLN) << RCC_PLLCFGR_PLLN_Pos) ||
            (READ_BIT(pll_config, RCC_PLLCFGR_PLLP) != (((RCC_OscInitStruct->PLL.PLLP >> 1U) - 1U)) << RCC_PLLCFGR_PLLP_Pos) ||
            (READ_BIT(pll_config, RCC_PLLCFGR_PLLQ) != (RCC_OscInitStruct->PLL.PLLQ << RCC_PLLCFGR_PLLQ_Pos)) ||
            (READ_BIT(pll_config, RCC_PLLCFGR_PLLR) != (RCC_OscInitStruct->PLL.PLLR << RCC_PLLCFGR_PLLR_Pos)))
#else
        if (((RCC_OscInitStruct->PLL.PLLState) == RCC_PLL_OFF) ||
 80082cc:	687b      	ldr	r3, [r7, #4]
 80082ce:	699b      	ldr	r3, [r3, #24]
 80082d0:	2b01      	cmp	r3, #1
 80082d2:	d028      	beq.n	8008326 <HAL_RCC_OscConfig+0x4d6>
            (READ_BIT(pll_config, RCC_PLLCFGR_PLLSRC) != RCC_OscInitStruct->PLL.PLLSource) ||
 80082d4:	68fb      	ldr	r3, [r7, #12]
 80082d6:	f403 0280 	and.w	r2, r3, #4194304	; 0x400000
 80082da:	687b      	ldr	r3, [r7, #4]
 80082dc:	69db      	ldr	r3, [r3, #28]
        if (((RCC_OscInitStruct->PLL.PLLState) == RCC_PLL_OFF) ||
 80082de:	429a      	cmp	r2, r3
 80082e0:	d121      	bne.n	8008326 <HAL_RCC_OscConfig+0x4d6>
            (READ_BIT(pll_config, RCC_PLLCFGR_PLLM) != (RCC_OscInitStruct->PLL.PLLM) << RCC_PLLCFGR_PLLM_Pos) ||
 80082e2:	68fb      	ldr	r3, [r7, #12]
 80082e4:	f003 023f 	and.w	r2, r3, #63	; 0x3f
 80082e8:	687b      	ldr	r3, [r7, #4]
 80082ea:	6a1b      	ldr	r3, [r3, #32]
            (READ_BIT(pll_config, RCC_PLLCFGR_PLLSRC) != RCC_OscInitStruct->PLL.PLLSource) ||
 80082ec:	429a      	cmp	r2, r3
 80082ee:	d11a      	bne.n	8008326 <HAL_RCC_OscConfig+0x4d6>
            (READ_BIT(pll_config, RCC_PLLCFGR_PLLN) != (RCC_OscInitStruct->PLL.PLLN) << RCC_PLLCFGR_PLLN_Pos) ||
 80082f0:	68fa      	ldr	r2, [r7, #12]
 80082f2:	f647 73c0 	movw	r3, #32704	; 0x7fc0
 80082f6:	4013      	ands	r3, r2
 80082f8:	687a      	ldr	r2, [r7, #4]
 80082fa:	6a52      	ldr	r2, [r2, #36]	; 0x24
 80082fc:	0192      	lsls	r2, r2, #6
            (READ_BIT(pll_config, RCC_PLLCFGR_PLLM) != (RCC_OscInitStruct->PLL.PLLM) << RCC_PLLCFGR_PLLM_Pos) ||
 80082fe:	4293      	cmp	r3, r2
 8008300:	d111      	bne.n	8008326 <HAL_RCC_OscConfig+0x4d6>
            (READ_BIT(pll_config, RCC_PLLCFGR_PLLP) != (((RCC_OscInitStruct->PLL.PLLP >> 1U) - 1U)) << RCC_PLLCFGR_PLLP_Pos) ||
 8008302:	68fb      	ldr	r3, [r7, #12]
 8008304:	f403 3240 	and.w	r2, r3, #196608	; 0x30000
 8008308:	687b      	ldr	r3, [r7, #4]
 800830a:	6a9b      	ldr	r3, [r3, #40]	; 0x28
 800830c:	085b      	lsrs	r3, r3, #1
 800830e:	3b01      	subs	r3, #1
 8008310:	041b      	lsls	r3, r3, #16
            (READ_BIT(pll_config, RCC_PLLCFGR_PLLN) != (RCC_OscInitStruct->PLL.PLLN) << RCC_PLLCFGR_PLLN_Pos) ||
 8008312:	429a      	cmp	r2, r3
 8008314:	d107      	bne.n	8008326 <HAL_RCC_OscConfig+0x4d6>
            (READ_BIT(pll_config, RCC_PLLCFGR_PLLQ) != (RCC_OscInitStruct->PLL.PLLQ << RCC_PLLCFGR_PLLQ_Pos)))
 8008316:	68fb      	ldr	r3, [r7, #12]
 8008318:	f003 6270 	and.w	r2, r3, #251658240	; 0xf000000
 800831c:	687b      	ldr	r3, [r7, #4]
 800831e:	6adb      	ldr	r3, [r3, #44]	; 0x2c
 8008320:	061b      	lsls	r3, r3, #24
            (READ_BIT(pll_config, RCC_PLLCFGR_PLLP) != (((RCC_OscInitStruct->PLL.PLLP >> 1U) - 1U)) << RCC_PLLCFGR_PLLP_Pos) ||
 8008322:	429a      	cmp	r2, r3
 8008324:	d001      	beq.n	800832a <HAL_RCC_OscConfig+0x4da>
#endif
        {
          return HAL_ERROR;
 8008326:	2301      	movs	r3, #1
 8008328:	e000      	b.n	800832c <HAL_RCC_OscConfig+0x4dc>
        }
      }
    }
  }
  return HAL_OK;
 800832a:	2300      	movs	r3, #0
}
 800832c:	4618      	mov	r0, r3
 800832e:	3718      	adds	r7, #24
 8008330:	46bd      	mov	sp, r7
 8008332:	bd80      	pop	{r7, pc}
 8008334:	40007000 	.word	0x40007000
 8008338:	40023800 	.word	0x40023800
 800833c:	42470060 	.word	0x42470060

08008340 <HAL_RCC_ClockConfig>:
  *         HPRE[3:0] bits to ensure that HCLK not exceed the maximum allowed frequency
  *         (for more details refer to section above "Initialization/de-initialization functions")
  * @retval None
  */
HAL_StatusTypeDef HAL_RCC_ClockConfig(RCC_ClkInitTypeDef  *RCC_ClkInitStruct, uint32_t FLatency)
{
 8008340:	b580      	push	{r7, lr}
 8008342:	b084      	sub	sp, #16
 8008344:	af00      	add	r7, sp, #0
 8008346:	6078      	str	r0, [r7, #4]
 8008348:	6039      	str	r1, [r7, #0]
  uint32_t tickstart;

  /* Check Null pointer */
  if(RCC_ClkInitStruct == NULL)
 800834a:	687b      	ldr	r3, [r7, #4]
 800834c:	2b00      	cmp	r3, #0
 800834e:	d101      	bne.n	8008354 <HAL_RCC_ClockConfig+0x14>
  {
    return HAL_ERROR;
 8008350:	2301      	movs	r3, #1
 8008352:	e0cc      	b.n	80084ee <HAL_RCC_ClockConfig+0x1ae>
  /* To correctly read data from FLASH memory, the number of wait states (LATENCY)
    must be correctly programmed according to the frequency of the CPU clock
    (HCLK) and the supply voltage of the device. */

  /* Increasing the number of wait states because of higher CPU frequency */
  if(FLatency > __HAL_FLASH_GET_LATENCY())
 8008354:	4b68      	ldr	r3, [pc, #416]	; (80084f8 <HAL_RCC_ClockConfig+0x1b8>)
 8008356:	681b      	ldr	r3, [r3, #0]
 8008358:	f003 0307 	and.w	r3, r3, #7
 800835c:	683a      	ldr	r2, [r7, #0]
 800835e:	429a      	cmp	r2, r3
 8008360:	d90c      	bls.n	800837c <HAL_RCC_ClockConfig+0x3c>
  {
    /* Program the new number of wait states to the LATENCY bits in the FLASH_ACR register */
    __HAL_FLASH_SET_LATENCY(FLatency);
 8008362:	4b65      	ldr	r3, [pc, #404]	; (80084f8 <HAL_RCC_ClockConfig+0x1b8>)
 8008364:	683a      	ldr	r2, [r7, #0]
 8008366:	b2d2      	uxtb	r2, r2
 8008368:	701a      	strb	r2, [r3, #0]

    /* Check that the new number of wait states is taken into account to access the Flash
    memory by reading the FLASH_ACR register */
    if(__HAL_FLASH_GET_LATENCY() != FLatency)
 800836a:	4b63      	ldr	r3, [pc, #396]	; (80084f8 <HAL_RCC_ClockConfig+0x1b8>)
 800836c:	681b      	ldr	r3, [r3, #0]
 800836e:	f003 0307 	and.w	r3, r3, #7
 8008372:	683a      	ldr	r2, [r7, #0]
 8008374:	429a      	cmp	r2, r3
 8008376:	d001      	beq.n	800837c <HAL_RCC_ClockConfig+0x3c>
    {
      return HAL_ERROR;
 8008378:	2301      	movs	r3, #1
 800837a:	e0b8      	b.n	80084ee <HAL_RCC_ClockConfig+0x1ae>
    }
  }

  /*-------------------------- HCLK Configuration --------------------------*/
  if(((RCC_ClkInitStruct->ClockType) & RCC_CLOCKTYPE_HCLK) == RCC_CLOCKTYPE_HCLK)
 800837c:	687b      	ldr	r3, [r7, #4]
 800837e:	681b      	ldr	r3, [r3, #0]
 8008380:	f003 0302 	and.w	r3, r3, #2
 8008384:	2b00      	cmp	r3, #0
 8008386:	d020      	beq.n	80083ca <HAL_RCC_ClockConfig+0x8a>
  {
    /* Set the highest APBx dividers in order to ensure that we do not go through
       a non-spec phase whatever we decrease or increase HCLK. */
    if(((RCC_ClkInitStruct->ClockType) & RCC_CLOCKTYPE_PCLK1) == RCC_CLOCKTYPE_PCLK1)
 8008388:	687b      	ldr	r3, [r7, #4]
 800838a:	681b      	ldr	r3, [r3, #0]
 800838c:	f003 0304 	and.w	r3, r3, #4
 8008390:	2b00      	cmp	r3, #0
 8008392:	d005      	beq.n	80083a0 <HAL_RCC_ClockConfig+0x60>
    {
      MODIFY_REG(RCC->CFGR, RCC_CFGR_PPRE1, RCC_HCLK_DIV16);
 8008394:	4b59      	ldr	r3, [pc, #356]	; (80084fc <HAL_RCC_ClockConfig+0x1bc>)
 8008396:	689b      	ldr	r3, [r3, #8]
 8008398:	4a58      	ldr	r2, [pc, #352]	; (80084fc <HAL_RCC_ClockConfig+0x1bc>)
 800839a:	f443 53e0 	orr.w	r3, r3, #7168	; 0x1c00
 800839e:	6093      	str	r3, [r2, #8]
    }

    if(((RCC_ClkInitStruct->ClockType) & RCC_CLOCKTYPE_PCLK2) == RCC_CLOCKTYPE_PCLK2)
 80083a0:	687b      	ldr	r3, [r7, #4]
 80083a2:	681b      	ldr	r3, [r3, #0]
 80083a4:	f003 0308 	and.w	r3, r3, #8
 80083a8:	2b00      	cmp	r3, #0
 80083aa:	d005      	beq.n	80083b8 <HAL_RCC_ClockConfig+0x78>
    {
      MODIFY_REG(RCC->CFGR, RCC_CFGR_PPRE2, (RCC_HCLK_DIV16 << 3));
 80083ac:	4b53      	ldr	r3, [pc, #332]	; (80084fc <HAL_RCC_ClockConfig+0x1bc>)
 80083ae:	689b      	ldr	r3, [r3, #8]
 80083b0:	4a52      	ldr	r2, [pc, #328]	; (80084fc <HAL_RCC_ClockConfig+0x1bc>)
 80083b2:	f443 4360 	orr.w	r3, r3, #57344	; 0xe000
 80083b6:	6093      	str	r3, [r2, #8]
    }

    assert_param(IS_RCC_HCLK(RCC_ClkInitStruct->AHBCLKDivider));
    MODIFY_REG(RCC->CFGR, RCC_CFGR_HPRE, RCC_ClkInitStruct->AHBCLKDivider);
 80083b8:	4b50      	ldr	r3, [pc, #320]	; (80084fc <HAL_RCC_ClockConfig+0x1bc>)
 80083ba:	689b      	ldr	r3, [r3, #8]
 80083bc:	f023 02f0 	bic.w	r2, r3, #240	; 0xf0
 80083c0:	687b      	ldr	r3, [r7, #4]
 80083c2:	689b      	ldr	r3, [r3, #8]
 80083c4:	494d      	ldr	r1, [pc, #308]	; (80084fc <HAL_RCC_ClockConfig+0x1bc>)
 80083c6:	4313      	orrs	r3, r2
 80083c8:	608b      	str	r3, [r1, #8]
  }

  /*------------------------- SYSCLK Configuration ---------------------------*/
  if(((RCC_ClkInitStruct->ClockType) & RCC_CLOCKTYPE_SYSCLK) == RCC_CLOCKTYPE_SYSCLK)
 80083ca:	687b      	ldr	r3, [r7, #4]
 80083cc:	681b      	ldr	r3, [r3, #0]
 80083ce:	f003 0301 	and.w	r3, r3, #1
 80083d2:	2b00      	cmp	r3, #0
 80083d4:	d044      	beq.n	8008460 <HAL_RCC_ClockConfig+0x120>
  {
    assert_param(IS_RCC_SYSCLKSOURCE(RCC_ClkInitStruct->SYSCLKSource));

    /* HSE is selected as System Clock Source */
    if(RCC_ClkInitStruct->SYSCLKSource == RCC_SYSCLKSOURCE_HSE)
 80083d6:	687b      	ldr	r3, [r7, #4]
 80083d8:	685b      	ldr	r3, [r3, #4]
 80083da:	2b01      	cmp	r3, #1
 80083dc:	d107      	bne.n	80083ee <HAL_RCC_ClockConfig+0xae>
    {
      /* Check the HSE ready flag */
      if(__HAL_RCC_GET_FLAG(RCC_FLAG_HSERDY) == RESET)
 80083de:	4b47      	ldr	r3, [pc, #284]	; (80084fc <HAL_RCC_ClockConfig+0x1bc>)
 80083e0:	681b      	ldr	r3, [r3, #0]
 80083e2:	f403 3300 	and.w	r3, r3, #131072	; 0x20000
 80083e6:	2b00      	cmp	r3, #0
 80083e8:	d119      	bne.n	800841e <HAL_RCC_ClockConfig+0xde>
      {
        return HAL_ERROR;
 80083ea:	2301      	movs	r3, #1
 80083ec:	e07f      	b.n	80084ee <HAL_RCC_ClockConfig+0x1ae>
      }
    }
    /* PLL is selected as System Clock Source */
    else if((RCC_ClkInitStruct->SYSCLKSource == RCC_SYSCLKSOURCE_PLLCLK)   ||
 80083ee:	687b      	ldr	r3, [r7, #4]
 80083f0:	685b      	ldr	r3, [r3, #4]
 80083f2:	2b02      	cmp	r3, #2
 80083f4:	d003      	beq.n	80083fe <HAL_RCC_ClockConfig+0xbe>
            (RCC_ClkInitStruct->SYSCLKSource == RCC_SYSCLKSOURCE_PLLRCLK))
 80083f6:	687b      	ldr	r3, [r7, #4]
 80083f8:	685b      	ldr	r3, [r3, #4]
    else if((RCC_ClkInitStruct->SYSCLKSource == RCC_SYSCLKSOURCE_PLLCLK)   ||
 80083fa:	2b03      	cmp	r3, #3
 80083fc:	d107      	bne.n	800840e <HAL_RCC_ClockConfig+0xce>
    {
      /* Check the PLL ready flag */
      if(__HAL_RCC_GET_FLAG(RCC_FLAG_PLLRDY) == RESET)
 80083fe:	4b3f      	ldr	r3, [pc, #252]	; (80084fc <HAL_RCC_ClockConfig+0x1bc>)
 8008400:	681b      	ldr	r3, [r3, #0]
 8008402:	f003 7300 	and.w	r3, r3, #33554432	; 0x2000000
 8008406:	2b00      	cmp	r3, #0
 8008408:	d109      	bne.n	800841e <HAL_RCC_ClockConfig+0xde>
      {
        return HAL_ERROR;
 800840a:	2301      	movs	r3, #1
 800840c:	e06f      	b.n	80084ee <HAL_RCC_ClockConfig+0x1ae>
    }
    /* HSI is selected as System Clock Source */
    else
    {
      /* Check the HSI ready flag */
      if(__HAL_RCC_GET_FLAG(RCC_FLAG_HSIRDY) == RESET)
 800840e:	4b3b      	ldr	r3, [pc, #236]	; (80084fc <HAL_RCC_ClockConfig+0x1bc>)
 8008410:	681b      	ldr	r3, [r3, #0]
 8008412:	f003 0302 	and.w	r3, r3, #2
 8008416:	2b00      	cmp	r3, #0
 8008418:	d101      	bne.n	800841e <HAL_RCC_ClockConfig+0xde>
      {
        return HAL_ERROR;
 800841a:	2301      	movs	r3, #1
 800841c:	e067      	b.n	80084ee <HAL_RCC_ClockConfig+0x1ae>
      }
    }

    __HAL_RCC_SYSCLK_CONFIG(RCC_ClkInitStruct->SYSCLKSource);
 800841e:	4b37      	ldr	r3, [pc, #220]	; (80084fc <HAL_RCC_ClockConfig+0x1bc>)
 8008420:	689b      	ldr	r3, [r3, #8]
 8008422:	f023 0203 	bic.w	r2, r3, #3
 8008426:	687b      	ldr	r3, [r7, #4]
 8008428:	685b      	ldr	r3, [r3, #4]
 800842a:	4934      	ldr	r1, [pc, #208]	; (80084fc <HAL_RCC_ClockConfig+0x1bc>)
 800842c:	4313      	orrs	r3, r2
 800842e:	608b      	str	r3, [r1, #8]

    /* Get Start Tick */
    tickstart = HAL_GetTick();
 8008430:	f7fe ff7a 	bl	8007328 <HAL_GetTick>
 8008434:	60f8      	str	r0, [r7, #12]

    while (__HAL_RCC_GET_SYSCLK_SOURCE() != (RCC_ClkInitStruct->SYSCLKSource << RCC_CFGR_SWS_Pos))
 8008436:	e00a      	b.n	800844e <HAL_RCC_ClockConfig+0x10e>
    {
      if ((HAL_GetTick() - tickstart) > CLOCKSWITCH_TIMEOUT_VALUE)
 8008438:	f7fe ff76 	bl	8007328 <HAL_GetTick>
 800843c:	4602      	mov	r2, r0
 800843e:	68fb      	ldr	r3, [r7, #12]
 8008440:	1ad3      	subs	r3, r2, r3
 8008442:	f241 3288 	movw	r2, #5000	; 0x1388
 8008446:	4293      	cmp	r3, r2
 8008448:	d901      	bls.n	800844e <HAL_RCC_ClockConfig+0x10e>
      {
        return HAL_TIMEOUT;
 800844a:	2303      	movs	r3, #3
 800844c:	e04f      	b.n	80084ee <HAL_RCC_ClockConfig+0x1ae>
    while (__HAL_RCC_GET_SYSCLK_SOURCE() != (RCC_ClkInitStruct->SYSCLKSource << RCC_CFGR_SWS_Pos))
 800844e:	4b2b      	ldr	r3, [pc, #172]	; (80084fc <HAL_RCC_ClockConfig+0x1bc>)
 8008450:	689b      	ldr	r3, [r3, #8]
 8008452:	f003 020c 	and.w	r2, r3, #12
 8008456:	687b      	ldr	r3, [r7, #4]
 8008458:	685b      	ldr	r3, [r3, #4]
 800845a:	009b      	lsls	r3, r3, #2
 800845c:	429a      	cmp	r2, r3
 800845e:	d1eb      	bne.n	8008438 <HAL_RCC_ClockConfig+0xf8>
      }
    }
  }

  /* Decreasing the number of wait states because of lower CPU frequency */
  if(FLatency < __HAL_FLASH_GET_LATENCY())
 8008460:	4b25      	ldr	r3, [pc, #148]	; (80084f8 <HAL_RCC_ClockConfig+0x1b8>)
 8008462:	681b      	ldr	r3, [r3, #0]
 8008464:	f003 0307 	and.w	r3, r3, #7
 8008468:	683a      	ldr	r2, [r7, #0]
 800846a:	429a      	cmp	r2, r3
 800846c:	d20c      	bcs.n	8008488 <HAL_RCC_ClockConfig+0x148>
  {
     /* Program the new number of wait states to the LATENCY bits in the FLASH_ACR register */
    __HAL_FLASH_SET_LATENCY(FLatency);
 800846e:	4b22      	ldr	r3, [pc, #136]	; (80084f8 <HAL_RCC_ClockConfig+0x1b8>)
 8008470:	683a      	ldr	r2, [r7, #0]
 8008472:	b2d2      	uxtb	r2, r2
 8008474:	701a      	strb	r2, [r3, #0]

    /* Check that the new number of wait states is taken into account to access the Flash
    memory by reading the FLASH_ACR register */
    if(__HAL_FLASH_GET_LATENCY() != FLatency)
 8008476:	4b20      	ldr	r3, [pc, #128]	; (80084f8 <HAL_RCC_ClockConfig+0x1b8>)
 8008478:	681b      	ldr	r3, [r3, #0]
 800847a:	f003 0307 	and.w	r3, r3, #7
 800847e:	683a      	ldr	r2, [r7, #0]
 8008480:	429a      	cmp	r2, r3
 8008482:	d001      	beq.n	8008488 <HAL_RCC_ClockConfig+0x148>
    {
      return HAL_ERROR;
 8008484:	2301      	movs	r3, #1
 8008486:	e032      	b.n	80084ee <HAL_RCC_ClockConfig+0x1ae>
    }
  }

  /*-------------------------- PCLK1 Configuration ---------------------------*/
  if(((RCC_ClkInitStruct->ClockType) & RCC_CLOCKTYPE_PCLK1) == RCC_CLOCKTYPE_PCLK1)
 8008488:	687b      	ldr	r3, [r7, #4]
 800848a:	681b      	ldr	r3, [r3, #0]
 800848c:	f003 0304 	and.w	r3, r3, #4
 8008490:	2b00      	cmp	r3, #0
 8008492:	d008      	beq.n	80084a6 <HAL_RCC_ClockConfig+0x166>
  {
    assert_param(IS_RCC_PCLK(RCC_ClkInitStruct->APB1CLKDivider));
    MODIFY_REG(RCC->CFGR, RCC_CFGR_PPRE1, RCC_ClkInitStruct->APB1CLKDivider);
 8008494:	4b19      	ldr	r3, [pc, #100]	; (80084fc <HAL_RCC_ClockConfig+0x1bc>)
 8008496:	689b      	ldr	r3, [r3, #8]
 8008498:	f423 52e0 	bic.w	r2, r3, #7168	; 0x1c00
 800849c:	687b      	ldr	r3, [r7, #4]
 800849e:	68db      	ldr	r3, [r3, #12]
 80084a0:	4916      	ldr	r1, [pc, #88]	; (80084fc <HAL_RCC_ClockConfig+0x1bc>)
 80084a2:	4313      	orrs	r3, r2
 80084a4:	608b      	str	r3, [r1, #8]
  }

  /*-------------------------- PCLK2 Configuration ---------------------------*/
  if(((RCC_ClkInitStruct->ClockType) & RCC_CLOCKTYPE_PCLK2) == RCC_CLOCKTYPE_PCLK2)
 80084a6:	687b      	ldr	r3, [r7, #4]
 80084a8:	681b      	ldr	r3, [r3, #0]
 80084aa:	f003 0308 	and.w	r3, r3, #8
 80084ae:	2b00      	cmp	r3, #0
 80084b0:	d009      	beq.n	80084c6 <HAL_RCC_ClockConfig+0x186>
  {
    assert_param(IS_RCC_PCLK(RCC_ClkInitStruct->APB2CLKDivider));
    MODIFY_REG(RCC->CFGR, RCC_CFGR_PPRE2, ((RCC_ClkInitStruct->APB2CLKDivider) << 3U));
 80084b2:	4b12      	ldr	r3, [pc, #72]	; (80084fc <HAL_RCC_ClockConfig+0x1bc>)
 80084b4:	689b      	ldr	r3, [r3, #8]
 80084b6:	f423 4260 	bic.w	r2, r3, #57344	; 0xe000
 80084ba:	687b      	ldr	r3, [r7, #4]
 80084bc:	691b      	ldr	r3, [r3, #16]
 80084be:	00db      	lsls	r3, r3, #3
 80084c0:	490e      	ldr	r1, [pc, #56]	; (80084fc <HAL_RCC_ClockConfig+0x1bc>)
 80084c2:	4313      	orrs	r3, r2
 80084c4:	608b      	str	r3, [r1, #8]
  }

  /* Update the SystemCoreClock global variable */
  SystemCoreClock = HAL_RCC_GetSysClockFreq() >> AHBPrescTable[(RCC->CFGR & RCC_CFGR_HPRE)>> RCC_CFGR_HPRE_Pos];
 80084c6:	f000 f821 	bl	800850c <HAL_RCC_GetSysClockFreq>
 80084ca:	4602      	mov	r2, r0
 80084cc:	4b0b      	ldr	r3, [pc, #44]	; (80084fc <HAL_RCC_ClockConfig+0x1bc>)
 80084ce:	689b      	ldr	r3, [r3, #8]
 80084d0:	091b      	lsrs	r3, r3, #4
 80084d2:	f003 030f 	and.w	r3, r3, #15
 80084d6:	490a      	ldr	r1, [pc, #40]	; (8008500 <HAL_RCC_ClockConfig+0x1c0>)
 80084d8:	5ccb      	ldrb	r3, [r1, r3]
 80084da:	fa22 f303 	lsr.w	r3, r2, r3
 80084de:	4a09      	ldr	r2, [pc, #36]	; (8008504 <HAL_RCC_ClockConfig+0x1c4>)
 80084e0:	6013      	str	r3, [r2, #0]

  /* Configure the source of time base considering new system clocks settings */
  HAL_InitTick (uwTickPrio);
 80084e2:	4b09      	ldr	r3, [pc, #36]	; (8008508 <HAL_RCC_ClockConfig+0x1c8>)
 80084e4:	681b      	ldr	r3, [r3, #0]
 80084e6:	4618      	mov	r0, r3
 80084e8:	f7fe feda 	bl	80072a0 <HAL_InitTick>

  return HAL_OK;
 80084ec:	2300      	movs	r3, #0
}
 80084ee:	4618      	mov	r0, r3
 80084f0:	3710      	adds	r7, #16
 80084f2:	46bd      	mov	sp, r7
 80084f4:	bd80      	pop	{r7, pc}
 80084f6:	bf00      	nop
 80084f8:	40023c00 	.word	0x40023c00
 80084fc:	40023800 	.word	0x40023800
 8008500:	08009918 	.word	0x08009918
 8008504:	20000000 	.word	0x20000000
 8008508:	20000004 	.word	0x20000004

0800850c <HAL_RCC_GetSysClockFreq>:
  *
  *
  * @retval SYSCLK frequency
  */
__weak uint32_t HAL_RCC_GetSysClockFreq(void)
{
 800850c:	e92d 43b0 	stmdb	sp!, {r4, r5, r7, r8, r9, lr}
 8008510:	b084      	sub	sp, #16
 8008512:	af00      	add	r7, sp, #0
  uint32_t pllm = 0U, pllvco = 0U, pllp = 0U;
 8008514:	2300      	movs	r3, #0
 8008516:	607b      	str	r3, [r7, #4]
 8008518:	2300      	movs	r3, #0
 800851a:	60fb      	str	r3, [r7, #12]
 800851c:	2300      	movs	r3, #0
 800851e:	603b      	str	r3, [r7, #0]
  uint32_t sysclockfreq = 0U;
 8008520:	2300      	movs	r3, #0
 8008522:	60bb      	str	r3, [r7, #8]

  /* Get SYSCLK source -------------------------------------------------------*/
  switch (RCC->CFGR & RCC_CFGR_SWS)
 8008524:	4b67      	ldr	r3, [pc, #412]	; (80086c4 <HAL_RCC_GetSysClockFreq+0x1b8>)
 8008526:	689b      	ldr	r3, [r3, #8]
 8008528:	f003 030c 	and.w	r3, r3, #12
 800852c:	2b08      	cmp	r3, #8
 800852e:	d00d      	beq.n	800854c <HAL_RCC_GetSysClockFreq+0x40>
 8008530:	2b08      	cmp	r3, #8
 8008532:	f200 80bd 	bhi.w	80086b0 <HAL_RCC_GetSysClockFreq+0x1a4>
 8008536:	2b00      	cmp	r3, #0
 8008538:	d002      	beq.n	8008540 <HAL_RCC_GetSysClockFreq+0x34>
 800853a:	2b04      	cmp	r3, #4
 800853c:	d003      	beq.n	8008546 <HAL_RCC_GetSysClockFreq+0x3a>
 800853e:	e0b7      	b.n	80086b0 <HAL_RCC_GetSysClockFreq+0x1a4>
  {
    case RCC_CFGR_SWS_HSI:  /* HSI used as system clock source */
    {
      sysclockfreq = HSI_VALUE;
 8008540:	4b61      	ldr	r3, [pc, #388]	; (80086c8 <HAL_RCC_GetSysClockFreq+0x1bc>)
 8008542:	60bb      	str	r3, [r7, #8]
       break;
 8008544:	e0b7      	b.n	80086b6 <HAL_RCC_GetSysClockFreq+0x1aa>
    }
    case RCC_CFGR_SWS_HSE:  /* HSE used as system clock  source */
    {
      sysclockfreq = HSE_VALUE;
 8008546:	4b61      	ldr	r3, [pc, #388]	; (80086cc <HAL_RCC_GetSysClockFreq+0x1c0>)
 8008548:	60bb      	str	r3, [r7, #8]
      break;
 800854a:	e0b4      	b.n	80086b6 <HAL_RCC_GetSysClockFreq+0x1aa>
    }
    case RCC_CFGR_SWS_PLL:  /* PLL used as system clock  source */
    {
      /* PLL_VCO = (HSE_VALUE or HSI_VALUE / PLLM) * PLLN
      SYSCLK = PLL_VCO / PLLP */
      pllm = RCC->PLLCFGR & RCC_PLLCFGR_PLLM;
 800854c:	4b5d      	ldr	r3, [pc, #372]	; (80086c4 <HAL_RCC_GetSysClockFreq+0x1b8>)
 800854e:	685b      	ldr	r3, [r3, #4]
 8008550:	f003 033f 	and.w	r3, r3, #63	; 0x3f
 8008554:	607b      	str	r3, [r7, #4]
      if(__HAL_RCC_GET_PLL_OSCSOURCE() != RCC_PLLSOURCE_HSI)
 8008556:	4b5b      	ldr	r3, [pc, #364]	; (80086c4 <HAL_RCC_GetSysClockFreq+0x1b8>)
 8008558:	685b      	ldr	r3, [r3, #4]
 800855a:	f403 0380 	and.w	r3, r3, #4194304	; 0x400000
 800855e:	2b00      	cmp	r3, #0
 8008560:	d04d      	beq.n	80085fe <HAL_RCC_GetSysClockFreq+0xf2>
      {
        /* HSE used as PLL clock source */
        pllvco = (uint32_t) ((((uint64_t) HSE_VALUE * ((uint64_t) ((RCC->PLLCFGR & RCC_PLLCFGR_PLLN) >> RCC_PLLCFGR_PLLN_Pos)))) / (uint64_t)pllm);
 8008562:	4b58      	ldr	r3, [pc, #352]	; (80086c4 <HAL_RCC_GetSysClockFreq+0x1b8>)
 8008564:	685b      	ldr	r3, [r3, #4]
 8008566:	099b      	lsrs	r3, r3, #6
 8008568:	461a      	mov	r2, r3
 800856a:	f04f 0300 	mov.w	r3, #0
 800856e:	f240 10ff 	movw	r0, #511	; 0x1ff
 8008572:	f04f 0100 	mov.w	r1, #0
 8008576:	ea02 0800 	and.w	r8, r2, r0
 800857a:	ea03 0901 	and.w	r9, r3, r1
 800857e:	4640      	mov	r0, r8
 8008580:	4649      	mov	r1, r9
 8008582:	f04f 0200 	mov.w	r2, #0
 8008586:	f04f 0300 	mov.w	r3, #0
 800858a:	014b      	lsls	r3, r1, #5
 800858c:	ea43 63d0 	orr.w	r3, r3, r0, lsr #27
 8008590:	0142      	lsls	r2, r0, #5
 8008592:	4610      	mov	r0, r2
 8008594:	4619      	mov	r1, r3
 8008596:	ebb0 0008 	subs.w	r0, r0, r8
 800859a:	eb61 0109 	sbc.w	r1, r1, r9
 800859e:	f04f 0200 	mov.w	r2, #0
 80085a2:	f04f 0300 	mov.w	r3, #0
 80085a6:	018b      	lsls	r3, r1, #6
 80085a8:	ea43 6390 	orr.w	r3, r3, r0, lsr #26
 80085ac:	0182      	lsls	r2, r0, #6
 80085ae:	1a12      	subs	r2, r2, r0
 80085b0:	eb63 0301 	sbc.w	r3, r3, r1
 80085b4:	f04f 0000 	mov.w	r0, #0
 80085b8:	f04f 0100 	mov.w	r1, #0
 80085bc:	00d9      	lsls	r1, r3, #3
 80085be:	ea41 7152 	orr.w	r1, r1, r2, lsr #29
 80085c2:	00d0      	lsls	r0, r2, #3
 80085c4:	4602      	mov	r2, r0
 80085c6:	460b      	mov	r3, r1
 80085c8:	eb12 0208 	adds.w	r2, r2, r8
 80085cc:	eb43 0309 	adc.w	r3, r3, r9
 80085d0:	f04f 0000 	mov.w	r0, #0
 80085d4:	f04f 0100 	mov.w	r1, #0
 80085d8:	0259      	lsls	r1, r3, #9
 80085da:	ea41 51d2 	orr.w	r1, r1, r2, lsr #23
 80085de:	0250      	lsls	r0, r2, #9
 80085e0:	4602      	mov	r2, r0
 80085e2:	460b      	mov	r3, r1
 80085e4:	4610      	mov	r0, r2
 80085e6:	4619      	mov	r1, r3
 80085e8:	687b      	ldr	r3, [r7, #4]
 80085ea:	461a      	mov	r2, r3
 80085ec:	f04f 0300 	mov.w	r3, #0
 80085f0:	f7fd fd7c 	bl	80060ec <__aeabi_uldivmod>
 80085f4:	4602      	mov	r2, r0
 80085f6:	460b      	mov	r3, r1
 80085f8:	4613      	mov	r3, r2
 80085fa:	60fb      	str	r3, [r7, #12]
 80085fc:	e04a      	b.n	8008694 <HAL_RCC_GetSysClockFreq+0x188>
      }
      else
      {
        /* HSI used as PLL clock source */
        pllvco = (uint32_t) ((((uint64_t) HSI_VALUE * ((uint64_t) ((RCC->PLLCFGR & RCC_PLLCFGR_PLLN) >> RCC_PLLCFGR_PLLN_Pos)))) / (uint64_t)pllm);
 80085fe:	4b31      	ldr	r3, [pc, #196]	; (80086c4 <HAL_RCC_GetSysClockFreq+0x1b8>)
 8008600:	685b      	ldr	r3, [r3, #4]
 8008602:	099b      	lsrs	r3, r3, #6
 8008604:	461a      	mov	r2, r3
 8008606:	f04f 0300 	mov.w	r3, #0
 800860a:	f240 10ff 	movw	r0, #511	; 0x1ff
 800860e:	f04f 0100 	mov.w	r1, #0
 8008612:	ea02 0400 	and.w	r4, r2, r0
 8008616:	ea03 0501 	and.w	r5, r3, r1
 800861a:	4620      	mov	r0, r4
 800861c:	4629      	mov	r1, r5
 800861e:	f04f 0200 	mov.w	r2, #0
 8008622:	f04f 0300 	mov.w	r3, #0
 8008626:	014b      	lsls	r3, r1, #5
 8008628:	ea43 63d0 	orr.w	r3, r3, r0, lsr #27
 800862c:	0142      	lsls	r2, r0, #5
 800862e:	4610      	mov	r0, r2
 8008630:	4619      	mov	r1, r3
 8008632:	1b00      	subs	r0, r0, r4
 8008634:	eb61 0105 	sbc.w	r1, r1, r5
 8008638:	f04f 0200 	mov.w	r2, #0
 800863c:	f04f 0300 	mov.w	r3, #0
 8008640:	018b      	lsls	r3, r1, #6
 8008642:	ea43 6390 	orr.w	r3, r3, r0, lsr #26
 8008646:	0182      	lsls	r2, r0, #6
 8008648:	1a12      	subs	r2, r2, r0
 800864a:	eb63 0301 	sbc.w	r3, r3, r1
 800864e:	f04f 0000 	mov.w	r0, #0
 8008652:	f04f 0100 	mov.w	r1, #0
 8008656:	00d9      	lsls	r1, r3, #3
 8008658:	ea41 7152 	orr.w	r1, r1, r2, lsr #29
 800865c:	00d0      	lsls	r0, r2, #3
 800865e:	4602      	mov	r2, r0
 8008660:	460b      	mov	r3, r1
 8008662:	1912      	adds	r2, r2, r4
 8008664:	eb45 0303 	adc.w	r3, r5, r3
 8008668:	f04f 0000 	mov.w	r0, #0
 800866c:	f04f 0100 	mov.w	r1, #0
 8008670:	0299      	lsls	r1, r3, #10
 8008672:	ea41 5192 	orr.w	r1, r1, r2, lsr #22
 8008676:	0290      	lsls	r0, r2, #10
 8008678:	4602      	mov	r2, r0
 800867a:	460b      	mov	r3, r1
 800867c:	4610      	mov	r0, r2
 800867e:	4619      	mov	r1, r3
 8008680:	687b      	ldr	r3, [r7, #4]
 8008682:	461a      	mov	r2, r3
 8008684:	f04f 0300 	mov.w	r3, #0
 8008688:	f7fd fd30 	bl	80060ec <__aeabi_uldivmod>
 800868c:	4602      	mov	r2, r0
 800868e:	460b      	mov	r3, r1
 8008690:	4613      	mov	r3, r2
 8008692:	60fb      	str	r3, [r7, #12]
      }
      pllp = ((((RCC->PLLCFGR & RCC_PLLCFGR_PLLP) >> RCC_PLLCFGR_PLLP_Pos) + 1U) *2U);
 8008694:	4b0b      	ldr	r3, [pc, #44]	; (80086c4 <HAL_RCC_GetSysClockFreq+0x1b8>)
 8008696:	685b      	ldr	r3, [r3, #4]
 8008698:	0c1b      	lsrs	r3, r3, #16
 800869a:	f003 0303 	and.w	r3, r3, #3
 800869e:	3301      	adds	r3, #1
 80086a0:	005b      	lsls	r3, r3, #1
 80086a2:	603b      	str	r3, [r7, #0]

      sysclockfreq = pllvco/pllp;
 80086a4:	68fa      	ldr	r2, [r7, #12]
 80086a6:	683b      	ldr	r3, [r7, #0]
 80086a8:	fbb2 f3f3 	udiv	r3, r2, r3
 80086ac:	60bb      	str	r3, [r7, #8]
      break;
 80086ae:	e002      	b.n	80086b6 <HAL_RCC_GetSysClockFreq+0x1aa>
    }
    default:
    {
      sysclockfreq = HSI_VALUE;
 80086b0:	4b05      	ldr	r3, [pc, #20]	; (80086c8 <HAL_RCC_GetSysClockFreq+0x1bc>)
 80086b2:	60bb      	str	r3, [r7, #8]
      break;
 80086b4:	bf00      	nop
    }
  }
  return sysclockfreq;
 80086b6:	68bb      	ldr	r3, [r7, #8]
}
 80086b8:	4618      	mov	r0, r3
 80086ba:	3710      	adds	r7, #16
 80086bc:	46bd      	mov	sp, r7
 80086be:	e8bd 83b0 	ldmia.w	sp!, {r4, r5, r7, r8, r9, pc}
 80086c2:	bf00      	nop
 80086c4:	40023800 	.word	0x40023800
 80086c8:	00f42400 	.word	0x00f42400
 80086cc:	007a1200 	.word	0x007a1200

080086d0 <HAL_RCC_GetHCLKFreq>:
  * @note   The SystemCoreClock CMSIS variable is used to store System Clock Frequency
  *         and updated within this function
  * @retval HCLK frequency
  */
uint32_t HAL_RCC_GetHCLKFreq(void)
{
 80086d0:	b480      	push	{r7}
 80086d2:	af00      	add	r7, sp, #0
  return SystemCoreClock;
 80086d4:	4b03      	ldr	r3, [pc, #12]	; (80086e4 <HAL_RCC_GetHCLKFreq+0x14>)
 80086d6:	681b      	ldr	r3, [r3, #0]
}
 80086d8:	4618      	mov	r0, r3
 80086da:	46bd      	mov	sp, r7
 80086dc:	f85d 7b04 	ldr.w	r7, [sp], #4
 80086e0:	4770      	bx	lr
 80086e2:	bf00      	nop
 80086e4:	20000000 	.word	0x20000000

080086e8 <HAL_RCC_GetPCLK1Freq>:
  * @note   Each time PCLK1 changes, this function must be called to update the
  *         right PCLK1 value. Otherwise, any configuration based on this function will be incorrect.
  * @retval PCLK1 frequency
  */
uint32_t HAL_RCC_GetPCLK1Freq(void)
{
 80086e8:	b580      	push	{r7, lr}
 80086ea:	af00      	add	r7, sp, #0
  /* Get HCLK source and Compute PCLK1 frequency ---------------------------*/
  return (HAL_RCC_GetHCLKFreq() >> APBPrescTable[(RCC->CFGR & RCC_CFGR_PPRE1)>> RCC_CFGR_PPRE1_Pos]);
 80086ec:	f7ff fff0 	bl	80086d0 <HAL_RCC_GetHCLKFreq>
 80086f0:	4602      	mov	r2, r0
 80086f2:	4b05      	ldr	r3, [pc, #20]	; (8008708 <HAL_RCC_GetPCLK1Freq+0x20>)
 80086f4:	689b      	ldr	r3, [r3, #8]
 80086f6:	0a9b      	lsrs	r3, r3, #10
 80086f8:	f003 0307 	and.w	r3, r3, #7
 80086fc:	4903      	ldr	r1, [pc, #12]	; (800870c <HAL_RCC_GetPCLK1Freq+0x24>)
 80086fe:	5ccb      	ldrb	r3, [r1, r3]
 8008700:	fa22 f303 	lsr.w	r3, r2, r3
}
 8008704:	4618      	mov	r0, r3
 8008706:	bd80      	pop	{r7, pc}
 8008708:	40023800 	.word	0x40023800
 800870c:	08009928 	.word	0x08009928

08008710 <HAL_RCC_GetPCLK2Freq>:
  * @note   Each time PCLK2 changes, this function must be called to update the
  *         right PCLK2 value. Otherwise, any configuration based on this function will be incorrect.
  * @retval PCLK2 frequency
  */
uint32_t HAL_RCC_GetPCLK2Freq(void)
{
 8008710:	b580      	push	{r7, lr}
 8008712:	af00      	add	r7, sp, #0
  /* Get HCLK source and Compute PCLK2 frequency ---------------------------*/
  return (HAL_RCC_GetHCLKFreq()>> APBPrescTable[(RCC->CFGR & RCC_CFGR_PPRE2)>> RCC_CFGR_PPRE2_Pos]);
 8008714:	f7ff ffdc 	bl	80086d0 <HAL_RCC_GetHCLKFreq>
 8008718:	4602      	mov	r2, r0
 800871a:	4b05      	ldr	r3, [pc, #20]	; (8008730 <HAL_RCC_GetPCLK2Freq+0x20>)
 800871c:	689b      	ldr	r3, [r3, #8]
 800871e:	0b5b      	lsrs	r3, r3, #13
 8008720:	f003 0307 	and.w	r3, r3, #7
 8008724:	4903      	ldr	r1, [pc, #12]	; (8008734 <HAL_RCC_GetPCLK2Freq+0x24>)
 8008726:	5ccb      	ldrb	r3, [r1, r3]
 8008728:	fa22 f303 	lsr.w	r3, r2, r3
}
 800872c:	4618      	mov	r0, r3
 800872e:	bd80      	pop	{r7, pc}
 8008730:	40023800 	.word	0x40023800
 8008734:	08009928 	.word	0x08009928

08008738 <HAL_RCC_DeInit>:
  *            - Peripheral clocks
  *            - LSI, LSE and RTC clocks
  * @retval HAL status
  */
HAL_StatusTypeDef HAL_RCC_DeInit(void)
{
 8008738:	b580      	push	{r7, lr}
 800873a:	b082      	sub	sp, #8
 800873c:	af00      	add	r7, sp, #0
  uint32_t tickstart;

  /* Get Start Tick */
  tickstart = HAL_GetTick();
 800873e:	f7fe fdf3 	bl	8007328 <HAL_GetTick>
 8008742:	6078      	str	r0, [r7, #4]

  /* Set HSION bit to the reset value */
  SET_BIT(RCC->CR, RCC_CR_HSION);
 8008744:	4b5d      	ldr	r3, [pc, #372]	; (80088bc <HAL_RCC_DeInit+0x184>)
 8008746:	681b      	ldr	r3, [r3, #0]
 8008748:	4a5c      	ldr	r2, [pc, #368]	; (80088bc <HAL_RCC_DeInit+0x184>)
 800874a:	f043 0301 	orr.w	r3, r3, #1
 800874e:	6013      	str	r3, [r2, #0]

  /* Wait till HSI is ready */
  while (READ_BIT(RCC->CR, RCC_CR_HSIRDY) == RESET)
 8008750:	e008      	b.n	8008764 <HAL_RCC_DeInit+0x2c>
  {
    if ((HAL_GetTick() - tickstart) > HSI_TIMEOUT_VALUE)
 8008752:	f7fe fde9 	bl	8007328 <HAL_GetTick>
 8008756:	4602      	mov	r2, r0
 8008758:	687b      	ldr	r3, [r7, #4]
 800875a:	1ad3      	subs	r3, r2, r3
 800875c:	2b02      	cmp	r3, #2
 800875e:	d901      	bls.n	8008764 <HAL_RCC_DeInit+0x2c>
    {
      return HAL_TIMEOUT;
 8008760:	2303      	movs	r3, #3
 8008762:	e0a7      	b.n	80088b4 <HAL_RCC_DeInit+0x17c>
  while (READ_BIT(RCC->CR, RCC_CR_HSIRDY) == RESET)
 8008764:	4b55      	ldr	r3, [pc, #340]	; (80088bc <HAL_RCC_DeInit+0x184>)
 8008766:	681b      	ldr	r3, [r3, #0]
 8008768:	f003 0302 	and.w	r3, r3, #2
 800876c:	2b00      	cmp	r3, #0
 800876e:	d0f0      	beq.n	8008752 <HAL_RCC_DeInit+0x1a>
    }
  }

  /* Set HSITRIM[4:0] bits to the reset value */
  SET_BIT(RCC->CR, RCC_CR_HSITRIM_4);
 8008770:	4b52      	ldr	r3, [pc, #328]	; (80088bc <HAL_RCC_DeInit+0x184>)
 8008772:	681b      	ldr	r3, [r3, #0]
 8008774:	4a51      	ldr	r2, [pc, #324]	; (80088bc <HAL_RCC_DeInit+0x184>)
 8008776:	f043 0380 	orr.w	r3, r3, #128	; 0x80
 800877a:	6013      	str	r3, [r2, #0]

  /* Get Start Tick */
  tickstart = HAL_GetTick();
 800877c:	f7fe fdd4 	bl	8007328 <HAL_GetTick>
 8008780:	6078      	str	r0, [r7, #4]

  /* Reset CFGR register */
  CLEAR_REG(RCC->CFGR);
 8008782:	4b4e      	ldr	r3, [pc, #312]	; (80088bc <HAL_RCC_DeInit+0x184>)
 8008784:	2200      	movs	r2, #0
 8008786:	609a      	str	r2, [r3, #8]

  /* Wait till clock switch is ready */
  while (READ_BIT(RCC->CFGR, RCC_CFGR_SWS) != RESET)
 8008788:	e00a      	b.n	80087a0 <HAL_RCC_DeInit+0x68>
  {
    if ((HAL_GetTick() - tickstart) > CLOCKSWITCH_TIMEOUT_VALUE)
 800878a:	f7fe fdcd 	bl	8007328 <HAL_GetTick>
 800878e:	4602      	mov	r2, r0
 8008790:	687b      	ldr	r3, [r7, #4]
 8008792:	1ad3      	subs	r3, r2, r3
 8008794:	f241 3288 	movw	r2, #5000	; 0x1388
 8008798:	4293      	cmp	r3, r2
 800879a:	d901      	bls.n	80087a0 <HAL_RCC_DeInit+0x68>
    {
      return HAL_TIMEOUT;
 800879c:	2303      	movs	r3, #3
 800879e:	e089      	b.n	80088b4 <HAL_RCC_DeInit+0x17c>
  while (READ_BIT(RCC->CFGR, RCC_CFGR_SWS) != RESET)
 80087a0:	4b46      	ldr	r3, [pc, #280]	; (80088bc <HAL_RCC_DeInit+0x184>)
 80087a2:	689b      	ldr	r3, [r3, #8]
 80087a4:	f003 030c 	and.w	r3, r3, #12
 80087a8:	2b00      	cmp	r3, #0
 80087aa:	d1ee      	bne.n	800878a <HAL_RCC_DeInit+0x52>
    }
  }

  /* Get Start Tick */
  tickstart = HAL_GetTick();
 80087ac:	f7fe fdbc 	bl	8007328 <HAL_GetTick>
 80087b0:	6078      	str	r0, [r7, #4]

  /* Clear HSEON, HSEBYP and CSSON bits */
  CLEAR_BIT(RCC->CR, RCC_CR_HSEON | RCC_CR_HSEBYP | RCC_CR_CSSON);
 80087b2:	4b42      	ldr	r3, [pc, #264]	; (80088bc <HAL_RCC_DeInit+0x184>)
 80087b4:	681b      	ldr	r3, [r3, #0]
 80087b6:	4a41      	ldr	r2, [pc, #260]	; (80088bc <HAL_RCC_DeInit+0x184>)
 80087b8:	f423 2350 	bic.w	r3, r3, #851968	; 0xd0000
 80087bc:	6013      	str	r3, [r2, #0]

  /* Wait till HSE is disabled */
  while (READ_BIT(RCC->CR, RCC_CR_HSERDY) != RESET)
 80087be:	e008      	b.n	80087d2 <HAL_RCC_DeInit+0x9a>
  {
    if ((HAL_GetTick() - tickstart) > HSE_TIMEOUT_VALUE)
 80087c0:	f7fe fdb2 	bl	8007328 <HAL_GetTick>
 80087c4:	4602      	mov	r2, r0
 80087c6:	687b      	ldr	r3, [r7, #4]
 80087c8:	1ad3      	subs	r3, r2, r3
 80087ca:	2b64      	cmp	r3, #100	; 0x64
 80087cc:	d901      	bls.n	80087d2 <HAL_RCC_DeInit+0x9a>
    {
      return HAL_TIMEOUT;
 80087ce:	2303      	movs	r3, #3
 80087d0:	e070      	b.n	80088b4 <HAL_RCC_DeInit+0x17c>
  while (READ_BIT(RCC->CR, RCC_CR_HSERDY) != RESET)
 80087d2:	4b3a      	ldr	r3, [pc, #232]	; (80088bc <HAL_RCC_DeInit+0x184>)
 80087d4:	681b      	ldr	r3, [r3, #0]
 80087d6:	f403 3300 	and.w	r3, r3, #131072	; 0x20000
 80087da:	2b00      	cmp	r3, #0
 80087dc:	d1f0      	bne.n	80087c0 <HAL_RCC_DeInit+0x88>
    }
  }

  /* Get Start Tick */
  tickstart = HAL_GetTick();
 80087de:	f7fe fda3 	bl	8007328 <HAL_GetTick>
 80087e2:	6078      	str	r0, [r7, #4]

  /* Clear PLLON bit */
  CLEAR_BIT(RCC->CR, RCC_CR_PLLON);
 80087e4:	4b35      	ldr	r3, [pc, #212]	; (80088bc <HAL_RCC_DeInit+0x184>)
 80087e6:	681b      	ldr	r3, [r3, #0]
 80087e8:	4a34      	ldr	r2, [pc, #208]	; (80088bc <HAL_RCC_DeInit+0x184>)
 80087ea:	f023 7380 	bic.w	r3, r3, #16777216	; 0x1000000
 80087ee:	6013      	str	r3, [r2, #0]

  /* Wait till PLL is disabled */
  while (READ_BIT(RCC->CR, RCC_CR_PLLRDY) != RESET)
 80087f0:	e008      	b.n	8008804 <HAL_RCC_DeInit+0xcc>
  {
    if ((HAL_GetTick() - tickstart) > PLL_TIMEOUT_VALUE)
 80087f2:	f7fe fd99 	bl	8007328 <HAL_GetTick>
 80087f6:	4602      	mov	r2, r0
 80087f8:	687b      	ldr	r3, [r7, #4]
 80087fa:	1ad3      	subs	r3, r2, r3
 80087fc:	2b02      	cmp	r3, #2
 80087fe:	d901      	bls.n	8008804 <HAL_RCC_DeInit+0xcc>
    {
      return HAL_TIMEOUT;
 8008800:	2303      	movs	r3, #3
 8008802:	e057      	b.n	80088b4 <HAL_RCC_DeInit+0x17c>
  while (READ_BIT(RCC->CR, RCC_CR_PLLRDY) != RESET)
 8008804:	4b2d      	ldr	r3, [pc, #180]	; (80088bc <HAL_RCC_DeInit+0x184>)
 8008806:	681b      	ldr	r3, [r3, #0]
 8008808:	f003 7300 	and.w	r3, r3, #33554432	; 0x2000000
 800880c:	2b00      	cmp	r3, #0
 800880e:	d1f0      	bne.n	80087f2 <HAL_RCC_DeInit+0xba>
    }
  }

#if defined(RCC_PLLI2S_SUPPORT)
  /* Get Start Tick */
  tickstart = HAL_GetTick();
 8008810:	f7fe fd8a 	bl	8007328 <HAL_GetTick>
 8008814:	6078      	str	r0, [r7, #4]

  /* Reset PLLI2SON bit */
  CLEAR_BIT(RCC->CR, RCC_CR_PLLI2SON);
 8008816:	4b29      	ldr	r3, [pc, #164]	; (80088bc <HAL_RCC_DeInit+0x184>)
 8008818:	681b      	ldr	r3, [r3, #0]
 800881a:	4a28      	ldr	r2, [pc, #160]	; (80088bc <HAL_RCC_DeInit+0x184>)
 800881c:	f023 6380 	bic.w	r3, r3, #67108864	; 0x4000000
 8008820:	6013      	str	r3, [r2, #0]

  /* Wait till PLLI2S is disabled */
  while (READ_BIT(RCC->CR, RCC_CR_PLLI2SRDY) != RESET)
 8008822:	e008      	b.n	8008836 <HAL_RCC_DeInit+0xfe>
  {
    if ((HAL_GetTick() - tickstart) > PLLI2S_TIMEOUT_VALUE)
 8008824:	f7fe fd80 	bl	8007328 <HAL_GetTick>
 8008828:	4602      	mov	r2, r0
 800882a:	687b      	ldr	r3, [r7, #4]
 800882c:	1ad3      	subs	r3, r2, r3
 800882e:	2b02      	cmp	r3, #2
 8008830:	d901      	bls.n	8008836 <HAL_RCC_DeInit+0xfe>
    {
      return HAL_TIMEOUT;
 8008832:	2303      	movs	r3, #3
 8008834:	e03e      	b.n	80088b4 <HAL_RCC_DeInit+0x17c>
  while (READ_BIT(RCC->CR, RCC_CR_PLLI2SRDY) != RESET)
 8008836:	4b21      	ldr	r3, [pc, #132]	; (80088bc <HAL_RCC_DeInit+0x184>)
 8008838:	681b      	ldr	r3, [r3, #0]
 800883a:	f003 6300 	and.w	r3, r3, #134217728	; 0x8000000
 800883e:	2b00      	cmp	r3, #0
 8008840:	d1f0      	bne.n	8008824 <HAL_RCC_DeInit+0xec>
    defined(STM32F423xx) || defined(STM32F446xx) || defined(STM32F469xx) || defined(STM32F479xx)
  RCC->PLLCFGR = RCC_PLLCFGR_PLLM_4 | RCC_PLLCFGR_PLLN_6 | RCC_PLLCFGR_PLLN_7 | RCC_PLLCFGR_PLLQ_2 | RCC_PLLCFGR_PLLR_1;
#elif defined(STM32F410Tx) || defined(STM32F410Cx) || defined(STM32F410Rx)
  RCC->PLLCFGR = RCC_PLLCFGR_PLLR_0 | RCC_PLLCFGR_PLLR_1 | RCC_PLLCFGR_PLLR_2 | RCC_PLLCFGR_PLLM_4 | RCC_PLLCFGR_PLLN_6 | RCC_PLLCFGR_PLLN_7 | RCC_PLLCFGR_PLLQ_0 | RCC_PLLCFGR_PLLQ_1 | RCC_PLLCFGR_PLLQ_2 | RCC_PLLCFGR_PLLQ_3;
#else
  RCC->PLLCFGR = RCC_PLLCFGR_PLLM_4 | RCC_PLLCFGR_PLLN_6 | RCC_PLLCFGR_PLLN_7 | RCC_PLLCFGR_PLLQ_2;
 8008842:	4b1e      	ldr	r3, [pc, #120]	; (80088bc <HAL_RCC_DeInit+0x184>)
 8008844:	4a1e      	ldr	r2, [pc, #120]	; (80088c0 <HAL_RCC_DeInit+0x188>)
 8008846:	605a      	str	r2, [r3, #4]
#elif defined(STM32F401xC) || defined(STM32F401xE) || defined(STM32F405xx) || defined(STM32F415xx) || defined(STM32F407xx) || defined(STM32F417xx)
  RCC->PLLI2SCFGR = RCC_PLLI2SCFGR_PLLI2SN_6 | RCC_PLLI2SCFGR_PLLI2SN_7 | RCC_PLLI2SCFGR_PLLI2SR_1;
#elif defined(STM32F427xx) || defined(STM32F437xx) || defined(STM32F429xx) || defined(STM32F439xx) || defined(STM32F469xx) || defined(STM32F479xx)
  RCC->PLLI2SCFGR = RCC_PLLI2SCFGR_PLLI2SN_6 | RCC_PLLI2SCFGR_PLLI2SN_7 | RCC_PLLI2SCFGR_PLLI2SQ_2 | RCC_PLLI2SCFGR_PLLI2SR_1;
#elif defined(STM32F411xE)
  RCC->PLLI2SCFGR = RCC_PLLI2SCFGR_PLLI2SM_4 | RCC_PLLI2SCFGR_PLLI2SN_6 | RCC_PLLI2SCFGR_PLLI2SN_7 | RCC_PLLI2SCFGR_PLLI2SR_1;
 8008848:	4b1c      	ldr	r3, [pc, #112]	; (80088bc <HAL_RCC_DeInit+0x184>)
 800884a:	4a1e      	ldr	r2, [pc, #120]	; (80088c4 <HAL_RCC_DeInit+0x18c>)
 800884c:	f8c3 2084 	str.w	r2, [r3, #132]	; 0x84
#elif defined(STM32F446xx)
  RCC->PLLSAICFGR = RCC_PLLSAICFGR_PLLSAIM_4 | RCC_PLLSAICFGR_PLLSAIN_6 | RCC_PLLSAICFGR_PLLSAIN_7 | RCC_PLLSAICFGR_PLLSAIQ_2;
#endif /* STM32F427xx || STM32F429xx || STM32F437xx || STM32F439xx || STM32F469xx || STM32F479xx */

  /* Disable all interrupts */
  CLEAR_BIT(RCC->CIR, RCC_CIR_LSIRDYIE | RCC_CIR_LSERDYIE | RCC_CIR_HSIRDYIE | RCC_CIR_HSERDYIE | RCC_CIR_PLLRDYIE);
 8008850:	4b1a      	ldr	r3, [pc, #104]	; (80088bc <HAL_RCC_DeInit+0x184>)
 8008852:	68db      	ldr	r3, [r3, #12]
 8008854:	4a19      	ldr	r2, [pc, #100]	; (80088bc <HAL_RCC_DeInit+0x184>)
 8008856:	f423 53f8 	bic.w	r3, r3, #7936	; 0x1f00
 800885a:	60d3      	str	r3, [r2, #12]

#if defined(RCC_CIR_PLLI2SRDYIE)
  CLEAR_BIT(RCC->CIR, RCC_CIR_PLLI2SRDYIE);
 800885c:	4b17      	ldr	r3, [pc, #92]	; (80088bc <HAL_RCC_DeInit+0x184>)
 800885e:	68db      	ldr	r3, [r3, #12]
 8008860:	4a16      	ldr	r2, [pc, #88]	; (80088bc <HAL_RCC_DeInit+0x184>)
 8008862:	f423 5300 	bic.w	r3, r3, #8192	; 0x2000
 8008866:	60d3      	str	r3, [r2, #12]
#if defined(RCC_CIR_PLLSAIRDYIE)
  CLEAR_BIT(RCC->CIR, RCC_CIR_PLLSAIRDYIE);
#endif /* RCC_CIR_PLLSAIRDYIE */

  /* Clear all interrupt flags */
  SET_BIT(RCC->CIR, RCC_CIR_LSIRDYC | RCC_CIR_LSERDYC | RCC_CIR_HSIRDYC | RCC_CIR_HSERDYC | RCC_CIR_PLLRDYC | RCC_CIR_CSSC);
 8008868:	4b14      	ldr	r3, [pc, #80]	; (80088bc <HAL_RCC_DeInit+0x184>)
 800886a:	68db      	ldr	r3, [r3, #12]
 800886c:	4a13      	ldr	r2, [pc, #76]	; (80088bc <HAL_RCC_DeInit+0x184>)
 800886e:	f443 031f 	orr.w	r3, r3, #10420224	; 0x9f0000
 8008872:	60d3      	str	r3, [r2, #12]

#if defined(RCC_CIR_PLLI2SRDYC)
  SET_BIT(RCC->CIR, RCC_CIR_PLLI2SRDYC);
 8008874:	4b11      	ldr	r3, [pc, #68]	; (80088bc <HAL_RCC_DeInit+0x184>)
 8008876:	68db      	ldr	r3, [r3, #12]
 8008878:	4a10      	ldr	r2, [pc, #64]	; (80088bc <HAL_RCC_DeInit+0x184>)
 800887a:	f443 1300 	orr.w	r3, r3, #2097152	; 0x200000
 800887e:	60d3      	str	r3, [r2, #12]
#if defined(RCC_CIR_PLLSAIRDYC)
  SET_BIT(RCC->CIR, RCC_CIR_PLLSAIRDYC);
#endif /* RCC_CIR_PLLSAIRDYC */

  /* Clear LSION bit */
  CLEAR_BIT(RCC->CSR, RCC_CSR_LSION);
 8008880:	4b0e      	ldr	r3, [pc, #56]	; (80088bc <HAL_RCC_DeInit+0x184>)
 8008882:	6f5b      	ldr	r3, [r3, #116]	; 0x74
 8008884:	4a0d      	ldr	r2, [pc, #52]	; (80088bc <HAL_RCC_DeInit+0x184>)
 8008886:	f023 0301 	bic.w	r3, r3, #1
 800888a:	6753      	str	r3, [r2, #116]	; 0x74

  /* Reset all CSR flags */
  SET_BIT(RCC->CSR, RCC_CSR_RMVF);
 800888c:	4b0b      	ldr	r3, [pc, #44]	; (80088bc <HAL_RCC_DeInit+0x184>)
 800888e:	6f5b      	ldr	r3, [r3, #116]	; 0x74
 8008890:	4a0a      	ldr	r2, [pc, #40]	; (80088bc <HAL_RCC_DeInit+0x184>)
 8008892:	f043 7380 	orr.w	r3, r3, #16777216	; 0x1000000
 8008896:	6753      	str	r3, [r2, #116]	; 0x74

  /* Update the SystemCoreClock global variable */
  SystemCoreClock = HSI_VALUE;
 8008898:	4b0b      	ldr	r3, [pc, #44]	; (80088c8 <HAL_RCC_DeInit+0x190>)
 800889a:	4a0c      	ldr	r2, [pc, #48]	; (80088cc <HAL_RCC_DeInit+0x194>)
 800889c:	601a      	str	r2, [r3, #0]

  /* Adapt Systick interrupt period */
  if(HAL_InitTick(uwTickPrio) != HAL_OK)
 800889e:	4b0c      	ldr	r3, [pc, #48]	; (80088d0 <HAL_RCC_DeInit+0x198>)
 80088a0:	681b      	ldr	r3, [r3, #0]
 80088a2:	4618      	mov	r0, r3
 80088a4:	f7fe fcfc 	bl	80072a0 <HAL_InitTick>
 80088a8:	4603      	mov	r3, r0
 80088aa:	2b00      	cmp	r3, #0
 80088ac:	d001      	beq.n	80088b2 <HAL_RCC_DeInit+0x17a>
  {
    return HAL_ERROR;
 80088ae:	2301      	movs	r3, #1
 80088b0:	e000      	b.n	80088b4 <HAL_RCC_DeInit+0x17c>
  }
  else
  {
    return HAL_OK;
 80088b2:	2300      	movs	r3, #0
  }
}
 80088b4:	4618      	mov	r0, r3
 80088b6:	3708      	adds	r7, #8
 80088b8:	46bd      	mov	sp, r7
 80088ba:	bd80      	pop	{r7, pc}
 80088bc:	40023800 	.word	0x40023800
 80088c0:	04003010 	.word	0x04003010
 80088c4:	20003010 	.word	0x20003010
 80088c8:	20000000 	.word	0x20000000
 80088cc:	00f42400 	.word	0x00f42400
 80088d0:	20000004 	.word	0x20000004

080088d4 <HAL_UART_Init>:
  * @param  huart  Pointer to a UART_HandleTypeDef structure that contains
  *                the configuration information for the specified UART module.
  * @retval HAL status
  */
HAL_StatusTypeDef HAL_UART_Init(UART_HandleTypeDef *huart)
{
 80088d4:	b580      	push	{r7, lr}
 80088d6:	b082      	sub	sp, #8
 80088d8:	af00      	add	r7, sp, #0
 80088da:	6078      	str	r0, [r7, #4]
  /* Check the UART handle allocation */
  if (huart == NULL)
 80088dc:	687b      	ldr	r3, [r7, #4]
 80088de:	2b00      	cmp	r3, #0
 80088e0:	d101      	bne.n	80088e6 <HAL_UART_Init+0x12>
  {
    return HAL_ERROR;
 80088e2:	2301      	movs	r3, #1
 80088e4:	e03f      	b.n	8008966 <HAL_UART_Init+0x92>
    assert_param(IS_UART_INSTANCE(huart->Instance));
  }
  assert_param(IS_UART_WORD_LENGTH(huart->Init.WordLength));
  assert_param(IS_UART_OVERSAMPLING(huart->Init.OverSampling));

  if (huart->gState == HAL_UART_STATE_RESET)
 80088e6:	687b      	ldr	r3, [r7, #4]
 80088e8:	f893 303d 	ldrb.w	r3, [r3, #61]	; 0x3d
 80088ec:	b2db      	uxtb	r3, r3
 80088ee:	2b00      	cmp	r3, #0
 80088f0:	d106      	bne.n	8008900 <HAL_UART_Init+0x2c>
  {
    /* Allocate lock resource and initialize it */
    huart->Lock = HAL_UNLOCKED;
 80088f2:	687b      	ldr	r3, [r7, #4]
 80088f4:	2200      	movs	r2, #0
 80088f6:	f883 203c 	strb.w	r2, [r3, #60]	; 0x3c

    /* Init the low level hardware */
    huart->MspInitCallback(huart);
#else
    /* Init the low level hardware : GPIO, CLOCK */
    HAL_UART_MspInit(huart);
 80088fa:	6878      	ldr	r0, [r7, #4]
 80088fc:	f7fe fb6c 	bl	8006fd8 <HAL_UART_MspInit>
#endif /* (USE_HAL_UART_REGISTER_CALLBACKS) */
  }

  huart->gState = HAL_UART_STATE_BUSY;
 8008900:	687b      	ldr	r3, [r7, #4]
 8008902:	2224      	movs	r2, #36	; 0x24
 8008904:	f883 203d 	strb.w	r2, [r3, #61]	; 0x3d

  /* Disable the peripheral */
  __HAL_UART_DISABLE(huart);
 8008908:	687b      	ldr	r3, [r7, #4]
 800890a:	681b      	ldr	r3, [r3, #0]
 800890c:	68da      	ldr	r2, [r3, #12]
 800890e:	687b      	ldr	r3, [r7, #4]
 8008910:	681b      	ldr	r3, [r3, #0]
 8008912:	f422 5200 	bic.w	r2, r2, #8192	; 0x2000
 8008916:	60da      	str	r2, [r3, #12]

  /* Set the UART Communication parameters */
  UART_SetConfig(huart);
 8008918:	6878      	ldr	r0, [r7, #4]
 800891a:	f000 f9cb 	bl	8008cb4 <UART_SetConfig>

  /* In asynchronous mode, the following bits must be kept cleared:
     - LINEN and CLKEN bits in the USART_CR2 register,
     - SCEN, HDSEL and IREN  bits in the USART_CR3 register.*/
  CLEAR_BIT(huart->Instance->CR2, (USART_CR2_LINEN | USART_CR2_CLKEN));
 800891e:	687b      	ldr	r3, [r7, #4]
 8008920:	681b      	ldr	r3, [r3, #0]
 8008922:	691a      	ldr	r2, [r3, #16]
 8008924:	687b      	ldr	r3, [r7, #4]
 8008926:	681b      	ldr	r3, [r3, #0]
 8008928:	f422 4290 	bic.w	r2, r2, #18432	; 0x4800
 800892c:	611a      	str	r2, [r3, #16]
  CLEAR_BIT(huart->Instance->CR3, (USART_CR3_SCEN | USART_CR3_HDSEL | USART_CR3_IREN));
 800892e:	687b      	ldr	r3, [r7, #4]
 8008930:	681b      	ldr	r3, [r3, #0]
 8008932:	695a      	ldr	r2, [r3, #20]
 8008934:	687b      	ldr	r3, [r7, #4]
 8008936:	681b      	ldr	r3, [r3, #0]
 8008938:	f022 022a 	bic.w	r2, r2, #42	; 0x2a
 800893c:	615a      	str	r2, [r3, #20]

  /* Enable the peripheral */
  __HAL_UART_ENABLE(huart);
 800893e:	687b      	ldr	r3, [r7, #4]
 8008940:	681b      	ldr	r3, [r3, #0]
 8008942:	68da      	ldr	r2, [r3, #12]
 8008944:	687b      	ldr	r3, [r7, #4]
 8008946:	681b      	ldr	r3, [r3, #0]
 8008948:	f442 5200 	orr.w	r2, r2, #8192	; 0x2000
 800894c:	60da      	str	r2, [r3, #12]

  /* Initialize the UART state */
  huart->ErrorCode = HAL_UART_ERROR_NONE;
 800894e:	687b      	ldr	r3, [r7, #4]
 8008950:	2200      	movs	r2, #0
 8008952:	641a      	str	r2, [r3, #64]	; 0x40
  huart->gState = HAL_UART_STATE_READY;
 8008954:	687b      	ldr	r3, [r7, #4]
 8008956:	2220      	movs	r2, #32
 8008958:	f883 203d 	strb.w	r2, [r3, #61]	; 0x3d
  huart->RxState = HAL_UART_STATE_READY;
 800895c:	687b      	ldr	r3, [r7, #4]
 800895e:	2220      	movs	r2, #32
 8008960:	f883 203e 	strb.w	r2, [r3, #62]	; 0x3e

  return HAL_OK;
 8008964:	2300      	movs	r3, #0
}
 8008966:	4618      	mov	r0, r3
 8008968:	3708      	adds	r7, #8
 800896a:	46bd      	mov	sp, r7
 800896c:	bd80      	pop	{r7, pc}

0800896e <HAL_UART_Transmit>:
  * @param  Size  Amount of data elements (u8 or u16) to be sent
  * @param  Timeout Timeout duration
  * @retval HAL status
  */
HAL_StatusTypeDef HAL_UART_Transmit(UART_HandleTypeDef *huart, uint8_t *pData, uint16_t Size, uint32_t Timeout)
{
 800896e:	b580      	push	{r7, lr}
 8008970:	b08a      	sub	sp, #40	; 0x28
 8008972:	af02      	add	r7, sp, #8
 8008974:	60f8      	str	r0, [r7, #12]
 8008976:	60b9      	str	r1, [r7, #8]
 8008978:	603b      	str	r3, [r7, #0]
 800897a:	4613      	mov	r3, r2
 800897c:	80fb      	strh	r3, [r7, #6]
  uint8_t  *pdata8bits;
  uint16_t *pdata16bits;
  uint32_t tickstart = 0U;
 800897e:	2300      	movs	r3, #0
 8008980:	617b      	str	r3, [r7, #20]

  /* Check that a Tx process is not already ongoing */
  if (huart->gState == HAL_UART_STATE_READY)
 8008982:	68fb      	ldr	r3, [r7, #12]
 8008984:	f893 303d 	ldrb.w	r3, [r3, #61]	; 0x3d
 8008988:	b2db      	uxtb	r3, r3
 800898a:	2b20      	cmp	r3, #32
 800898c:	d17c      	bne.n	8008a88 <HAL_UART_Transmit+0x11a>
  {
    if ((pData == NULL) || (Size == 0U))
 800898e:	68bb      	ldr	r3, [r7, #8]
 8008990:	2b00      	cmp	r3, #0
 8008992:	d002      	beq.n	800899a <HAL_UART_Transmit+0x2c>
 8008994:	88fb      	ldrh	r3, [r7, #6]
 8008996:	2b00      	cmp	r3, #0
 8008998:	d101      	bne.n	800899e <HAL_UART_Transmit+0x30>
    {
      return  HAL_ERROR;
 800899a:	2301      	movs	r3, #1
 800899c:	e075      	b.n	8008a8a <HAL_UART_Transmit+0x11c>
    }

    /* Process Locked */
    __HAL_LOCK(huart);
 800899e:	68fb      	ldr	r3, [r7, #12]
 80089a0:	f893 303c 	ldrb.w	r3, [r3, #60]	; 0x3c
 80089a4:	2b01      	cmp	r3, #1
 80089a6:	d101      	bne.n	80089ac <HAL_UART_Transmit+0x3e>
 80089a8:	2302      	movs	r3, #2
 80089aa:	e06e      	b.n	8008a8a <HAL_UART_Transmit+0x11c>
 80089ac:	68fb      	ldr	r3, [r7, #12]
 80089ae:	2201      	movs	r2, #1
 80089b0:	f883 203c 	strb.w	r2, [r3, #60]	; 0x3c

    huart->ErrorCode = HAL_UART_ERROR_NONE;
 80089b4:	68fb      	ldr	r3, [r7, #12]
 80089b6:	2200      	movs	r2, #0
 80089b8:	641a      	str	r2, [r3, #64]	; 0x40
    huart->gState = HAL_UART_STATE_BUSY_TX;
 80089ba:	68fb      	ldr	r3, [r7, #12]
 80089bc:	2221      	movs	r2, #33	; 0x21
 80089be:	f883 203d 	strb.w	r2, [r3, #61]	; 0x3d

    /* Init tickstart for timeout management */
    tickstart = HAL_GetTick();
 80089c2:	f7fe fcb1 	bl	8007328 <HAL_GetTick>
 80089c6:	6178      	str	r0, [r7, #20]

    huart->TxXferSize = Size;
 80089c8:	68fb      	ldr	r3, [r7, #12]
 80089ca:	88fa      	ldrh	r2, [r7, #6]
 80089cc:	849a      	strh	r2, [r3, #36]	; 0x24
    huart->TxXferCount = Size;
 80089ce:	68fb      	ldr	r3, [r7, #12]
 80089d0:	88fa      	ldrh	r2, [r7, #6]
 80089d2:	84da      	strh	r2, [r3, #38]	; 0x26

    /* In case of 9bits/No Parity transfer, pData needs to be handled as a uint16_t pointer */
    if ((huart->Init.WordLength == UART_WORDLENGTH_9B) && (huart->Init.Parity == UART_PARITY_NONE))
 80089d4:	68fb      	ldr	r3, [r7, #12]
 80089d6:	689b      	ldr	r3, [r3, #8]
 80089d8:	f5b3 5f80 	cmp.w	r3, #4096	; 0x1000
 80089dc:	d108      	bne.n	80089f0 <HAL_UART_Transmit+0x82>
 80089de:	68fb      	ldr	r3, [r7, #12]
 80089e0:	691b      	ldr	r3, [r3, #16]
 80089e2:	2b00      	cmp	r3, #0
 80089e4:	d104      	bne.n	80089f0 <HAL_UART_Transmit+0x82>
    {
      pdata8bits  = NULL;
 80089e6:	2300      	movs	r3, #0
 80089e8:	61fb      	str	r3, [r7, #28]
      pdata16bits = (uint16_t *) pData;
 80089ea:	68bb      	ldr	r3, [r7, #8]
 80089ec:	61bb      	str	r3, [r7, #24]
 80089ee:	e003      	b.n	80089f8 <HAL_UART_Transmit+0x8a>
    }
    else
    {
      pdata8bits  = pData;
 80089f0:	68bb      	ldr	r3, [r7, #8]
 80089f2:	61fb      	str	r3, [r7, #28]
      pdata16bits = NULL;
 80089f4:	2300      	movs	r3, #0
 80089f6:	61bb      	str	r3, [r7, #24]
    }

    /* Process Unlocked */
    __HAL_UNLOCK(huart);
 80089f8:	68fb      	ldr	r3, [r7, #12]
 80089fa:	2200      	movs	r2, #0
 80089fc:	f883 203c 	strb.w	r2, [r3, #60]	; 0x3c

    while (huart->TxXferCount > 0U)
 8008a00:	e02a      	b.n	8008a58 <HAL_UART_Transmit+0xea>
    {
      if (UART_WaitOnFlagUntilTimeout(huart, UART_FLAG_TXE, RESET, tickstart, Timeout) != HAL_OK)
 8008a02:	683b      	ldr	r3, [r7, #0]
 8008a04:	9300      	str	r3, [sp, #0]
 8008a06:	697b      	ldr	r3, [r7, #20]
 8008a08:	2200      	movs	r2, #0
 8008a0a:	2180      	movs	r1, #128	; 0x80
 8008a0c:	68f8      	ldr	r0, [r7, #12]
 8008a0e:	f000 f8e2 	bl	8008bd6 <UART_WaitOnFlagUntilTimeout>
 8008a12:	4603      	mov	r3, r0
 8008a14:	2b00      	cmp	r3, #0
 8008a16:	d001      	beq.n	8008a1c <HAL_UART_Transmit+0xae>
      {
        return HAL_TIMEOUT;
 8008a18:	2303      	movs	r3, #3
 8008a1a:	e036      	b.n	8008a8a <HAL_UART_Transmit+0x11c>
      }
      if (pdata8bits == NULL)
 8008a1c:	69fb      	ldr	r3, [r7, #28]
 8008a1e:	2b00      	cmp	r3, #0
 8008a20:	d10b      	bne.n	8008a3a <HAL_UART_Transmit+0xcc>
      {
        huart->Instance->DR = (uint16_t)(*pdata16bits & 0x01FFU);
 8008a22:	69bb      	ldr	r3, [r7, #24]
 8008a24:	881b      	ldrh	r3, [r3, #0]
 8008a26:	461a      	mov	r2, r3
 8008a28:	68fb      	ldr	r3, [r7, #12]
 8008a2a:	681b      	ldr	r3, [r3, #0]
 8008a2c:	f3c2 0208 	ubfx	r2, r2, #0, #9
 8008a30:	605a      	str	r2, [r3, #4]
        pdata16bits++;
 8008a32:	69bb      	ldr	r3, [r7, #24]
 8008a34:	3302      	adds	r3, #2
 8008a36:	61bb      	str	r3, [r7, #24]
 8008a38:	e007      	b.n	8008a4a <HAL_UART_Transmit+0xdc>
      }
      else
      {
        huart->Instance->DR = (uint8_t)(*pdata8bits & 0xFFU);
 8008a3a:	69fb      	ldr	r3, [r7, #28]
 8008a3c:	781a      	ldrb	r2, [r3, #0]
 8008a3e:	68fb      	ldr	r3, [r7, #12]
 8008a40:	681b      	ldr	r3, [r3, #0]
 8008a42:	605a      	str	r2, [r3, #4]
        pdata8bits++;
 8008a44:	69fb      	ldr	r3, [r7, #28]
 8008a46:	3301      	adds	r3, #1
 8008a48:	61fb      	str	r3, [r7, #28]
      }
      huart->TxXferCount--;
 8008a4a:	68fb      	ldr	r3, [r7, #12]
 8008a4c:	8cdb      	ldrh	r3, [r3, #38]	; 0x26
 8008a4e:	b29b      	uxth	r3, r3
 8008a50:	3b01      	subs	r3, #1
 8008a52:	b29a      	uxth	r2, r3
 8008a54:	68fb      	ldr	r3, [r7, #12]
 8008a56:	84da      	strh	r2, [r3, #38]	; 0x26
    while (huart->TxXferCount > 0U)
 8008a58:	68fb      	ldr	r3, [r7, #12]
 8008a5a:	8cdb      	ldrh	r3, [r3, #38]	; 0x26
 8008a5c:	b29b      	uxth	r3, r3
 8008a5e:	2b00      	cmp	r3, #0
 8008a60:	d1cf      	bne.n	8008a02 <HAL_UART_Transmit+0x94>
    }

    if (UART_WaitOnFlagUntilTimeout(huart, UART_FLAG_TC, RESET, tickstart, Timeout) != HAL_OK)
 8008a62:	683b      	ldr	r3, [r7, #0]
 8008a64:	9300      	str	r3, [sp, #0]
 8008a66:	697b      	ldr	r3, [r7, #20]
 8008a68:	2200      	movs	r2, #0
 8008a6a:	2140      	movs	r1, #64	; 0x40
 8008a6c:	68f8      	ldr	r0, [r7, #12]
 8008a6e:	f000 f8b2 	bl	8008bd6 <UART_WaitOnFlagUntilTimeout>
 8008a72:	4603      	mov	r3, r0
 8008a74:	2b00      	cmp	r3, #0
 8008a76:	d001      	beq.n	8008a7c <HAL_UART_Transmit+0x10e>
    {
      return HAL_TIMEOUT;
 8008a78:	2303      	movs	r3, #3
 8008a7a:	e006      	b.n	8008a8a <HAL_UART_Transmit+0x11c>
    }

    /* At end of Tx process, restore huart->gState to Ready */
    huart->gState = HAL_UART_STATE_READY;
 8008a7c:	68fb      	ldr	r3, [r7, #12]
 8008a7e:	2220      	movs	r2, #32
 8008a80:	f883 203d 	strb.w	r2, [r3, #61]	; 0x3d

    return HAL_OK;
 8008a84:	2300      	movs	r3, #0
 8008a86:	e000      	b.n	8008a8a <HAL_UART_Transmit+0x11c>
  }
  else
  {
    return HAL_BUSY;
 8008a88:	2302      	movs	r3, #2
  }
}
 8008a8a:	4618      	mov	r0, r3
 8008a8c:	3720      	adds	r7, #32
 8008a8e:	46bd      	mov	sp, r7
 8008a90:	bd80      	pop	{r7, pc}

08008a92 <HAL_UART_Receive>:
  * @param  Size  Amount of data elements (u8 or u16) to be received.
  * @param  Timeout Timeout duration
  * @retval HAL status
  */
HAL_StatusTypeDef HAL_UART_Receive(UART_HandleTypeDef *huart, uint8_t *pData, uint16_t Size, uint32_t Timeout)
{
 8008a92:	b580      	push	{r7, lr}
 8008a94:	b08a      	sub	sp, #40	; 0x28
 8008a96:	af02      	add	r7, sp, #8
 8008a98:	60f8      	str	r0, [r7, #12]
 8008a9a:	60b9      	str	r1, [r7, #8]
 8008a9c:	603b      	str	r3, [r7, #0]
 8008a9e:	4613      	mov	r3, r2
 8008aa0:	80fb      	strh	r3, [r7, #6]
  uint8_t  *pdata8bits;
  uint16_t *pdata16bits;
  uint32_t tickstart = 0U;
 8008aa2:	2300      	movs	r3, #0
 8008aa4:	617b      	str	r3, [r7, #20]

  /* Check that a Rx process is not already ongoing */
  if (huart->RxState == HAL_UART_STATE_READY)
 8008aa6:	68fb      	ldr	r3, [r7, #12]
 8008aa8:	f893 303e 	ldrb.w	r3, [r3, #62]	; 0x3e
 8008aac:	b2db      	uxtb	r3, r3
 8008aae:	2b20      	cmp	r3, #32
 8008ab0:	f040 808c 	bne.w	8008bcc <HAL_UART_Receive+0x13a>
  {
    if ((pData == NULL) || (Size == 0U))
 8008ab4:	68bb      	ldr	r3, [r7, #8]
 8008ab6:	2b00      	cmp	r3, #0
 8008ab8:	d002      	beq.n	8008ac0 <HAL_UART_Receive+0x2e>
 8008aba:	88fb      	ldrh	r3, [r7, #6]
 8008abc:	2b00      	cmp	r3, #0
 8008abe:	d101      	bne.n	8008ac4 <HAL_UART_Receive+0x32>
    {
      return  HAL_ERROR;
 8008ac0:	2301      	movs	r3, #1
 8008ac2:	e084      	b.n	8008bce <HAL_UART_Receive+0x13c>
    }

    /* Process Locked */
    __HAL_LOCK(huart);
 8008ac4:	68fb      	ldr	r3, [r7, #12]
 8008ac6:	f893 303c 	ldrb.w	r3, [r3, #60]	; 0x3c
 8008aca:	2b01      	cmp	r3, #1
 8008acc:	d101      	bne.n	8008ad2 <HAL_UART_Receive+0x40>
 8008ace:	2302      	movs	r3, #2
 8008ad0:	e07d      	b.n	8008bce <HAL_UART_Receive+0x13c>
 8008ad2:	68fb      	ldr	r3, [r7, #12]
 8008ad4:	2201      	movs	r2, #1
 8008ad6:	f883 203c 	strb.w	r2, [r3, #60]	; 0x3c

    huart->ErrorCode = HAL_UART_ERROR_NONE;
 8008ada:	68fb      	ldr	r3, [r7, #12]
 8008adc:	2200      	movs	r2, #0
 8008ade:	641a      	str	r2, [r3, #64]	; 0x40
    huart->RxState = HAL_UART_STATE_BUSY_RX;
 8008ae0:	68fb      	ldr	r3, [r7, #12]
 8008ae2:	2222      	movs	r2, #34	; 0x22
 8008ae4:	f883 203e 	strb.w	r2, [r3, #62]	; 0x3e
    huart->ReceptionType = HAL_UART_RECEPTION_STANDARD;
 8008ae8:	68fb      	ldr	r3, [r7, #12]
 8008aea:	2200      	movs	r2, #0
 8008aec:	631a      	str	r2, [r3, #48]	; 0x30

    /* Init tickstart for timeout management */
    tickstart = HAL_GetTick();
 8008aee:	f7fe fc1b 	bl	8007328 <HAL_GetTick>
 8008af2:	6178      	str	r0, [r7, #20]

    huart->RxXferSize = Size;
 8008af4:	68fb      	ldr	r3, [r7, #12]
 8008af6:	88fa      	ldrh	r2, [r7, #6]
 8008af8:	859a      	strh	r2, [r3, #44]	; 0x2c
    huart->RxXferCount = Size;
 8008afa:	68fb      	ldr	r3, [r7, #12]
 8008afc:	88fa      	ldrh	r2, [r7, #6]
 8008afe:	85da      	strh	r2, [r3, #46]	; 0x2e

    /* In case of 9bits/No Parity transfer, pRxData needs to be handled as a uint16_t pointer */
    if ((huart->Init.WordLength == UART_WORDLENGTH_9B) && (huart->Init.Parity == UART_PARITY_NONE))
 8008b00:	68fb      	ldr	r3, [r7, #12]
 8008b02:	689b      	ldr	r3, [r3, #8]
 8008b04:	f5b3 5f80 	cmp.w	r3, #4096	; 0x1000
 8008b08:	d108      	bne.n	8008b1c <HAL_UART_Receive+0x8a>
 8008b0a:	68fb      	ldr	r3, [r7, #12]
 8008b0c:	691b      	ldr	r3, [r3, #16]
 8008b0e:	2b00      	cmp	r3, #0
 8008b10:	d104      	bne.n	8008b1c <HAL_UART_Receive+0x8a>
    {
      pdata8bits  = NULL;
 8008b12:	2300      	movs	r3, #0
 8008b14:	61fb      	str	r3, [r7, #28]
      pdata16bits = (uint16_t *) pData;
 8008b16:	68bb      	ldr	r3, [r7, #8]
 8008b18:	61bb      	str	r3, [r7, #24]
 8008b1a:	e003      	b.n	8008b24 <HAL_UART_Receive+0x92>
    }
    else
    {
      pdata8bits  = pData;
 8008b1c:	68bb      	ldr	r3, [r7, #8]
 8008b1e:	61fb      	str	r3, [r7, #28]
      pdata16bits = NULL;
 8008b20:	2300      	movs	r3, #0
 8008b22:	61bb      	str	r3, [r7, #24]
    }

    /* Process Unlocked */
    __HAL_UNLOCK(huart);
 8008b24:	68fb      	ldr	r3, [r7, #12]
 8008b26:	2200      	movs	r2, #0
 8008b28:	f883 203c 	strb.w	r2, [r3, #60]	; 0x3c

    /* Check the remain data to be received */
    while (huart->RxXferCount > 0U)
 8008b2c:	e043      	b.n	8008bb6 <HAL_UART_Receive+0x124>
    {
      if (UART_WaitOnFlagUntilTimeout(huart, UART_FLAG_RXNE, RESET, tickstart, Timeout) != HAL_OK)
 8008b2e:	683b      	ldr	r3, [r7, #0]
 8008b30:	9300      	str	r3, [sp, #0]
 8008b32:	697b      	ldr	r3, [r7, #20]
 8008b34:	2200      	movs	r2, #0
 8008b36:	2120      	movs	r1, #32
 8008b38:	68f8      	ldr	r0, [r7, #12]
 8008b3a:	f000 f84c 	bl	8008bd6 <UART_WaitOnFlagUntilTimeout>
 8008b3e:	4603      	mov	r3, r0
 8008b40:	2b00      	cmp	r3, #0
 8008b42:	d001      	beq.n	8008b48 <HAL_UART_Receive+0xb6>
      {
        return HAL_TIMEOUT;
 8008b44:	2303      	movs	r3, #3
 8008b46:	e042      	b.n	8008bce <HAL_UART_Receive+0x13c>
      }
      if (pdata8bits == NULL)
 8008b48:	69fb      	ldr	r3, [r7, #28]
 8008b4a:	2b00      	cmp	r3, #0
 8008b4c:	d10c      	bne.n	8008b68 <HAL_UART_Receive+0xd6>
      {
        *pdata16bits = (uint16_t)(huart->Instance->DR & 0x01FF);
 8008b4e:	68fb      	ldr	r3, [r7, #12]
 8008b50:	681b      	ldr	r3, [r3, #0]
 8008b52:	685b      	ldr	r3, [r3, #4]
 8008b54:	b29b      	uxth	r3, r3
 8008b56:	f3c3 0308 	ubfx	r3, r3, #0, #9
 8008b5a:	b29a      	uxth	r2, r3
 8008b5c:	69bb      	ldr	r3, [r7, #24]
 8008b5e:	801a      	strh	r2, [r3, #0]
        pdata16bits++;
 8008b60:	69bb      	ldr	r3, [r7, #24]
 8008b62:	3302      	adds	r3, #2
 8008b64:	61bb      	str	r3, [r7, #24]
 8008b66:	e01f      	b.n	8008ba8 <HAL_UART_Receive+0x116>
      }
      else
      {
        if ((huart->Init.WordLength == UART_WORDLENGTH_9B) || ((huart->Init.WordLength == UART_WORDLENGTH_8B) && (huart->Init.Parity == UART_PARITY_NONE)))
 8008b68:	68fb      	ldr	r3, [r7, #12]
 8008b6a:	689b      	ldr	r3, [r3, #8]
 8008b6c:	f5b3 5f80 	cmp.w	r3, #4096	; 0x1000
 8008b70:	d007      	beq.n	8008b82 <HAL_UART_Receive+0xf0>
 8008b72:	68fb      	ldr	r3, [r7, #12]
 8008b74:	689b      	ldr	r3, [r3, #8]
 8008b76:	2b00      	cmp	r3, #0
 8008b78:	d10a      	bne.n	8008b90 <HAL_UART_Receive+0xfe>
 8008b7a:	68fb      	ldr	r3, [r7, #12]
 8008b7c:	691b      	ldr	r3, [r3, #16]
 8008b7e:	2b00      	cmp	r3, #0
 8008b80:	d106      	bne.n	8008b90 <HAL_UART_Receive+0xfe>
        {
          *pdata8bits = (uint8_t)(huart->Instance->DR & (uint8_t)0x00FF);
 8008b82:	68fb      	ldr	r3, [r7, #12]
 8008b84:	681b      	ldr	r3, [r3, #0]
 8008b86:	685b      	ldr	r3, [r3, #4]
 8008b88:	b2da      	uxtb	r2, r3
 8008b8a:	69fb      	ldr	r3, [r7, #28]
 8008b8c:	701a      	strb	r2, [r3, #0]
 8008b8e:	e008      	b.n	8008ba2 <HAL_UART_Receive+0x110>
        }
        else
        {
          *pdata8bits = (uint8_t)(huart->Instance->DR & (uint8_t)0x007F);
 8008b90:	68fb      	ldr	r3, [r7, #12]
 8008b92:	681b      	ldr	r3, [r3, #0]
 8008b94:	685b      	ldr	r3, [r3, #4]
 8008b96:	b2db      	uxtb	r3, r3
 8008b98:	f003 037f 	and.w	r3, r3, #127	; 0x7f
 8008b9c:	b2da      	uxtb	r2, r3
 8008b9e:	69fb      	ldr	r3, [r7, #28]
 8008ba0:	701a      	strb	r2, [r3, #0]
        }
        pdata8bits++;
 8008ba2:	69fb      	ldr	r3, [r7, #28]
 8008ba4:	3301      	adds	r3, #1
 8008ba6:	61fb      	str	r3, [r7, #28]
      }
      huart->RxXferCount--;
 8008ba8:	68fb      	ldr	r3, [r7, #12]
 8008baa:	8ddb      	ldrh	r3, [r3, #46]	; 0x2e
 8008bac:	b29b      	uxth	r3, r3
 8008bae:	3b01      	subs	r3, #1
 8008bb0:	b29a      	uxth	r2, r3
 8008bb2:	68fb      	ldr	r3, [r7, #12]
 8008bb4:	85da      	strh	r2, [r3, #46]	; 0x2e
    while (huart->RxXferCount > 0U)
 8008bb6:	68fb      	ldr	r3, [r7, #12]
 8008bb8:	8ddb      	ldrh	r3, [r3, #46]	; 0x2e
 8008bba:	b29b      	uxth	r3, r3
 8008bbc:	2b00      	cmp	r3, #0
 8008bbe:	d1b6      	bne.n	8008b2e <HAL_UART_Receive+0x9c>
    }

    /* At end of Rx process, restore huart->RxState to Ready */
    huart->RxState = HAL_UART_STATE_READY;
 8008bc0:	68fb      	ldr	r3, [r7, #12]
 8008bc2:	2220      	movs	r2, #32
 8008bc4:	f883 203e 	strb.w	r2, [r3, #62]	; 0x3e

    return HAL_OK;
 8008bc8:	2300      	movs	r3, #0
 8008bca:	e000      	b.n	8008bce <HAL_UART_Receive+0x13c>
  }
  else
  {
    return HAL_BUSY;
 8008bcc:	2302      	movs	r3, #2
  }
}
 8008bce:	4618      	mov	r0, r3
 8008bd0:	3720      	adds	r7, #32
 8008bd2:	46bd      	mov	sp, r7
 8008bd4:	bd80      	pop	{r7, pc}

08008bd6 <UART_WaitOnFlagUntilTimeout>:
  * @param  Timeout Timeout duration
  * @retval HAL status
  */
static HAL_StatusTypeDef UART_WaitOnFlagUntilTimeout(UART_HandleTypeDef *huart, uint32_t Flag, FlagStatus Status,
                                                     uint32_t Tickstart, uint32_t Timeout)
{
 8008bd6:	b580      	push	{r7, lr}
 8008bd8:	b090      	sub	sp, #64	; 0x40
 8008bda:	af00      	add	r7, sp, #0
 8008bdc:	60f8      	str	r0, [r7, #12]
 8008bde:	60b9      	str	r1, [r7, #8]
 8008be0:	603b      	str	r3, [r7, #0]
 8008be2:	4613      	mov	r3, r2
 8008be4:	71fb      	strb	r3, [r7, #7]
  /* Wait until flag is set */
  while ((__HAL_UART_GET_FLAG(huart, Flag) ? SET : RESET) == Status)
 8008be6:	e050      	b.n	8008c8a <UART_WaitOnFlagUntilTimeout+0xb4>
  {
    /* Check for the Timeout */
    if (Timeout != HAL_MAX_DELAY)
 8008be8:	6cbb      	ldr	r3, [r7, #72]	; 0x48
 8008bea:	f1b3 3fff 	cmp.w	r3, #4294967295
 8008bee:	d04c      	beq.n	8008c8a <UART_WaitOnFlagUntilTimeout+0xb4>
    {
      if ((Timeout == 0U) || ((HAL_GetTick() - Tickstart) > Timeout))
 8008bf0:	6cbb      	ldr	r3, [r7, #72]	; 0x48
 8008bf2:	2b00      	cmp	r3, #0
 8008bf4:	d007      	beq.n	8008c06 <UART_WaitOnFlagUntilTimeout+0x30>
 8008bf6:	f7fe fb97 	bl	8007328 <HAL_GetTick>
 8008bfa:	4602      	mov	r2, r0
 8008bfc:	683b      	ldr	r3, [r7, #0]
 8008bfe:	1ad3      	subs	r3, r2, r3
 8008c00:	6cba      	ldr	r2, [r7, #72]	; 0x48
 8008c02:	429a      	cmp	r2, r3
 8008c04:	d241      	bcs.n	8008c8a <UART_WaitOnFlagUntilTimeout+0xb4>
      {
        /* Disable TXE, RXNE, PE and ERR (Frame error, noise error, overrun error) interrupts for the interrupt process */
        ATOMIC_CLEAR_BIT(huart->Instance->CR1, (USART_CR1_RXNEIE | USART_CR1_PEIE | USART_CR1_TXEIE));
 8008c06:	68fb      	ldr	r3, [r7, #12]
 8008c08:	681b      	ldr	r3, [r3, #0]
 8008c0a:	330c      	adds	r3, #12
 8008c0c:	62bb      	str	r3, [r7, #40]	; 0x28
 */
__STATIC_FORCEINLINE uint32_t __LDREXW(volatile uint32_t *addr)
{
    uint32_t result;

   __ASM volatile ("ldrex %0, %1" : "=r" (result) : "Q" (*addr) );
 8008c0e:	6abb      	ldr	r3, [r7, #40]	; 0x28
 8008c10:	e853 3f00 	ldrex	r3, [r3]
 8008c14:	627b      	str	r3, [r7, #36]	; 0x24
   return(result);
 8008c16:	6a7b      	ldr	r3, [r7, #36]	; 0x24
 8008c18:	f423 73d0 	bic.w	r3, r3, #416	; 0x1a0
 8008c1c:	63fb      	str	r3, [r7, #60]	; 0x3c
 8008c1e:	68fb      	ldr	r3, [r7, #12]
 8008c20:	681b      	ldr	r3, [r3, #0]
 8008c22:	330c      	adds	r3, #12
 8008c24:	6bfa      	ldr	r2, [r7, #60]	; 0x3c
 8008c26:	637a      	str	r2, [r7, #52]	; 0x34
 8008c28:	633b      	str	r3, [r7, #48]	; 0x30
 */
__STATIC_FORCEINLINE uint32_t __STREXW(uint32_t value, volatile uint32_t *addr)
{
   uint32_t result;

   __ASM volatile ("strex %0, %2, %1" : "=&r" (result), "=Q" (*addr) : "r" (value) );
 8008c2a:	6b39      	ldr	r1, [r7, #48]	; 0x30
 8008c2c:	6b7a      	ldr	r2, [r7, #52]	; 0x34
 8008c2e:	e841 2300 	strex	r3, r2, [r1]
 8008c32:	62fb      	str	r3, [r7, #44]	; 0x2c
   return(result);
 8008c34:	6afb      	ldr	r3, [r7, #44]	; 0x2c
 8008c36:	2b00      	cmp	r3, #0
 8008c38:	d1e5      	bne.n	8008c06 <UART_WaitOnFlagUntilTimeout+0x30>
        ATOMIC_CLEAR_BIT(huart->Instance->CR3, USART_CR3_EIE);
 8008c3a:	68fb      	ldr	r3, [r7, #12]
 8008c3c:	681b      	ldr	r3, [r3, #0]
 8008c3e:	3314      	adds	r3, #20
 8008c40:	617b      	str	r3, [r7, #20]
   __ASM volatile ("ldrex %0, %1" : "=r" (result) : "Q" (*addr) );
 8008c42:	697b      	ldr	r3, [r7, #20]
 8008c44:	e853 3f00 	ldrex	r3, [r3]
 8008c48:	613b      	str	r3, [r7, #16]
   return(result);
 8008c4a:	693b      	ldr	r3, [r7, #16]
 8008c4c:	f023 0301 	bic.w	r3, r3, #1
 8008c50:	63bb      	str	r3, [r7, #56]	; 0x38
 8008c52:	68fb      	ldr	r3, [r7, #12]
 8008c54:	681b      	ldr	r3, [r3, #0]
 8008c56:	3314      	adds	r3, #20
 8008c58:	6bba      	ldr	r2, [r7, #56]	; 0x38
 8008c5a:	623a      	str	r2, [r7, #32]
 8008c5c:	61fb      	str	r3, [r7, #28]
   __ASM volatile ("strex %0, %2, %1" : "=&r" (result), "=Q" (*addr) : "r" (value) );
 8008c5e:	69f9      	ldr	r1, [r7, #28]
 8008c60:	6a3a      	ldr	r2, [r7, #32]
 8008c62:	e841 2300 	strex	r3, r2, [r1]
 8008c66:	61bb      	str	r3, [r7, #24]
   return(result);
 8008c68:	69bb      	ldr	r3, [r7, #24]
 8008c6a:	2b00      	cmp	r3, #0
 8008c6c:	d1e5      	bne.n	8008c3a <UART_WaitOnFlagUntilTimeout+0x64>

        huart->gState  = HAL_UART_STATE_READY;
 8008c6e:	68fb      	ldr	r3, [r7, #12]
 8008c70:	2220      	movs	r2, #32
 8008c72:	f883 203d 	strb.w	r2, [r3, #61]	; 0x3d
        huart->RxState = HAL_UART_STATE_READY;
 8008c76:	68fb      	ldr	r3, [r7, #12]
 8008c78:	2220      	movs	r2, #32
 8008c7a:	f883 203e 	strb.w	r2, [r3, #62]	; 0x3e

        /* Process Unlocked */
        __HAL_UNLOCK(huart);
 8008c7e:	68fb      	ldr	r3, [r7, #12]
 8008c80:	2200      	movs	r2, #0
 8008c82:	f883 203c 	strb.w	r2, [r3, #60]	; 0x3c

        return HAL_TIMEOUT;
 8008c86:	2303      	movs	r3, #3
 8008c88:	e00f      	b.n	8008caa <UART_WaitOnFlagUntilTimeout+0xd4>
  while ((__HAL_UART_GET_FLAG(huart, Flag) ? SET : RESET) == Status)
 8008c8a:	68fb      	ldr	r3, [r7, #12]
 8008c8c:	681b      	ldr	r3, [r3, #0]
 8008c8e:	681a      	ldr	r2, [r3, #0]
 8008c90:	68bb      	ldr	r3, [r7, #8]
 8008c92:	4013      	ands	r3, r2
 8008c94:	68ba      	ldr	r2, [r7, #8]
 8008c96:	429a      	cmp	r2, r3
 8008c98:	bf0c      	ite	eq
 8008c9a:	2301      	moveq	r3, #1
 8008c9c:	2300      	movne	r3, #0
 8008c9e:	b2db      	uxtb	r3, r3
 8008ca0:	461a      	mov	r2, r3
 8008ca2:	79fb      	ldrb	r3, [r7, #7]
 8008ca4:	429a      	cmp	r2, r3
 8008ca6:	d09f      	beq.n	8008be8 <UART_WaitOnFlagUntilTimeout+0x12>
      }
    }
  }
  return HAL_OK;
 8008ca8:	2300      	movs	r3, #0
}
 8008caa:	4618      	mov	r0, r3
 8008cac:	3740      	adds	r7, #64	; 0x40
 8008cae:	46bd      	mov	sp, r7
 8008cb0:	bd80      	pop	{r7, pc}
	...

08008cb4 <UART_SetConfig>:
  * @param  huart  Pointer to a UART_HandleTypeDef structure that contains
  *                the configuration information for the specified UART module.
  * @retval None
  */
static void UART_SetConfig(UART_HandleTypeDef *huart)
{
 8008cb4:	e92d 4ff0 	stmdb	sp!, {r4, r5, r6, r7, r8, r9, sl, fp, lr}
 8008cb8:	b09f      	sub	sp, #124	; 0x7c
 8008cba:	af00      	add	r7, sp, #0
 8008cbc:	66f8      	str	r0, [r7, #108]	; 0x6c
  assert_param(IS_UART_MODE(huart->Init.Mode));

  /*-------------------------- USART CR2 Configuration -----------------------*/
  /* Configure the UART Stop Bits: Set STOP[13:12] bits
     according to huart->Init.StopBits value */
  MODIFY_REG(huart->Instance->CR2, USART_CR2_STOP, huart->Init.StopBits);
 8008cbe:	6efb      	ldr	r3, [r7, #108]	; 0x6c
 8008cc0:	681b      	ldr	r3, [r3, #0]
 8008cc2:	691b      	ldr	r3, [r3, #16]
 8008cc4:	f423 5040 	bic.w	r0, r3, #12288	; 0x3000
 8008cc8:	6efb      	ldr	r3, [r7, #108]	; 0x6c
 8008cca:	68d9      	ldr	r1, [r3, #12]
 8008ccc:	6efb      	ldr	r3, [r7, #108]	; 0x6c
 8008cce:	681a      	ldr	r2, [r3, #0]
 8008cd0:	ea40 0301 	orr.w	r3, r0, r1
 8008cd4:	6113      	str	r3, [r2, #16]
     Set the M bits according to huart->Init.WordLength value
     Set PCE and PS bits according to huart->Init.Parity value
     Set TE and RE bits according to huart->Init.Mode value
     Set OVER8 bit according to huart->Init.OverSampling value */

  tmpreg = (uint32_t)huart->Init.WordLength | huart->Init.Parity | huart->Init.Mode | huart->Init.OverSampling;
 8008cd6:	6efb      	ldr	r3, [r7, #108]	; 0x6c
 8008cd8:	689a      	ldr	r2, [r3, #8]
 8008cda:	6efb      	ldr	r3, [r7, #108]	; 0x6c
 8008cdc:	691b      	ldr	r3, [r3, #16]
 8008cde:	431a      	orrs	r2, r3
 8008ce0:	6efb      	ldr	r3, [r7, #108]	; 0x6c
 8008ce2:	695b      	ldr	r3, [r3, #20]
 8008ce4:	431a      	orrs	r2, r3
 8008ce6:	6efb      	ldr	r3, [r7, #108]	; 0x6c
 8008ce8:	69db      	ldr	r3, [r3, #28]
 8008cea:	4313      	orrs	r3, r2
 8008cec:	673b      	str	r3, [r7, #112]	; 0x70
  MODIFY_REG(huart->Instance->CR1,
 8008cee:	6efb      	ldr	r3, [r7, #108]	; 0x6c
 8008cf0:	681b      	ldr	r3, [r3, #0]
 8008cf2:	68db      	ldr	r3, [r3, #12]
 8008cf4:	f423 4116 	bic.w	r1, r3, #38400	; 0x9600
 8008cf8:	f021 010c 	bic.w	r1, r1, #12
 8008cfc:	6efb      	ldr	r3, [r7, #108]	; 0x6c
 8008cfe:	681a      	ldr	r2, [r3, #0]
 8008d00:	6f3b      	ldr	r3, [r7, #112]	; 0x70
 8008d02:	430b      	orrs	r3, r1
 8008d04:	60d3      	str	r3, [r2, #12]
             (uint32_t)(USART_CR1_M | USART_CR1_PCE | USART_CR1_PS | USART_CR1_TE | USART_CR1_RE | USART_CR1_OVER8),
             tmpreg);

  /*-------------------------- USART CR3 Configuration -----------------------*/
  /* Configure the UART HFC: Set CTSE and RTSE bits according to huart->Init.HwFlowCtl value */
  MODIFY_REG(huart->Instance->CR3, (USART_CR3_RTSE | USART_CR3_CTSE), huart->Init.HwFlowCtl);
 8008d06:	6efb      	ldr	r3, [r7, #108]	; 0x6c
 8008d08:	681b      	ldr	r3, [r3, #0]
 8008d0a:	695b      	ldr	r3, [r3, #20]
 8008d0c:	f423 7040 	bic.w	r0, r3, #768	; 0x300
 8008d10:	6efb      	ldr	r3, [r7, #108]	; 0x6c
 8008d12:	6999      	ldr	r1, [r3, #24]
 8008d14:	6efb      	ldr	r3, [r7, #108]	; 0x6c
 8008d16:	681a      	ldr	r2, [r3, #0]
 8008d18:	ea40 0301 	orr.w	r3, r0, r1
 8008d1c:	6153      	str	r3, [r2, #20]
    if ((huart->Instance == USART1) || (huart->Instance == USART6) || (huart->Instance == UART9) || (huart->Instance == UART10))
    {
      pclk = HAL_RCC_GetPCLK2Freq();
    }
#elif defined(USART6)
    if ((huart->Instance == USART1) || (huart->Instance == USART6))
 8008d1e:	6efb      	ldr	r3, [r7, #108]	; 0x6c
 8008d20:	681a      	ldr	r2, [r3, #0]
 8008d22:	4bc5      	ldr	r3, [pc, #788]	; (8009038 <UART_SetConfig+0x384>)
 8008d24:	429a      	cmp	r2, r3
 8008d26:	d004      	beq.n	8008d32 <UART_SetConfig+0x7e>
 8008d28:	6efb      	ldr	r3, [r7, #108]	; 0x6c
 8008d2a:	681a      	ldr	r2, [r3, #0]
 8008d2c:	4bc3      	ldr	r3, [pc, #780]	; (800903c <UART_SetConfig+0x388>)
 8008d2e:	429a      	cmp	r2, r3
 8008d30:	d103      	bne.n	8008d3a <UART_SetConfig+0x86>
    {
      pclk = HAL_RCC_GetPCLK2Freq();
 8008d32:	f7ff fced 	bl	8008710 <HAL_RCC_GetPCLK2Freq>
 8008d36:	6778      	str	r0, [r7, #116]	; 0x74
 8008d38:	e002      	b.n	8008d40 <UART_SetConfig+0x8c>
      pclk = HAL_RCC_GetPCLK2Freq();
    }
#endif /* USART6 */
    else
    {
      pclk = HAL_RCC_GetPCLK1Freq();
 8008d3a:	f7ff fcd5 	bl	80086e8 <HAL_RCC_GetPCLK1Freq>
 8008d3e:	6778      	str	r0, [r7, #116]	; 0x74
    }
  /*-------------------------- USART BRR Configuration ---------------------*/
  if (huart->Init.OverSampling == UART_OVERSAMPLING_8)
 8008d40:	6efb      	ldr	r3, [r7, #108]	; 0x6c
 8008d42:	69db      	ldr	r3, [r3, #28]
 8008d44:	f5b3 4f00 	cmp.w	r3, #32768	; 0x8000
 8008d48:	f040 80b6 	bne.w	8008eb8 <UART_SetConfig+0x204>
  {
    huart->Instance->BRR = UART_BRR_SAMPLING8(pclk, huart->Init.BaudRate);
 8008d4c:	6f7b      	ldr	r3, [r7, #116]	; 0x74
 8008d4e:	461c      	mov	r4, r3
 8008d50:	f04f 0500 	mov.w	r5, #0
 8008d54:	4622      	mov	r2, r4
 8008d56:	462b      	mov	r3, r5
 8008d58:	1891      	adds	r1, r2, r2
 8008d5a:	6439      	str	r1, [r7, #64]	; 0x40
 8008d5c:	415b      	adcs	r3, r3
 8008d5e:	647b      	str	r3, [r7, #68]	; 0x44
 8008d60:	e9d7 2310 	ldrd	r2, r3, [r7, #64]	; 0x40
 8008d64:	1912      	adds	r2, r2, r4
 8008d66:	eb45 0303 	adc.w	r3, r5, r3
 8008d6a:	f04f 0000 	mov.w	r0, #0
 8008d6e:	f04f 0100 	mov.w	r1, #0
 8008d72:	00d9      	lsls	r1, r3, #3
 8008d74:	ea41 7152 	orr.w	r1, r1, r2, lsr #29
 8008d78:	00d0      	lsls	r0, r2, #3
 8008d7a:	4602      	mov	r2, r0
 8008d7c:	460b      	mov	r3, r1
 8008d7e:	1911      	adds	r1, r2, r4
 8008d80:	6639      	str	r1, [r7, #96]	; 0x60
 8008d82:	416b      	adcs	r3, r5
 8008d84:	667b      	str	r3, [r7, #100]	; 0x64
 8008d86:	6efb      	ldr	r3, [r7, #108]	; 0x6c
 8008d88:	685b      	ldr	r3, [r3, #4]
 8008d8a:	461a      	mov	r2, r3
 8008d8c:	f04f 0300 	mov.w	r3, #0
 8008d90:	1891      	adds	r1, r2, r2
 8008d92:	63b9      	str	r1, [r7, #56]	; 0x38
 8008d94:	415b      	adcs	r3, r3
 8008d96:	63fb      	str	r3, [r7, #60]	; 0x3c
 8008d98:	e9d7 230e 	ldrd	r2, r3, [r7, #56]	; 0x38
 8008d9c:	e9d7 0118 	ldrd	r0, r1, [r7, #96]	; 0x60
 8008da0:	f7fd f9a4 	bl	80060ec <__aeabi_uldivmod>
 8008da4:	4602      	mov	r2, r0
 8008da6:	460b      	mov	r3, r1
 8008da8:	4ba5      	ldr	r3, [pc, #660]	; (8009040 <UART_SetConfig+0x38c>)
 8008daa:	fba3 2302 	umull	r2, r3, r3, r2
 8008dae:	095b      	lsrs	r3, r3, #5
 8008db0:	011e      	lsls	r6, r3, #4
 8008db2:	6f7b      	ldr	r3, [r7, #116]	; 0x74
 8008db4:	461c      	mov	r4, r3
 8008db6:	f04f 0500 	mov.w	r5, #0
 8008dba:	4622      	mov	r2, r4
 8008dbc:	462b      	mov	r3, r5
 8008dbe:	1891      	adds	r1, r2, r2
 8008dc0:	6339      	str	r1, [r7, #48]	; 0x30
 8008dc2:	415b      	adcs	r3, r3
 8008dc4:	637b      	str	r3, [r7, #52]	; 0x34
 8008dc6:	e9d7 230c 	ldrd	r2, r3, [r7, #48]	; 0x30
 8008dca:	1912      	adds	r2, r2, r4
 8008dcc:	eb45 0303 	adc.w	r3, r5, r3
 8008dd0:	f04f 0000 	mov.w	r0, #0
 8008dd4:	f04f 0100 	mov.w	r1, #0
 8008dd8:	00d9      	lsls	r1, r3, #3
 8008dda:	ea41 7152 	orr.w	r1, r1, r2, lsr #29
 8008dde:	00d0      	lsls	r0, r2, #3
 8008de0:	4602      	mov	r2, r0
 8008de2:	460b      	mov	r3, r1
 8008de4:	1911      	adds	r1, r2, r4
 8008de6:	65b9      	str	r1, [r7, #88]	; 0x58
 8008de8:	416b      	adcs	r3, r5
 8008dea:	65fb      	str	r3, [r7, #92]	; 0x5c
 8008dec:	6efb      	ldr	r3, [r7, #108]	; 0x6c
 8008dee:	685b      	ldr	r3, [r3, #4]
 8008df0:	461a      	mov	r2, r3
 8008df2:	f04f 0300 	mov.w	r3, #0
 8008df6:	1891      	adds	r1, r2, r2
 8008df8:	62b9      	str	r1, [r7, #40]	; 0x28
 8008dfa:	415b      	adcs	r3, r3
 8008dfc:	62fb      	str	r3, [r7, #44]	; 0x2c
 8008dfe:	e9d7 230a 	ldrd	r2, r3, [r7, #40]	; 0x28
 8008e02:	e9d7 0116 	ldrd	r0, r1, [r7, #88]	; 0x58
 8008e06:	f7fd f971 	bl	80060ec <__aeabi_uldivmod>
 8008e0a:	4602      	mov	r2, r0
 8008e0c:	460b      	mov	r3, r1
 8008e0e:	4b8c      	ldr	r3, [pc, #560]	; (8009040 <UART_SetConfig+0x38c>)
 8008e10:	fba3 1302 	umull	r1, r3, r3, r2
 8008e14:	095b      	lsrs	r3, r3, #5
 8008e16:	2164      	movs	r1, #100	; 0x64
 8008e18:	fb01 f303 	mul.w	r3, r1, r3
 8008e1c:	1ad3      	subs	r3, r2, r3
 8008e1e:	00db      	lsls	r3, r3, #3
 8008e20:	3332      	adds	r3, #50	; 0x32
 8008e22:	4a87      	ldr	r2, [pc, #540]	; (8009040 <UART_SetConfig+0x38c>)
 8008e24:	fba2 2303 	umull	r2, r3, r2, r3
 8008e28:	095b      	lsrs	r3, r3, #5
 8008e2a:	005b      	lsls	r3, r3, #1
 8008e2c:	f403 73f8 	and.w	r3, r3, #496	; 0x1f0
 8008e30:	441e      	add	r6, r3
 8008e32:	6f7b      	ldr	r3, [r7, #116]	; 0x74
 8008e34:	4618      	mov	r0, r3
 8008e36:	f04f 0100 	mov.w	r1, #0
 8008e3a:	4602      	mov	r2, r0
 8008e3c:	460b      	mov	r3, r1
 8008e3e:	1894      	adds	r4, r2, r2
 8008e40:	623c      	str	r4, [r7, #32]
 8008e42:	415b      	adcs	r3, r3
 8008e44:	627b      	str	r3, [r7, #36]	; 0x24
 8008e46:	e9d7 2308 	ldrd	r2, r3, [r7, #32]
 8008e4a:	1812      	adds	r2, r2, r0
 8008e4c:	eb41 0303 	adc.w	r3, r1, r3
 8008e50:	f04f 0400 	mov.w	r4, #0
 8008e54:	f04f 0500 	mov.w	r5, #0
 8008e58:	00dd      	lsls	r5, r3, #3
 8008e5a:	ea45 7552 	orr.w	r5, r5, r2, lsr #29
 8008e5e:	00d4      	lsls	r4, r2, #3
 8008e60:	4622      	mov	r2, r4
 8008e62:	462b      	mov	r3, r5
 8008e64:	1814      	adds	r4, r2, r0
 8008e66:	653c      	str	r4, [r7, #80]	; 0x50
 8008e68:	414b      	adcs	r3, r1
 8008e6a:	657b      	str	r3, [r7, #84]	; 0x54
 8008e6c:	6efb      	ldr	r3, [r7, #108]	; 0x6c
 8008e6e:	685b      	ldr	r3, [r3, #4]
 8008e70:	461a      	mov	r2, r3
 8008e72:	f04f 0300 	mov.w	r3, #0
 8008e76:	1891      	adds	r1, r2, r2
 8008e78:	61b9      	str	r1, [r7, #24]
 8008e7a:	415b      	adcs	r3, r3
 8008e7c:	61fb      	str	r3, [r7, #28]
 8008e7e:	e9d7 2306 	ldrd	r2, r3, [r7, #24]
 8008e82:	e9d7 0114 	ldrd	r0, r1, [r7, #80]	; 0x50
 8008e86:	f7fd f931 	bl	80060ec <__aeabi_uldivmod>
 8008e8a:	4602      	mov	r2, r0
 8008e8c:	460b      	mov	r3, r1
 8008e8e:	4b6c      	ldr	r3, [pc, #432]	; (8009040 <UART_SetConfig+0x38c>)
 8008e90:	fba3 1302 	umull	r1, r3, r3, r2
 8008e94:	095b      	lsrs	r3, r3, #5
 8008e96:	2164      	movs	r1, #100	; 0x64
 8008e98:	fb01 f303 	mul.w	r3, r1, r3
 8008e9c:	1ad3      	subs	r3, r2, r3
 8008e9e:	00db      	lsls	r3, r3, #3
 8008ea0:	3332      	adds	r3, #50	; 0x32
 8008ea2:	4a67      	ldr	r2, [pc, #412]	; (8009040 <UART_SetConfig+0x38c>)
 8008ea4:	fba2 2303 	umull	r2, r3, r2, r3
 8008ea8:	095b      	lsrs	r3, r3, #5
 8008eaa:	f003 0207 	and.w	r2, r3, #7
 8008eae:	6efb      	ldr	r3, [r7, #108]	; 0x6c
 8008eb0:	681b      	ldr	r3, [r3, #0]
 8008eb2:	4432      	add	r2, r6
 8008eb4:	609a      	str	r2, [r3, #8]
  }
  else
  {
    huart->Instance->BRR = UART_BRR_SAMPLING16(pclk, huart->Init.BaudRate);
  }
}
 8008eb6:	e0b9      	b.n	800902c <UART_SetConfig+0x378>
    huart->Instance->BRR = UART_BRR_SAMPLING16(pclk, huart->Init.BaudRate);
 8008eb8:	6f7b      	ldr	r3, [r7, #116]	; 0x74
 8008eba:	461c      	mov	r4, r3
 8008ebc:	f04f 0500 	mov.w	r5, #0
 8008ec0:	4622      	mov	r2, r4
 8008ec2:	462b      	mov	r3, r5
 8008ec4:	1891      	adds	r1, r2, r2
 8008ec6:	6139      	str	r1, [r7, #16]
 8008ec8:	415b      	adcs	r3, r3
 8008eca:	617b      	str	r3, [r7, #20]
 8008ecc:	e9d7 2304 	ldrd	r2, r3, [r7, #16]
 8008ed0:	1912      	adds	r2, r2, r4
 8008ed2:	eb45 0303 	adc.w	r3, r5, r3
 8008ed6:	f04f 0000 	mov.w	r0, #0
 8008eda:	f04f 0100 	mov.w	r1, #0
 8008ede:	00d9      	lsls	r1, r3, #3
 8008ee0:	ea41 7152 	orr.w	r1, r1, r2, lsr #29
 8008ee4:	00d0      	lsls	r0, r2, #3
 8008ee6:	4602      	mov	r2, r0
 8008ee8:	460b      	mov	r3, r1
 8008eea:	eb12 0804 	adds.w	r8, r2, r4
 8008eee:	eb43 0905 	adc.w	r9, r3, r5
 8008ef2:	6efb      	ldr	r3, [r7, #108]	; 0x6c
 8008ef4:	685b      	ldr	r3, [r3, #4]
 8008ef6:	4618      	mov	r0, r3
 8008ef8:	f04f 0100 	mov.w	r1, #0
 8008efc:	f04f 0200 	mov.w	r2, #0
 8008f00:	f04f 0300 	mov.w	r3, #0
 8008f04:	008b      	lsls	r3, r1, #2
 8008f06:	ea43 7390 	orr.w	r3, r3, r0, lsr #30
 8008f0a:	0082      	lsls	r2, r0, #2
 8008f0c:	4640      	mov	r0, r8
 8008f0e:	4649      	mov	r1, r9
 8008f10:	f7fd f8ec 	bl	80060ec <__aeabi_uldivmod>
 8008f14:	4602      	mov	r2, r0
 8008f16:	460b      	mov	r3, r1
 8008f18:	4b49      	ldr	r3, [pc, #292]	; (8009040 <UART_SetConfig+0x38c>)
 8008f1a:	fba3 2302 	umull	r2, r3, r3, r2
 8008f1e:	095b      	lsrs	r3, r3, #5
 8008f20:	011e      	lsls	r6, r3, #4
 8008f22:	6f7b      	ldr	r3, [r7, #116]	; 0x74
 8008f24:	4618      	mov	r0, r3
 8008f26:	f04f 0100 	mov.w	r1, #0
 8008f2a:	4602      	mov	r2, r0
 8008f2c:	460b      	mov	r3, r1
 8008f2e:	1894      	adds	r4, r2, r2
 8008f30:	60bc      	str	r4, [r7, #8]
 8008f32:	415b      	adcs	r3, r3
 8008f34:	60fb      	str	r3, [r7, #12]
 8008f36:	e9d7 2302 	ldrd	r2, r3, [r7, #8]
 8008f3a:	1812      	adds	r2, r2, r0
 8008f3c:	eb41 0303 	adc.w	r3, r1, r3
 8008f40:	f04f 0400 	mov.w	r4, #0
 8008f44:	f04f 0500 	mov.w	r5, #0
 8008f48:	00dd      	lsls	r5, r3, #3
 8008f4a:	ea45 7552 	orr.w	r5, r5, r2, lsr #29
 8008f4e:	00d4      	lsls	r4, r2, #3
 8008f50:	4622      	mov	r2, r4
 8008f52:	462b      	mov	r3, r5
 8008f54:	1814      	adds	r4, r2, r0
 8008f56:	64bc      	str	r4, [r7, #72]	; 0x48
 8008f58:	414b      	adcs	r3, r1
 8008f5a:	64fb      	str	r3, [r7, #76]	; 0x4c
 8008f5c:	6efb      	ldr	r3, [r7, #108]	; 0x6c
 8008f5e:	685b      	ldr	r3, [r3, #4]
 8008f60:	4618      	mov	r0, r3
 8008f62:	f04f 0100 	mov.w	r1, #0
 8008f66:	f04f 0200 	mov.w	r2, #0
 8008f6a:	f04f 0300 	mov.w	r3, #0
 8008f6e:	008b      	lsls	r3, r1, #2
 8008f70:	ea43 7390 	orr.w	r3, r3, r0, lsr #30
 8008f74:	0082      	lsls	r2, r0, #2
 8008f76:	e9d7 0112 	ldrd	r0, r1, [r7, #72]	; 0x48
 8008f7a:	f7fd f8b7 	bl	80060ec <__aeabi_uldivmod>
 8008f7e:	4602      	mov	r2, r0
 8008f80:	460b      	mov	r3, r1
 8008f82:	4b2f      	ldr	r3, [pc, #188]	; (8009040 <UART_SetConfig+0x38c>)
 8008f84:	fba3 1302 	umull	r1, r3, r3, r2
 8008f88:	095b      	lsrs	r3, r3, #5
 8008f8a:	2164      	movs	r1, #100	; 0x64
 8008f8c:	fb01 f303 	mul.w	r3, r1, r3
 8008f90:	1ad3      	subs	r3, r2, r3
 8008f92:	011b      	lsls	r3, r3, #4
 8008f94:	3332      	adds	r3, #50	; 0x32
 8008f96:	4a2a      	ldr	r2, [pc, #168]	; (8009040 <UART_SetConfig+0x38c>)
 8008f98:	fba2 2303 	umull	r2, r3, r2, r3
 8008f9c:	095b      	lsrs	r3, r3, #5
 8008f9e:	f003 03f0 	and.w	r3, r3, #240	; 0xf0
 8008fa2:	441e      	add	r6, r3
 8008fa4:	6f7b      	ldr	r3, [r7, #116]	; 0x74
 8008fa6:	4618      	mov	r0, r3
 8008fa8:	f04f 0100 	mov.w	r1, #0
 8008fac:	4602      	mov	r2, r0
 8008fae:	460b      	mov	r3, r1
 8008fb0:	1894      	adds	r4, r2, r2
 8008fb2:	603c      	str	r4, [r7, #0]
 8008fb4:	415b      	adcs	r3, r3
 8008fb6:	607b      	str	r3, [r7, #4]
 8008fb8:	e9d7 2300 	ldrd	r2, r3, [r7]
 8008fbc:	1812      	adds	r2, r2, r0
 8008fbe:	eb41 0303 	adc.w	r3, r1, r3
 8008fc2:	f04f 0400 	mov.w	r4, #0
 8008fc6:	f04f 0500 	mov.w	r5, #0
 8008fca:	00dd      	lsls	r5, r3, #3
 8008fcc:	ea45 7552 	orr.w	r5, r5, r2, lsr #29
 8008fd0:	00d4      	lsls	r4, r2, #3
 8008fd2:	4622      	mov	r2, r4
 8008fd4:	462b      	mov	r3, r5
 8008fd6:	eb12 0a00 	adds.w	sl, r2, r0
 8008fda:	eb43 0b01 	adc.w	fp, r3, r1
 8008fde:	6efb      	ldr	r3, [r7, #108]	; 0x6c
 8008fe0:	685b      	ldr	r3, [r3, #4]
 8008fe2:	4618      	mov	r0, r3
 8008fe4:	f04f 0100 	mov.w	r1, #0
 8008fe8:	f04f 0200 	mov.w	r2, #0
 8008fec:	f04f 0300 	mov.w	r3, #0
 8008ff0:	008b      	lsls	r3, r1, #2
 8008ff2:	ea43 7390 	orr.w	r3, r3, r0, lsr #30
 8008ff6:	0082      	lsls	r2, r0, #2
 8008ff8:	4650      	mov	r0, sl
 8008ffa:	4659      	mov	r1, fp
 8008ffc:	f7fd f876 	bl	80060ec <__aeabi_uldivmod>
 8009000:	4602      	mov	r2, r0
 8009002:	460b      	mov	r3, r1
 8009004:	4b0e      	ldr	r3, [pc, #56]	; (8009040 <UART_SetConfig+0x38c>)
 8009006:	fba3 1302 	umull	r1, r3, r3, r2
 800900a:	095b      	lsrs	r3, r3, #5
 800900c:	2164      	movs	r1, #100	; 0x64
 800900e:	fb01 f303 	mul.w	r3, r1, r3
 8009012:	1ad3      	subs	r3, r2, r3
 8009014:	011b      	lsls	r3, r3, #4
 8009016:	3332      	adds	r3, #50	; 0x32
 8009018:	4a09      	ldr	r2, [pc, #36]	; (8009040 <UART_SetConfig+0x38c>)
 800901a:	fba2 2303 	umull	r2, r3, r2, r3
 800901e:	095b      	lsrs	r3, r3, #5
 8009020:	f003 020f 	and.w	r2, r3, #15
 8009024:	6efb      	ldr	r3, [r7, #108]	; 0x6c
 8009026:	681b      	ldr	r3, [r3, #0]
 8009028:	4432      	add	r2, r6
 800902a:	609a      	str	r2, [r3, #8]
}
 800902c:	bf00      	nop
 800902e:	377c      	adds	r7, #124	; 0x7c
 8009030:	46bd      	mov	sp, r7
 8009032:	e8bd 8ff0 	ldmia.w	sp!, {r4, r5, r6, r7, r8, r9, sl, fp, pc}
 8009036:	bf00      	nop
 8009038:	40011000 	.word	0x40011000
 800903c:	40011400 	.word	0x40011400
 8009040:	51eb851f 	.word	0x51eb851f

08009044 <AES_GCM_Decrypt_Init>:
}


/* Initialization for AES GCM Decryption */
int32_t AES_GCM_Decrypt_Init(AESGCMctx_stt *P_pAESGCMctx, const uint8_t *P_pKey, const uint8_t *P_pIv)
{
 8009044:	b580      	push	{r7, lr}
 8009046:	b086      	sub	sp, #24
 8009048:	af00      	add	r7, sp, #0
 800904a:	60f8      	str	r0, [r7, #12]
 800904c:	60b9      	str	r1, [r7, #8]
 800904e:	607a      	str	r2, [r7, #4]
  int32_t retval;
  cmox_cipher_retval_t cmox_retval;

  if ((P_pAESGCMctx == NULL) || (P_pKey == NULL) || (P_pIv == NULL))
 8009050:	68fb      	ldr	r3, [r7, #12]
 8009052:	2b00      	cmp	r3, #0
 8009054:	d005      	beq.n	8009062 <AES_GCM_Decrypt_Init+0x1e>
 8009056:	68bb      	ldr	r3, [r7, #8]
 8009058:	2b00      	cmp	r3, #0
 800905a:	d002      	beq.n	8009062 <AES_GCM_Decrypt_Init+0x1e>
 800905c:	687b      	ldr	r3, [r7, #4]
 800905e:	2b00      	cmp	r3, #0
 8009060:	d103      	bne.n	800906a <AES_GCM_Decrypt_Init+0x26>
  {
    retval = AES_ERR_BAD_PARAMETER;
 8009062:	f44f 6342 	mov.w	r3, #3104	; 0xc20
 8009066:	617b      	str	r3, [r7, #20]
    goto error;
 8009068:	e087      	b.n	800917a <AES_GCM_Decrypt_Init+0x136>
  }
  if ((P_pAESGCMctx->mTagSize < 1) || (P_pAESGCMctx->mTagSize > 16) ||
 800906a:	68fb      	ldr	r3, [r7, #12]
 800906c:	f8d3 3948 	ldr.w	r3, [r3, #2376]	; 0x948
 8009070:	2b00      	cmp	r3, #0
 8009072:	dd18      	ble.n	80090a6 <AES_GCM_Decrypt_Init+0x62>
 8009074:	68fb      	ldr	r3, [r7, #12]
 8009076:	f8d3 3948 	ldr.w	r3, [r3, #2376]	; 0x948
 800907a:	2b10      	cmp	r3, #16
 800907c:	dc13      	bgt.n	80090a6 <AES_GCM_Decrypt_Init+0x62>
      (P_pAESGCMctx->mIvSize != 12) ||
 800907e:	68fb      	ldr	r3, [r7, #12]
 8009080:	f8d3 3940 	ldr.w	r3, [r3, #2368]	; 0x940
  if ((P_pAESGCMctx->mTagSize < 1) || (P_pAESGCMctx->mTagSize > 16) ||
 8009084:	2b0c      	cmp	r3, #12
 8009086:	d10e      	bne.n	80090a6 <AES_GCM_Decrypt_Init+0x62>
      ((P_pAESGCMctx->mKeySize != CRL_AES128_KEY) && (P_pAESGCMctx->mKeySize != CRL_AES192_KEY)
 8009088:	68fb      	ldr	r3, [r7, #12]
 800908a:	f8d3 3944 	ldr.w	r3, [r3, #2372]	; 0x944
      (P_pAESGCMctx->mIvSize != 12) ||
 800908e:	2b10      	cmp	r3, #16
 8009090:	d00d      	beq.n	80090ae <AES_GCM_Decrypt_Init+0x6a>
      ((P_pAESGCMctx->mKeySize != CRL_AES128_KEY) && (P_pAESGCMctx->mKeySize != CRL_AES192_KEY)
 8009092:	68fb      	ldr	r3, [r7, #12]
 8009094:	f8d3 3944 	ldr.w	r3, [r3, #2372]	; 0x944
 8009098:	2b18      	cmp	r3, #24
 800909a:	d008      	beq.n	80090ae <AES_GCM_Decrypt_Init+0x6a>
       && (P_pAESGCMctx->mKeySize != CRL_AES256_KEY)))
 800909c:	68fb      	ldr	r3, [r7, #12]
 800909e:	f8d3 3944 	ldr.w	r3, [r3, #2372]	; 0x944
 80090a2:	2b20      	cmp	r3, #32
 80090a4:	d003      	beq.n	80090ae <AES_GCM_Decrypt_Init+0x6a>
  {
    retval = AES_ERR_BAD_CONTEXT;
 80090a6:	f640 431f 	movw	r3, #3103	; 0xc1f
 80090aa:	617b      	str	r3, [r7, #20]
    goto error;
 80090ac:	e065      	b.n	800917a <AES_GCM_Decrypt_Init+0x136>
  }
  /* We are initializing, so let's set to zero some finalization flags */
  P_pAESGCMctx->mFlags &= ~(E_SK_NO_MORE_APPEND_ALLOWED
 80090ae:	68fb      	ldr	r3, [r7, #12]
 80090b0:	f8d3 393c 	ldr.w	r3, [r3, #2364]	; 0x93c
 80090b4:	f023 0216 	bic.w	r2, r3, #22
 80090b8:	68fb      	ldr	r3, [r7, #12]
 80090ba:	f8c3 293c 	str.w	r2, [r3, #2364]	; 0x93c
                            | E_SK_OPERATION_COMPLETED | E_SK_NO_MORE_HEADER_APPEND_ALLOWED);

  P_pAESGCMctx->cipher_handle = cmox_gcmFast_construct(&P_pAESGCMctx->gcm_handle, CMOX_AESFAST_GCMFAST_DEC);
 80090be:	68fb      	ldr	r3, [r7, #12]
 80090c0:	4a30      	ldr	r2, [pc, #192]	; (8009184 <AES_GCM_Decrypt_Init+0x140>)
 80090c2:	6812      	ldr	r2, [r2, #0]
 80090c4:	4611      	mov	r1, r2
 80090c6:	4618      	mov	r0, r3
 80090c8:	f7f9 fe83 	bl	8002dd2 <cmox_gcmFast_construct>
 80090cc:	4602      	mov	r2, r0
 80090ce:	68fb      	ldr	r3, [r7, #12]
 80090d0:	f8c3 2934 	str.w	r2, [r3, #2356]	; 0x934
  if (P_pAESGCMctx->cipher_handle == NULL)
 80090d4:	68fb      	ldr	r3, [r7, #12]
 80090d6:	f8d3 3934 	ldr.w	r3, [r3, #2356]	; 0x934
 80090da:	2b00      	cmp	r3, #0
 80090dc:	d103      	bne.n	80090e6 <AES_GCM_Decrypt_Init+0xa2>
  {
    retval = AES_ERR_BAD_PARAMETER;
 80090de:	f44f 6342 	mov.w	r3, #3104	; 0xc20
 80090e2:	617b      	str	r3, [r7, #20]
    goto error;
 80090e4:	e049      	b.n	800917a <AES_GCM_Decrypt_Init+0x136>
  }

  cmox_retval = cmox_cipher_init(P_pAESGCMctx->cipher_handle);
 80090e6:	68fb      	ldr	r3, [r7, #12]
 80090e8:	f8d3 3934 	ldr.w	r3, [r3, #2356]	; 0x934
 80090ec:	4618      	mov	r0, r3
 80090ee:	f7f7 f873 	bl	80001d8 <cmox_cipher_init>
 80090f2:	6138      	str	r0, [r7, #16]
  if (cmox_retval != CMOX_CIPHER_SUCCESS)
 80090f4:	693b      	ldr	r3, [r7, #16]
 80090f6:	f5b3 3f80 	cmp.w	r3, #65536	; 0x10000
 80090fa:	d003      	beq.n	8009104 <AES_GCM_Decrypt_Init+0xc0>
  {
    retval = AES_ERR_BAD_PARAMETER;
 80090fc:	f44f 6342 	mov.w	r3, #3104	; 0xc20
 8009100:	617b      	str	r3, [r7, #20]
    goto error;
 8009102:	e03a      	b.n	800917a <AES_GCM_Decrypt_Init+0x136>
  }
  cmox_retval = cmox_cipher_setKey(P_pAESGCMctx->cipher_handle, P_pKey, (cmox_cipher_keyLen_t)P_pAESGCMctx->mKeySize);
 8009104:	68fb      	ldr	r3, [r7, #12]
 8009106:	f8d3 0934 	ldr.w	r0, [r3, #2356]	; 0x934
 800910a:	68fb      	ldr	r3, [r7, #12]
 800910c:	f8d3 3944 	ldr.w	r3, [r3, #2372]	; 0x944
 8009110:	461a      	mov	r2, r3
 8009112:	68b9      	ldr	r1, [r7, #8]
 8009114:	f7f7 f868 	bl	80001e8 <cmox_cipher_setKey>
 8009118:	6138      	str	r0, [r7, #16]
  if (cmox_retval != CMOX_CIPHER_SUCCESS)
 800911a:	693b      	ldr	r3, [r7, #16]
 800911c:	f5b3 3f80 	cmp.w	r3, #65536	; 0x10000
 8009120:	d003      	beq.n	800912a <AES_GCM_Decrypt_Init+0xe6>
  {
    retval = AES_ERR_BAD_PARAMETER;
 8009122:	f44f 6342 	mov.w	r3, #3104	; 0xc20
 8009126:	617b      	str	r3, [r7, #20]
    goto error;
 8009128:	e027      	b.n	800917a <AES_GCM_Decrypt_Init+0x136>
  }
  cmox_retval = cmox_cipher_setTagLen(P_pAESGCMctx->cipher_handle, (size_t)P_pAESGCMctx->mTagSize);
 800912a:	68fb      	ldr	r3, [r7, #12]
 800912c:	f8d3 2934 	ldr.w	r2, [r3, #2356]	; 0x934
 8009130:	68fb      	ldr	r3, [r7, #12]
 8009132:	f8d3 3948 	ldr.w	r3, [r3, #2376]	; 0x948
 8009136:	4619      	mov	r1, r3
 8009138:	4610      	mov	r0, r2
 800913a:	f7f7 f871 	bl	8000220 <cmox_cipher_setTagLen>
 800913e:	6138      	str	r0, [r7, #16]
  if (cmox_retval != CMOX_CIPHER_SUCCESS)
 8009140:	693b      	ldr	r3, [r7, #16]
 8009142:	f5b3 3f80 	cmp.w	r3, #65536	; 0x10000
 8009146:	d003      	beq.n	8009150 <AES_GCM_Decrypt_Init+0x10c>
  {
    retval = AES_ERR_BAD_PARAMETER;
 8009148:	f44f 6342 	mov.w	r3, #3104	; 0xc20
 800914c:	617b      	str	r3, [r7, #20]
    goto error;
 800914e:	e014      	b.n	800917a <AES_GCM_Decrypt_Init+0x136>
  }
  cmox_retval = cmox_cipher_setIV(P_pAESGCMctx->cipher_handle, P_pIv, (size_t)P_pAESGCMctx->mIvSize);
 8009150:	68fb      	ldr	r3, [r7, #12]
 8009152:	f8d3 0934 	ldr.w	r0, [r3, #2356]	; 0x934
 8009156:	68fb      	ldr	r3, [r7, #12]
 8009158:	f8d3 3940 	ldr.w	r3, [r3, #2368]	; 0x940
 800915c:	461a      	mov	r2, r3
 800915e:	6879      	ldr	r1, [r7, #4]
 8009160:	f7f7 f850 	bl	8000204 <cmox_cipher_setIV>
 8009164:	6138      	str	r0, [r7, #16]
  if (cmox_retval != CMOX_CIPHER_SUCCESS)
 8009166:	693b      	ldr	r3, [r7, #16]
 8009168:	f5b3 3f80 	cmp.w	r3, #65536	; 0x10000
 800916c:	d003      	beq.n	8009176 <AES_GCM_Decrypt_Init+0x132>
  {
    retval = AES_ERR_BAD_PARAMETER;
 800916e:	f44f 6342 	mov.w	r3, #3104	; 0xc20
 8009172:	617b      	str	r3, [r7, #20]
    goto error;
 8009174:	e001      	b.n	800917a <AES_GCM_Decrypt_Init+0x136>
  }

  retval = AES_SUCCESS;
 8009176:	2300      	movs	r3, #0
 8009178:	617b      	str	r3, [r7, #20]

error:
  return retval;
 800917a:	697b      	ldr	r3, [r7, #20]
}
 800917c:	4618      	mov	r0, r3
 800917e:	3718      	adds	r7, #24
 8009180:	46bd      	mov	sp, r7
 8009182:	bd80      	pop	{r7, pc}
 8009184:	08009510 	.word	0x08009510

08009188 <AES_GCM_Decrypt_Append>:
int32_t AES_GCM_Decrypt_Append(AESGCMctx_stt *P_pAESGCMctx,
                               const uint8_t *P_pInputBuffer,
                               int32_t        P_inputSize,
                               uint8_t       *P_pOutputBuffer,
                               int32_t       *P_pOutputSize)
{
 8009188:	b580      	push	{r7, lr}
 800918a:	b08a      	sub	sp, #40	; 0x28
 800918c:	af02      	add	r7, sp, #8
 800918e:	60f8      	str	r0, [r7, #12]
 8009190:	60b9      	str	r1, [r7, #8]
 8009192:	607a      	str	r2, [r7, #4]
 8009194:	603b      	str	r3, [r7, #0]
     between int32_t (used in legacy helper) and size_t (used by the library
     for specifying lengths). */
  size_t tempOutputLen;

  /* Parameter Checking */
  if (P_pAESGCMctx == NULL)
 8009196:	68fb      	ldr	r3, [r7, #12]
 8009198:	2b00      	cmp	r3, #0
 800919a:	d103      	bne.n	80091a4 <AES_GCM_Decrypt_Append+0x1c>
  {
    retval = AES_ERR_BAD_PARAMETER;
 800919c:	f44f 6342 	mov.w	r3, #3104	; 0xc20
 80091a0:	61fb      	str	r3, [r7, #28]
    goto error;
 80091a2:	e01c      	b.n	80091de <AES_GCM_Decrypt_Append+0x56>
  }
  cmox_retval = cmox_cipher_append(P_pAESGCMctx->cipher_handle, P_pInputBuffer, (size_t)P_inputSize,
 80091a4:	68fb      	ldr	r3, [r7, #12]
 80091a6:	f8d3 0934 	ldr.w	r0, [r3, #2356]	; 0x934
 80091aa:	687a      	ldr	r2, [r7, #4]
 80091ac:	f107 0314 	add.w	r3, r7, #20
 80091b0:	9300      	str	r3, [sp, #0]
 80091b2:	683b      	ldr	r3, [r7, #0]
 80091b4:	68b9      	ldr	r1, [r7, #8]
 80091b6:	f7f7 f83b 	bl	8000230 <cmox_cipher_append>
 80091ba:	61b8      	str	r0, [r7, #24]
                                   P_pOutputBuffer, &tempOutputLen);

  if (cmox_retval != CMOX_CIPHER_SUCCESS)
 80091bc:	69bb      	ldr	r3, [r7, #24]
 80091be:	f5b3 3f80 	cmp.w	r3, #65536	; 0x10000
 80091c2:	d003      	beq.n	80091cc <AES_GCM_Decrypt_Append+0x44>
  {
    retval = AES_ERR_BAD_OPERATION;
 80091c4:	f640 431e 	movw	r3, #3102	; 0xc1e
 80091c8:	61fb      	str	r3, [r7, #28]
    goto error;
 80091ca:	e008      	b.n	80091de <AES_GCM_Decrypt_Append+0x56>
  }

  /* Copy the cast to int32_t of tempOutputLen in order to not overwrite
     other data close to P_pOutputSize. */
  if (P_pOutputSize != NULL)
 80091cc:	6abb      	ldr	r3, [r7, #40]	; 0x28
 80091ce:	2b00      	cmp	r3, #0
 80091d0:	d003      	beq.n	80091da <AES_GCM_Decrypt_Append+0x52>
  {
    *P_pOutputSize = (int32_t)tempOutputLen;
 80091d2:	697b      	ldr	r3, [r7, #20]
 80091d4:	461a      	mov	r2, r3
 80091d6:	6abb      	ldr	r3, [r7, #40]	; 0x28
 80091d8:	601a      	str	r2, [r3, #0]
  }

  retval = AES_SUCCESS;
 80091da:	2300      	movs	r3, #0
 80091dc:	61fb      	str	r3, [r7, #28]

error:
  return retval;
 80091de:	69fb      	ldr	r3, [r7, #28]
}
 80091e0:	4618      	mov	r0, r3
 80091e2:	3720      	adds	r7, #32
 80091e4:	46bd      	mov	sp, r7
 80091e6:	bd80      	pop	{r7, pc}

080091e8 <AES_GCM_Decrypt_Finish>:

/* AES GCM Finalization during Decryption, the authentication TAG will be checked */
int32_t AES_GCM_Decrypt_Finish(AESGCMctx_stt *P_pAESGCMctx,
                               uint8_t       *P_pOutputBuffer,
                               int32_t       *P_pOutputSize)
{
 80091e8:	b580      	push	{r7, lr}
 80091ea:	b086      	sub	sp, #24
 80091ec:	af00      	add	r7, sp, #0
 80091ee:	60f8      	str	r0, [r7, #12]
 80091f0:	60b9      	str	r1, [r7, #8]
 80091f2:	607a      	str	r2, [r7, #4]
  cmox_cipher_retval_t cmox_retval;

  (void)P_pOutputBuffer;

  /* Parameter checking */
  if (P_pAESGCMctx == NULL)
 80091f4:	68fb      	ldr	r3, [r7, #12]
 80091f6:	2b00      	cmp	r3, #0
 80091f8:	d103      	bne.n	8009202 <AES_GCM_Decrypt_Finish+0x1a>
  {
    retval = AES_ERR_BAD_PARAMETER;
 80091fa:	f44f 6342 	mov.w	r3, #3104	; 0xc20
 80091fe:	617b      	str	r3, [r7, #20]
    goto error;
 8009200:	e03a      	b.n	8009278 <AES_GCM_Decrypt_Finish+0x90>
  }
  if ((P_pAESGCMctx->mTagSize < 1) || (P_pAESGCMctx->mTagSize > 16))
 8009202:	68fb      	ldr	r3, [r7, #12]
 8009204:	f8d3 3948 	ldr.w	r3, [r3, #2376]	; 0x948
 8009208:	2b00      	cmp	r3, #0
 800920a:	dd04      	ble.n	8009216 <AES_GCM_Decrypt_Finish+0x2e>
 800920c:	68fb      	ldr	r3, [r7, #12]
 800920e:	f8d3 3948 	ldr.w	r3, [r3, #2376]	; 0x948
 8009212:	2b10      	cmp	r3, #16
 8009214:	dd03      	ble.n	800921e <AES_GCM_Decrypt_Finish+0x36>
  {
    retval = AES_ERR_BAD_CONTEXT;
 8009216:	f640 431f 	movw	r3, #3103	; 0xc1f
 800921a:	617b      	str	r3, [r7, #20]
    goto error;
 800921c:	e02c      	b.n	8009278 <AES_GCM_Decrypt_Finish+0x90>
  }
  if (P_pAESGCMctx->pmTag == NULL)
 800921e:	68fb      	ldr	r3, [r7, #12]
 8009220:	f8d3 394c 	ldr.w	r3, [r3, #2380]	; 0x94c
 8009224:	2b00      	cmp	r3, #0
 8009226:	d103      	bne.n	8009230 <AES_GCM_Decrypt_Finish+0x48>
  {
    retval = AES_ERR_BAD_CONTEXT;
 8009228:	f640 431f 	movw	r3, #3103	; 0xc1f
 800922c:	617b      	str	r3, [r7, #20]
    goto error;
 800922e:	e023      	b.n	8009278 <AES_GCM_Decrypt_Finish+0x90>
  }

  if (P_pOutputSize != NULL)
 8009230:	687b      	ldr	r3, [r7, #4]
 8009232:	2b00      	cmp	r3, #0
 8009234:	d002      	beq.n	800923c <AES_GCM_Decrypt_Finish+0x54>
  {
    *P_pOutputSize = 0;
 8009236:	687b      	ldr	r3, [r7, #4]
 8009238:	2200      	movs	r2, #0
 800923a:	601a      	str	r2, [r3, #0]
  }

  cmox_retval = cmox_cipher_verifyTag(P_pAESGCMctx->cipher_handle, P_pAESGCMctx->pmTag, NULL);
 800923c:	68fb      	ldr	r3, [r7, #12]
 800923e:	f8d3 0934 	ldr.w	r0, [r3, #2356]	; 0x934
 8009242:	68fb      	ldr	r3, [r7, #12]
 8009244:	f8d3 394c 	ldr.w	r3, [r3, #2380]	; 0x94c
 8009248:	2200      	movs	r2, #0
 800924a:	4619      	mov	r1, r3
 800924c:	f7f7 f808 	bl	8000260 <cmox_cipher_verifyTag>
 8009250:	6138      	str	r0, [r7, #16]
  if (cmox_retval == CMOX_CIPHER_AUTH_SUCCESS)
 8009252:	693b      	ldr	r3, [r7, #16]
 8009254:	4a0b      	ldr	r2, [pc, #44]	; (8009284 <AES_GCM_Decrypt_Finish+0x9c>)
 8009256:	4293      	cmp	r3, r2
 8009258:	d103      	bne.n	8009262 <AES_GCM_Decrypt_Finish+0x7a>
  {
    retval = AUTHENTICATION_SUCCESSFUL;
 800925a:	f240 33eb 	movw	r3, #1003	; 0x3eb
 800925e:	617b      	str	r3, [r7, #20]
 8009260:	e00a      	b.n	8009278 <AES_GCM_Decrypt_Finish+0x90>
  }
  else if (cmox_retval == CMOX_CIPHER_AUTH_FAIL)
 8009262:	693b      	ldr	r3, [r7, #16]
 8009264:	4a08      	ldr	r2, [pc, #32]	; (8009288 <AES_GCM_Decrypt_Finish+0xa0>)
 8009266:	4293      	cmp	r3, r2
 8009268:	d103      	bne.n	8009272 <AES_GCM_Decrypt_Finish+0x8a>
  {
    retval = AUTHENTICATION_FAILED;
 800926a:	f44f 737b 	mov.w	r3, #1004	; 0x3ec
 800926e:	617b      	str	r3, [r7, #20]
 8009270:	e002      	b.n	8009278 <AES_GCM_Decrypt_Finish+0x90>
  }
  else
  {
    retval = AES_ERR_BAD_OPERATION;
 8009272:	f640 431e 	movw	r3, #3102	; 0xc1e
 8009276:	617b      	str	r3, [r7, #20]
  }

error:
  return retval;
 8009278:	697b      	ldr	r3, [r7, #20]
}
 800927a:	4618      	mov	r0, r3
 800927c:	3718      	adds	r7, #24
 800927e:	46bd      	mov	sp, r7
 8009280:	bd80      	pop	{r7, pc}
 8009282:	bf00      	nop
 8009284:	0001c726 	.word	0x0001c726
 8009288:	00016e93 	.word	0x00016e93

0800928c <__aeabi_memclr>:
 800928c:	2200      	movs	r2, #0
 800928e:	f7fc bedf 	b.w	8006050 <__aeabi_memset>

08009292 <__aeabi_memcpy>:
 8009292:	f000 b825 	b.w	80092e0 <memcpy>
	...

08009298 <__libc_init_array>:
 8009298:	b570      	push	{r4, r5, r6, lr}
 800929a:	4d0d      	ldr	r5, [pc, #52]	; (80092d0 <__libc_init_array+0x38>)
 800929c:	4c0d      	ldr	r4, [pc, #52]	; (80092d4 <__libc_init_array+0x3c>)
 800929e:	1b64      	subs	r4, r4, r5
 80092a0:	10a4      	asrs	r4, r4, #2
 80092a2:	2600      	movs	r6, #0
 80092a4:	42a6      	cmp	r6, r4
 80092a6:	d109      	bne.n	80092bc <__libc_init_array+0x24>
 80092a8:	4d0b      	ldr	r5, [pc, #44]	; (80092d8 <__libc_init_array+0x40>)
 80092aa:	4c0c      	ldr	r4, [pc, #48]	; (80092dc <__libc_init_array+0x44>)
 80092ac:	f000 f82e 	bl	800930c <_init>
 80092b0:	1b64      	subs	r4, r4, r5
 80092b2:	10a4      	asrs	r4, r4, #2
 80092b4:	2600      	movs	r6, #0
 80092b6:	42a6      	cmp	r6, r4
 80092b8:	d105      	bne.n	80092c6 <__libc_init_array+0x2e>
 80092ba:	bd70      	pop	{r4, r5, r6, pc}
 80092bc:	f855 3b04 	ldr.w	r3, [r5], #4
 80092c0:	4798      	blx	r3
 80092c2:	3601      	adds	r6, #1
 80092c4:	e7ee      	b.n	80092a4 <__libc_init_array+0xc>
 80092c6:	f855 3b04 	ldr.w	r3, [r5], #4
 80092ca:	4798      	blx	r3
 80092cc:	3601      	adds	r6, #1
 80092ce:	e7f2      	b.n	80092b6 <__libc_init_array+0x1e>
 80092d0:	0800a0dc 	.word	0x0800a0dc
 80092d4:	0800a0dc 	.word	0x0800a0dc
 80092d8:	0800a0dc 	.word	0x0800a0dc
 80092dc:	0800a0e0 	.word	0x0800a0e0

080092e0 <memcpy>:
 80092e0:	440a      	add	r2, r1
 80092e2:	4291      	cmp	r1, r2
 80092e4:	f100 33ff 	add.w	r3, r0, #4294967295
 80092e8:	d100      	bne.n	80092ec <memcpy+0xc>
 80092ea:	4770      	bx	lr
 80092ec:	b510      	push	{r4, lr}
 80092ee:	f811 4b01 	ldrb.w	r4, [r1], #1
 80092f2:	f803 4f01 	strb.w	r4, [r3, #1]!
 80092f6:	4291      	cmp	r1, r2
 80092f8:	d1f9      	bne.n	80092ee <memcpy+0xe>
 80092fa:	bd10      	pop	{r4, pc}

080092fc <memset>:
 80092fc:	4402      	add	r2, r0
 80092fe:	4603      	mov	r3, r0
 8009300:	4293      	cmp	r3, r2
 8009302:	d100      	bne.n	8009306 <memset+0xa>
 8009304:	4770      	bx	lr
 8009306:	f803 1b01 	strb.w	r1, [r3], #1
 800930a:	e7f9      	b.n	8009300 <memset+0x4>

0800930c <_init>:
 800930c:	b5f8      	push	{r3, r4, r5, r6, r7, lr}
 800930e:	bf00      	nop
 8009310:	bcf8      	pop	{r3, r4, r5, r6, r7}
 8009312:	bc08      	pop	{r3}
 8009314:	469e      	mov	lr, r3
 8009316:	4770      	bx	lr

08009318 <_fini>:
 8009318:	b5f8      	push	{r3, r4, r5, r6, r7, lr}
 800931a:	bf00      	nop
 800931c:	bcf8      	pop	{r3, r4, r5, r6, r7}
 800931e:	bc08      	pop	{r3}
 8009320:	469e      	mov	lr, r3
 8009322:	4770      	bx	lr
